
obj/dhrystone/main.elf:     file format elf32-loongarch
obj/dhrystone/main.elf


Disassembly of section .init:

1c000000 <_start>:
_start():
1c000000:	157f5f19 	lu12i.w	$r25,-263432(0xbfaf8)
1c000004:	03bff339 	ori	$r25,$r25,0xffc
1c000008:	29800320 	st.w	$r0,$r25,0
1c00000c:	157f5ff9 	lu12i.w	$r25,-263425(0xbfaff)
1c000010:	03bcc339 	ori	$r25,$r25,0xf30
1c000014:	29800320 	st.w	$r0,$r25,0
1c000018:	157f5f19 	lu12i.w	$r25,-263432(0xbfaf8)
1c00001c:	03bff339 	ori	$r25,$r25,0xffc
1c000020:	29800320 	st.w	$r0,$r25,0
1c000024:	157f5f19 	lu12i.w	$r25,-263432(0xbfaf8)
1c000028:	03bff339 	ori	$r25,$r25,0xffc
1c00002c:	29800320 	st.w	$r0,$r25,0
1c000030:	157f5ff9 	lu12i.w	$r25,-263425(0xbfaff)
1c000034:	03bd0339 	ori	$r25,$r25,0xf40
1c000038:	29800320 	st.w	$r0,$r25,0
1c00003c:	157f5f19 	lu12i.w	$r25,-263432(0xbfaf8)
1c000040:	03bff339 	ori	$r25,$r25,0xffc
1c000044:	29800320 	st.w	$r0,$r25,0
1c000048:	0380040c 	ori	$r12,$r0,0x1
1c00004c:	0404042c 	csrwr	$r12,0x101
1c000050:	1c00004c 	pcaddu12i	$r12,2(0x2)
1c000054:	02a6c18c 	addi.w	$r12,$r12,-1616(0x9b0)
1c000058:	1c00100d 	pcaddu12i	$r13,128(0x80)
1c00005c:	02bea1ad 	addi.w	$r13,$r13,-88(0xfa8)
1c000060:	1c00100e 	pcaddu12i	$r14,128(0x80)
1c000064:	029d01ce 	addi.w	$r14,$r14,1856(0x740)
1c000068:	6c0019ae 	bgeu	$r13,$r14,24(0x18) # 1c000080 <_start+0x80>
1c00006c:	2880018f 	ld.w	$r15,$r12,0
1c000070:	298001af 	st.w	$r15,$r13,0
1c000074:	0280118c 	addi.w	$r12,$r12,4(0x4)
1c000078:	028011ad 	addi.w	$r13,$r13,4(0x4)
1c00007c:	6bfff1ae 	bltu	$r13,$r14,-16(0x3fff0) # 1c00006c <_start+0x6c>
1c000080:	1c00100c 	pcaddu12i	$r12,128(0x80)
1c000084:	029c818c 	addi.w	$r12,$r12,1824(0x720)
1c000088:	1c00106d 	pcaddu12i	$r13,131(0x83)
1c00008c:	02be01ad 	addi.w	$r13,$r13,-128(0xf80)
1c000090:	6c00118d 	bgeu	$r12,$r13,16(0x10) # 1c0000a0 <_start+0xa0>
1c000094:	29800180 	st.w	$r0,$r12,0
1c000098:	0280118c 	addi.w	$r12,$r12,4(0x4)
1c00009c:	6bfff98d 	bltu	$r12,$r13,-8(0x3fff8) # 1c000094 <_start+0x94>
1c0000a0:	04060020 	csrwr	$r0,0x180
1c0000a4:	04060420 	csrwr	$r0,0x181
1c0000a8:	0380640c 	ori	$r12,$r0,0x19
1c0000ac:	0406002c 	csrwr	$r12,0x180
1c0000b0:	1540000c 	lu12i.w	$r12,-393216(0xa0000)
1c0000b4:	0380258c 	ori	$r12,$r12,0x9
1c0000b8:	0406042c 	csrwr	$r12,0x181
1c0000bc:	0380400c 	ori	$r12,$r0,0x10
1c0000c0:	0380600d 	ori	$r13,$r0,0x18
1c0000c4:	040001ac 	csrxchg	$r12,$r13,0x0
1c0000c8:	1438000c 	lu12i.w	$r12,114688(0x1c000)
1c0000cc:	038e018c 	ori	$r12,$r12,0x380
1c0000d0:	0400302c 	csrwr	$r12,0xc
1c0000d4:	1c002003 	pcaddu12i	$r3,256(0x100)
1c0000d8:	02bca063 	addi.w	$r3,$r3,-216(0xf28)
1c0000dc:	5002b000 	b	688(0x2b0) # 1c00038c <run_test>
	...

1c000100 <test_finish>:
test_finish():
1c000100:	0280058c 	addi.w	$r12,$r12,1(0x1)
1c000104:	157f5fee 	lu12i.w	$r14,-263425(0xbfaff)
1c000108:	03bc41ce 	ori	$r14,$r14,0xf10
1c00010c:	298001c0 	st.w	$r0,$r14,0
1c000110:	157f5fec 	lu12i.w	$r12,-263425(0xbfaff)
1c000114:	0381818c 	ori	$r12,$r12,0x60
1c000118:	2880018c 	ld.w	$r12,$r12,0
1c00011c:	0342018c 	andi	$r12,$r12,0x80
1c000120:	5800180c 	beq	$r0,$r12,24(0x18) # 1c000138 <test_finish+0x38>
1c000124:	03400000 	andi	$r0,$r0,0x0
1c000128:	157f5f0c 	lu12i.w	$r12,-263432(0xbfaf8)
1c00012c:	2880018d 	ld.w	$r13,$r12,0
1c000130:	50001400 	b	20(0x14) # 1c000144 <test_finish+0x44>
1c000134:	03400000 	andi	$r0,$r0,0x0
1c000138:	157f5f0c 	lu12i.w	$r12,-263432(0xbfaf8)
1c00013c:	0380418c 	ori	$r12,$r12,0x10
1c000140:	2880018d 	ld.w	$r13,$r12,0
1c000144:	157f5fec 	lu12i.w	$r12,-263425(0xbfaff)
1c000148:	0381418c 	ori	$r12,$r12,0x50
1c00014c:	2980018d 	st.w	$r13,$r12,0
1c000150:	53ffc3ff 	b	-64(0xfffffc0) # 1c000110 <test_finish+0x10>
1c000154:	03400000 	andi	$r0,$r0,0x0
1c000158:	1500000c 	lu12i.w	$r12,-524288(0x80000)
1c00015c:	028005ad 	addi.w	$r13,$r13,1(0x1)
1c000160:	0015018e 	move	$r14,$r12
1c000164:	00104a2f 	add.w	$r15,$r17,$r18
1c000168:	28800190 	ld.w	$r16,$r12,0
	...
1c000380:	0280058c 	addi.w	$r12,$r12,1(0x1)
1c000384:	53ffffff 	b	-4(0xffffffc) # 1c000380 <test_finish+0x280>
1c000388:	03400000 	andi	$r0,$r0,0x0

1c00038c <run_test>:
run_test():
1c00038c:	54001400 	bl	20(0x14) # 1c0003a0 <shell5>
1c000390:	03400000 	andi	$r0,$r0,0x0

1c000394 <go_finish>:
go_finish():
1c000394:	53fd6fff 	b	-660(0xffffd6c) # 1c000100 <test_finish>

Disassembly of section .text:

1c0003a0 <shell5>:
shell5():
1c0003a0:	02bf8063 	addi.w	$r3,$r3,-32(0xfe0)
1c0003a4:	29807061 	st.w	$r1,$r3,28(0x1c)
1c0003a8:	157f5fcc 	lu12i.w	$r12,-263426(0xbfafe)
1c0003ac:	29806077 	st.w	$r23,$r3,24(0x18)
1c0003b0:	29805078 	st.w	$r24,$r3,20(0x14)
1c0003b4:	29804079 	st.w	$r25,$r3,16(0x10)
1c0003b8:	2980307a 	st.w	$r26,$r3,12(0xc)
1c0003bc:	29800180 	st.w	$r0,$r12,0
1c0003c0:	1c001004 	pcaddu12i	$r4,128(0x80)
1c0003c4:	02b10084 	addi.w	$r4,$r4,-960(0xc40)
1c0003c8:	54138800 	bl	5000(0x1388) # 1c001750 <puts>
1c0003cc:	5414f400 	bl	5364(0x14f4) # 1c0018c0 <get_count>
1c0003d0:	00150099 	move	$r25,$r4
1c0003d4:	54151c00 	bl	5404(0x151c) # 1c0018f0 <get_count_my>
1c0003d8:	0015009a 	move	$r26,$r4
1c0003dc:	157f5fe4 	lu12i.w	$r4,-263425(0xbfaff)
1c0003e0:	03bc8085 	ori	$r5,$r4,0xf20
1c0003e4:	288000a6 	ld.w	$r6,$r5,0
1c0003e8:	02802817 	addi.w	$r23,$r0,10(0xa)
1c0003ec:	00150018 	move	$r24,$r0
1c0003f0:	5c00f0c0 	bne	$r6,$r0,240(0xf0) # 1c0004e0 <shell5+0x140>
1c0003f4:	02802804 	addi.w	$r4,$r0,10(0xa)
1c0003f8:	54011800 	bl	280(0x118) # 1c000510 <dhrystone>
1c0003fc:	02bffef7 	addi.w	$r23,$r23,-1(0xfff)
1c000400:	00101318 	add.w	$r24,$r24,$r4
1c000404:	5ffff2e0 	bne	$r23,$r0,-16(0x3fff0) # 1c0003f4 <shell5+0x54>
1c000408:	5414e800 	bl	5352(0x14e8) # 1c0018f0 <get_count_my>
1c00040c:	00150097 	move	$r23,$r4
1c000410:	5414b000 	bl	5296(0x14b0) # 1c0018c0 <get_count>
1c000414:	00116afa 	sub.w	$r26,$r23,$r26
1c000418:	00116499 	sub.w	$r25,$r4,$r25
1c00041c:	58008b00 	beq	$r24,$r0,136(0x88) # 1c0004a4 <shell5+0x104>
1c000420:	1c001004 	pcaddu12i	$r4,128(0x80)
1c000424:	02b02084 	addi.w	$r4,$r4,-1016(0xc08)
1c000428:	54132800 	bl	4904(0x1328) # 1c001750 <puts>
1c00042c:	157f5fe7 	lu12i.w	$r7,-263425(0xbfaff)
1c000430:	02800410 	addi.w	$r16,$r0,1(0x1)
1c000434:	038100ef 	ori	$r15,$r7,0x40
1c000438:	298001f0 	st.w	$r16,$r15,0
1c00043c:	0280080e 	addi.w	$r14,$r0,2(0x2)
1c000440:	0380c0ed 	ori	$r13,$r7,0x30
1c000444:	038080e8 	ori	$r8,$r7,0x20
1c000448:	298001ae 	st.w	$r14,$r13,0
1c00044c:	29800100 	st.w	$r0,$r8,0
1c000450:	157f5fe1 	lu12i.w	$r1,-263425(0xbfaff)
1c000454:	0381402c 	ori	$r12,$r1,0x50
1c000458:	2980019a 	st.w	$r26,$r12,0
1c00045c:	157f5f06 	lu12i.w	$r6,-263432(0xbfaf8)
1c000460:	038040d8 	ori	$r24,$r6,0x10
1c000464:	298000da 	st.w	$r26,$r6,0
1c000468:	00150325 	move	$r5,$r25
1c00046c:	29800319 	st.w	$r25,$r24,0
1c000470:	1c001004 	pcaddu12i	$r4,128(0x80)
1c000474:	02af3084 	addi.w	$r4,$r4,-1076(0xbcc)
1c000478:	540fb800 	bl	4024(0xfb8) # 1c001430 <printf>
1c00047c:	28807061 	ld.w	$r1,$r3,28(0x1c)
1c000480:	28806077 	ld.w	$r23,$r3,24(0x18)
1c000484:	28805078 	ld.w	$r24,$r3,20(0x14)
1c000488:	28804079 	ld.w	$r25,$r3,16(0x10)
1c00048c:	00150345 	move	$r5,$r26
1c000490:	2880307a 	ld.w	$r26,$r3,12(0xc)
1c000494:	1c001004 	pcaddu12i	$r4,128(0x80)
1c000498:	02af5084 	addi.w	$r4,$r4,-1068(0xbd4)
1c00049c:	02808063 	addi.w	$r3,$r3,32(0x20)
1c0004a0:	500f9000 	b	3984(0xf90) # 1c001430 <printf>
1c0004a4:	1c001004 	pcaddu12i	$r4,128(0x80)
1c0004a8:	02add084 	addi.w	$r4,$r4,-1164(0xb74)
1c0004ac:	5412a400 	bl	4772(0x12a4) # 1c001750 <puts>
1c0004b0:	157f5fe9 	lu12i.w	$r9,-263425(0xbfaff)
1c0004b4:	0280040b 	addi.w	$r11,$r0,1(0x1)
1c0004b8:	03810131 	ori	$r17,$r9,0x40
1c0004bc:	2980022b 	st.w	$r11,$r17,0
1c0004c0:	140001ea 	lu12i.w	$r10,15(0xf)
1c0004c4:	0380c132 	ori	$r18,$r9,0x30
1c0004c8:	03808133 	ori	$r19,$r9,0x20
1c0004cc:	03bffd54 	ori	$r20,$r10,0xfff
1c0004d0:	2980024b 	st.w	$r11,$r18,0
1c0004d4:	29800274 	st.w	$r20,$r19,0
1c0004d8:	53ff7bff 	b	-136(0xfffff78) # 1c000450 <shell5+0xb0>
1c0004dc:	03400000 	andi	$r0,$r0,0x0
1c0004e0:	02802804 	addi.w	$r4,$r0,10(0xa)
1c0004e4:	54002c00 	bl	44(0x2c) # 1c000510 <dhrystone>
1c0004e8:	00150098 	move	$r24,$r4
1c0004ec:	54140400 	bl	5124(0x1404) # 1c0018f0 <get_count_my>
1c0004f0:	00150097 	move	$r23,$r4
1c0004f4:	5413cc00 	bl	5068(0x13cc) # 1c0018c0 <get_count>
1c0004f8:	00116afa 	sub.w	$r26,$r23,$r26
1c0004fc:	00116499 	sub.w	$r25,$r4,$r25
1c000500:	5fff2300 	bne	$r24,$r0,-224(0x3ff20) # 1c000420 <shell5+0x80>
1c000504:	53ffa3ff 	b	-96(0xfffffa0) # 1c0004a4 <shell5+0x104>
1c000508:	03400000 	andi	$r0,$r0,0x0
1c00050c:	03400000 	andi	$r0,$r0,0x0

1c000510 <dhrystone>:
dhrystone():
1c000510:	02bd4063 	addi.w	$r3,$r3,-176(0xf50)
1c000514:	2980b064 	st.w	$r4,$r3,44(0x2c)
1c000518:	02802804 	addi.w	$r4,$r0,10(0xa)
1c00051c:	2982b061 	st.w	$r1,$r3,172(0xac)
1c000520:	2982a076 	st.w	$r22,$r3,168(0xa8)
1c000524:	29829077 	st.w	$r23,$r3,164(0xa4)
1c000528:	29827079 	st.w	$r25,$r3,156(0x9c)
1c00052c:	2982607a 	st.w	$r26,$r3,152(0x98)
1c000530:	2982507b 	st.w	$r27,$r3,148(0x94)
1c000534:	2982407c 	st.w	$r28,$r3,144(0x90)
1c000538:	2982307d 	st.w	$r29,$r3,140(0x8c)
1c00053c:	2982207e 	st.w	$r30,$r3,136(0x88)
1c000540:	29828078 	st.w	$r24,$r3,160(0xa0)
1c000544:	2982107f 	st.w	$r31,$r3,132(0x84)
1c000548:	54112800 	bl	4392(0x1128) # 1c001670 <putchar>
1c00054c:	1c001004 	pcaddu12i	$r4,128(0x80)
1c000550:	02ad2084 	addi.w	$r4,$r4,-1208(0xb48)
1c000554:	5411fc00 	bl	4604(0x11fc) # 1c001750 <puts>
1c000558:	02802804 	addi.w	$r4,$r0,10(0xa)
1c00055c:	54111400 	bl	4372(0x1114) # 1c001670 <putchar>
1c000560:	1c00100c 	pcaddu12i	$r12,128(0x80)
1c000564:	02ae118c 	addi.w	$r12,$r12,-1148(0xb84)
1c000568:	1c00100d 	pcaddu12i	$r13,128(0x80)
1c00056c:	02ad71ad 	addi.w	$r13,$r13,-1188(0xb5c)
1c000570:	288001af 	ld.w	$r15,$r13,0
1c000574:	288011a7 	ld.w	$r7,$r13,4(0x4)
1c000578:	288041a4 	ld.w	$r4,$r13,16(0x10)
1c00057c:	288051b4 	ld.w	$r20,$r13,20(0x14)
1c000580:	288021a5 	ld.w	$r5,$r13,8(0x8)
1c000584:	288031a6 	ld.w	$r6,$r13,12(0xc)
1c000588:	288061b3 	ld.w	$r19,$r13,24(0x18)
1c00058c:	2a4071b2 	ld.hu	$r18,$r13,28(0x1c)
1c000590:	2a0079b1 	ld.bu	$r17,$r13,30(0x1e)
1c000594:	28800188 	ld.w	$r8,$r12,0
1c000598:	28801190 	ld.w	$r16,$r12,4(0x4)
1c00059c:	1c00100e 	pcaddu12i	$r14,128(0x80)
1c0005a0:	2887e1ce 	ld.w	$r14,$r14,504(0x1f8)
1c0005a4:	1c001009 	pcaddu12i	$r9,128(0x80)
1c0005a8:	28875129 	ld.w	$r9,$r9,468(0x1d4)
1c0005ac:	1c00100a 	pcaddu12i	$r10,128(0x80)
1c0005b0:	2887514a 	ld.w	$r10,$r10,468(0x1d4)
1c0005b4:	0280080b 	addi.w	$r11,$r0,2(0x2)
1c0005b8:	1c00101c 	pcaddu12i	$r28,128(0x80)
1c0005bc:	2887639c 	ld.w	$r28,$r28,472(0x1d8)
1c0005c0:	0280a016 	addi.w	$r22,$r0,40(0x28)
1c0005c4:	298041cf 	st.w	$r15,$r14,16(0x10)
1c0005c8:	298051c7 	st.w	$r7,$r14,20(0x14)
1c0005cc:	298001c9 	st.w	$r9,$r14,0
1c0005d0:	298061c5 	st.w	$r5,$r14,24(0x18)
1c0005d4:	298071c6 	st.w	$r6,$r14,28(0x1c)
1c0005d8:	298021cb 	st.w	$r11,$r14,8(0x8)
1c0005dc:	298091d4 	st.w	$r20,$r14,36(0x24)
1c0005e0:	2980a1d3 	st.w	$r19,$r14,40(0x28)
1c0005e4:	2940b1d2 	st.h	$r18,$r14,44(0x2c)
1c0005e8:	2900b9d1 	st.b	$r17,$r14,46(0x2e)
1c0005ec:	29810068 	st.w	$r8,$r3,64(0x40)
1c0005f0:	29800149 	st.w	$r9,$r10,0
1c0005f4:	298081c4 	st.w	$r4,$r14,32(0x20)
1c0005f8:	2980038e 	st.w	$r14,$r28,0
1c0005fc:	298011c0 	st.w	$r0,$r14,4(0x4)
1c000600:	298031d6 	st.w	$r22,$r14,12(0xc)
1c000604:	2880419a 	ld.w	$r26,$r12,16(0x10)
1c000608:	2880519b 	ld.w	$r27,$r12,20(0x14)
1c00060c:	28802197 	ld.w	$r23,$r12,8(0x8)
1c000610:	28803199 	ld.w	$r25,$r12,12(0xc)
1c000614:	2880619d 	ld.w	$r29,$r12,24(0x18)
1c000618:	29811070 	st.w	$r16,$r3,68(0x44)
1c00061c:	2a00798d 	ld.bu	$r13,$r12,30(0x1e)
1c000620:	2a40719e 	ld.hu	$r30,$r12,28(0x1c)
1c000624:	1c00100e 	pcaddu12i	$r14,128(0x80)
1c000628:	288541ce 	ld.w	$r14,$r14,336(0x150)
1c00062c:	0280280c 	addi.w	$r12,$r0,10(0xa)
1c000630:	02802804 	addi.w	$r4,$r0,10(0xa)
1c000634:	299971cc 	st.w	$r12,$r14,1628(0x65c)
1c000638:	2901786d 	st.b	$r13,$r3,94(0x5e)
1c00063c:	29812077 	st.w	$r23,$r3,72(0x48)
1c000640:	29813079 	st.w	$r25,$r3,76(0x4c)
1c000644:	2981407a 	st.w	$r26,$r3,80(0x50)
1c000648:	2981507b 	st.w	$r27,$r3,84(0x54)
1c00064c:	2981607d 	st.w	$r29,$r3,88(0x58)
1c000650:	2941707e 	st.h	$r30,$r3,92(0x5c)
1c000654:	54101c00 	bl	4124(0x101c) # 1c001670 <putchar>
1c000658:	1c001004 	pcaddu12i	$r4,128(0x80)
1c00065c:	02a8f084 	addi.w	$r4,$r4,-1476(0xa3c)
1c000660:	5410f000 	bl	4336(0x10f0) # 1c001750 <puts>
1c000664:	02802804 	addi.w	$r4,$r0,10(0xa)
1c000668:	54100800 	bl	4104(0x1008) # 1c001670 <putchar>
1c00066c:	1c00100f 	pcaddu12i	$r15,128(0x80)
1c000670:	0284d1ef 	addi.w	$r15,$r15,308(0x134)
1c000674:	288001e7 	ld.w	$r7,$r15,0
1c000678:	58096ce0 	beq	$r7,$r0,2412(0x96c) # 1c000fe4 <dhrystone+0xad4>
1c00067c:	1c001004 	pcaddu12i	$r4,128(0x80)
1c000680:	02aa2084 	addi.w	$r4,$r4,-1400(0xa88)
1c000684:	5410cc00 	bl	4300(0x10cc) # 1c001750 <puts>
1c000688:	02802804 	addi.w	$r4,$r0,10(0xa)
1c00068c:	540fe400 	bl	4068(0xfe4) # 1c001670 <putchar>
1c000690:	2880b076 	ld.w	$r22,$r3,44(0x2c)
1c000694:	1c001004 	pcaddu12i	$r4,128(0x80)
1c000698:	02ab3084 	addi.w	$r4,$r4,-1332(0xacc)
1c00069c:	001502c5 	move	$r5,$r22
1c0006a0:	540d9000 	bl	3472(0xd90) # 1c001430 <printf>
1c0006a4:	5412fc00 	bl	4860(0x12fc) # 1c0019a0 <get_ns>
1c0006a8:	1c001005 	pcaddu12i	$r5,128(0x80)
1c0006ac:	288320a5 	ld.w	$r5,$r5,200(0xc8)
1c0006b0:	298000a4 	st.w	$r4,$r5,0
1c0006b4:	64099416 	bge	$r0,$r22,2452(0x994) # 1c001048 <dhrystone+0xb38>
1c0006b8:	1c00101a 	pcaddu12i	$r26,128(0x80)
1c0006bc:	02ab635a 	addi.w	$r26,$r26,-1320(0xad8)
1c0006c0:	2880b078 	ld.w	$r24,$r3,44(0x2c)
1c0006c4:	28800354 	ld.w	$r20,$r26,0
1c0006c8:	28801353 	ld.w	$r19,$r26,4(0x4)
1c0006cc:	28802352 	ld.w	$r18,$r26,8(0x8)
1c0006d0:	28803351 	ld.w	$r17,$r26,12(0xc)
1c0006d4:	28804348 	ld.w	$r8,$r26,16(0x10)
1c0006d8:	28805350 	ld.w	$r16,$r26,20(0x14)
1c0006dc:	0280071f 	addi.w	$r31,$r24,1(0x1)
1c0006e0:	02818069 	addi.w	$r9,$r3,96(0x60)
1c0006e4:	0281006a 	addi.w	$r10,$r3,64(0x40)
1c0006e8:	2980407f 	st.w	$r31,$r3,16(0x10)
1c0006ec:	02800419 	addi.w	$r25,$r0,1(0x1)
1c0006f0:	1c00101d 	pcaddu12i	$r29,128(0x80)
1c0006f4:	288263bd 	ld.w	$r29,$r29,152(0x98)
1c0006f8:	29805074 	st.w	$r20,$r3,20(0x14)
1c0006fc:	29806073 	st.w	$r19,$r3,24(0x18)
1c000700:	29807072 	st.w	$r18,$r3,28(0x1c)
1c000704:	29808071 	st.w	$r17,$r3,32(0x20)
1c000708:	29809068 	st.w	$r8,$r3,36(0x24)
1c00070c:	2980a070 	st.w	$r16,$r3,40(0x28)
1c000710:	1c00101e 	pcaddu12i	$r30,128(0x80)
1c000714:	288233de 	ld.w	$r30,$r30,140(0x8c)
1c000718:	1c001017 	pcaddu12i	$r23,128(0x80)
1c00071c:	2881d2f7 	ld.w	$r23,$r23,116(0x74)
1c000720:	29803069 	st.w	$r9,$r3,12(0xc)
1c000724:	2980206a 	st.w	$r10,$r3,8(0x8)
1c000728:	1c00101b 	pcaddu12i	$r27,128(0x80)
1c00072c:	2881737b 	ld.w	$r27,$r27,92(0x5c)
1c000730:	28809064 	ld.w	$r4,$r3,36(0x24)
1c000734:	02810805 	addi.w	$r5,$r0,66(0x42)
1c000738:	2880634b 	ld.w	$r11,$r26,24(0x18)
1c00073c:	2a40734e 	ld.hu	$r14,$r26,28(0x1c)
1c000740:	2a007b4d 	ld.bu	$r13,$r26,30(0x1e)
1c000744:	28805067 	ld.w	$r7,$r3,20(0x14)
1c000748:	28808061 	ld.w	$r1,$r3,32(0x20)
1c00074c:	28806076 	ld.w	$r22,$r3,24(0x18)
1c000750:	28807066 	ld.w	$r6,$r3,28(0x1c)
1c000754:	2880a078 	ld.w	$r24,$r3,40(0x28)
1c000758:	290002e5 	st.b	$r5,$r23,0
1c00075c:	2981c064 	st.w	$r4,$r3,112(0x70)
1c000760:	28803065 	ld.w	$r5,$r3,12(0xc)
1c000764:	28802064 	ld.w	$r4,$r3,8(0x8)
1c000768:	0280040c 	addi.w	$r12,$r0,1(0x1)
1c00076c:	0281040f 	addi.w	$r15,$r0,65(0x41)
1c000770:	2981d078 	st.w	$r24,$r3,116(0x74)
1c000774:	2981e06b 	st.w	$r11,$r3,120(0x78)
1c000778:	298003cc 	st.w	$r12,$r30,0
1c00077c:	29818067 	st.w	$r7,$r3,96(0x60)
1c000780:	290003af 	st.b	$r15,$r29,0
1c000784:	2981b061 	st.w	$r1,$r3,108(0x6c)
1c000788:	2941f06e 	st.h	$r14,$r3,124(0x7c)
1c00078c:	2901f86d 	st.b	$r13,$r3,126(0x7e)
1c000790:	2980f06c 	st.w	$r12,$r3,60(0x3c)
1c000794:	29819076 	st.w	$r22,$r3,100(0x64)
1c000798:	2981a066 	st.w	$r6,$r3,104(0x68)
1c00079c:	540c3400 	bl	3124(0xc34) # 1c0013d0 <Func_2>
1c0007a0:	02400494 	sltui	$r20,$r4,1(0x1)
1c0007a4:	0280e066 	addi.w	$r6,$r3,56(0x38)
1c0007a8:	02800c05 	addi.w	$r5,$r0,3(0x3)
1c0007ac:	02801c1f 	addi.w	$r31,$r0,7(0x7)
1c0007b0:	02800804 	addi.w	$r4,$r0,2(0x2)
1c0007b4:	298003d4 	st.w	$r20,$r30,0
1c0007b8:	2980e07f 	st.w	$r31,$r3,56(0x38)
1c0007bc:	540b4400 	bl	2884(0xb44) # 1c001300 <Proc_7>
1c0007c0:	2880e067 	ld.w	$r7,$r3,56(0x38)
1c0007c4:	02800c06 	addi.w	$r6,$r0,3(0x3)
1c0007c8:	1c001005 	pcaddu12i	$r5,128(0x80)
1c0007cc:	28beb0a5 	ld.w	$r5,$r5,-84(0xfac)
1c0007d0:	1c001004 	pcaddu12i	$r4,128(0x80)
1c0007d4:	28bf2084 	ld.w	$r4,$r4,-56(0xfc8)
1c0007d8:	540b4800 	bl	2888(0xb48) # 1c001320 <Proc_8>
1c0007dc:	28800396 	ld.w	$r22,$r28,0
1c0007e0:	288002d8 	ld.w	$r24,$r22,0
1c0007e4:	001502c9 	move	$r9,$r22
1c0007e8:	0280c2d3 	addi.w	$r19,$r22,48(0x30)
1c0007ec:	0015030a 	move	$r10,$r24
1c0007f0:	28800132 	ld.w	$r18,$r9,0
1c0007f4:	28801131 	ld.w	$r17,$r9,4(0x4)
1c0007f8:	28802128 	ld.w	$r8,$r9,8(0x8)
1c0007fc:	28803130 	ld.w	$r16,$r9,12(0xc)
1c000800:	02804129 	addi.w	$r9,$r9,16(0x10)
1c000804:	29800152 	st.w	$r18,$r10,0
1c000808:	29801151 	st.w	$r17,$r10,4(0x4)
1c00080c:	29802148 	st.w	$r8,$r10,8(0x8)
1c000810:	29803150 	st.w	$r16,$r10,12(0xc)
1c000814:	0280414a 	addi.w	$r10,$r10,16(0x10)
1c000818:	5fffd933 	bne	$r9,$r19,-40(0x3ffd8) # 1c0007f0 <dhrystone+0x2e0>
1c00081c:	288002cb 	ld.w	$r11,$r22,0
1c000820:	0280140e 	addi.w	$r14,$r0,5(0x5)
1c000824:	298032ce 	st.w	$r14,$r22,12(0xc)
1c000828:	28800365 	ld.w	$r5,$r27,0
1c00082c:	2980030b 	st.w	$r11,$r24,0
1c000830:	288002cd 	ld.w	$r13,$r22,0
1c000834:	2980330e 	st.w	$r14,$r24,12(0xc)
1c000838:	02802804 	addi.w	$r4,$r0,10(0xa)
1c00083c:	2980030d 	st.w	$r13,$r24,0
1c000840:	2880038c 	ld.w	$r12,$r28,0
1c000844:	02803186 	addi.w	$r6,$r12,12(0xc)
1c000848:	540ab800 	bl	2744(0xab8) # 1c001300 <Proc_7>
1c00084c:	2880130f 	ld.w	$r15,$r24,4(0x4)
1c000850:	580741e0 	beq	$r15,$r0,1856(0x740) # 1c000f90 <dhrystone+0xa80>
1c000854:	288002df 	ld.w	$r31,$r22,0
1c000858:	001502d4 	move	$r20,$r22
1c00085c:	0280c3e7 	addi.w	$r7,$r31,48(0x30)
1c000860:	288003e5 	ld.w	$r5,$r31,0
1c000864:	288013e6 	ld.w	$r6,$r31,4(0x4)
1c000868:	288023e1 	ld.w	$r1,$r31,8(0x8)
1c00086c:	288033e4 	ld.w	$r4,$r31,12(0xc)
1c000870:	028043ff 	addi.w	$r31,$r31,16(0x10)
1c000874:	29800285 	st.w	$r5,$r20,0
1c000878:	29801286 	st.w	$r6,$r20,4(0x4)
1c00087c:	29802281 	st.w	$r1,$r20,8(0x8)
1c000880:	29803284 	st.w	$r4,$r20,12(0xc)
1c000884:	02804294 	addi.w	$r20,$r20,16(0x10)
1c000888:	5fffdbe7 	bne	$r31,$r7,-40(0x3ffd8) # 1c000860 <dhrystone+0x350>
1c00088c:	280002f1 	ld.b	$r17,$r23,0
1c000890:	02810008 	addi.w	$r8,$r0,64(0x40)
1c000894:	02810416 	addi.w	$r22,$r0,65(0x41)
1c000898:	02800c18 	addi.w	$r24,$r0,3(0x3)
1c00089c:	1c00101f 	pcaddu12i	$r31,128(0x80)
1c0008a0:	02a453ff 	addi.w	$r31,$r31,-1772(0x914)
1c0008a4:	64073911 	bge	$r8,$r17,1848(0x738) # 1c000fdc <dhrystone+0xacc>
1c0008a8:	001502c4 	move	$r4,$r22
1c0008ac:	02810c05 	addi.w	$r5,$r0,67(0x43)
1c0008b0:	540ae000 	bl	2784(0xae0) # 1c001390 <Func_1>
1c0008b4:	2880f06a 	ld.w	$r10,$r3,60(0x3c)
1c0008b8:	028006d0 	addi.w	$r16,$r22,1(0x1)
1c0008bc:	58065c8a 	beq	$r4,$r10,1628(0x65c) # 1c000f18 <dhrystone+0xa08>
1c0008c0:	29801070 	st.w	$r16,$r3,4(0x4)
1c0008c4:	28001076 	ld.b	$r22,$r3,4(0x4)
1c0008c8:	280002eb 	ld.b	$r11,$r23,0
1c0008cc:	67ffdd76 	bge	$r11,$r22,-36(0x3ffdc) # 1c0008a8 <dhrystone+0x398>
1c0008d0:	02800c01 	addi.w	$r1,$r0,3(0x3)
1c0008d4:	001c0709 	mul.w	$r9,$r24,$r1
1c0008d8:	2880e071 	ld.w	$r17,$r3,56(0x38)
1c0008dc:	280003a8 	ld.b	$r8,$r29,0
1c0008e0:	02810416 	addi.w	$r22,$r0,65(0x41)
1c0008e4:	0020453f 	div.w	$r31,$r9,$r17
1c0008e8:	5c000a20 	bne	$r17,$r0,8(0x8) # 1c0008f0 <dhrystone+0x3e0>
1c0008ec:	002a0007 	break	0x7
1c0008f0:	001503f8 	move	$r24,$r31
1c0008f4:	5c001116 	bne	$r8,$r22,16(0x10) # 1c000904 <dhrystone+0x3f4>
1c0008f8:	28800370 	ld.w	$r16,$r27,0
1c0008fc:	028027f8 	addi.w	$r24,$r31,9(0x9)
1c000900:	00114318 	sub.w	$r24,$r24,$r16
1c000904:	2880406a 	ld.w	$r10,$r3,16(0x10)
1c000908:	02800739 	addi.w	$r25,$r25,1(0x1)
1c00090c:	5ffe272a 	bne	$r25,$r10,-476(0x3fe24) # 1c000730 <dhrystone+0x220>
1c000910:	0011453a 	sub.w	$r26,$r9,$r17
1c000914:	02801c09 	addi.w	$r9,$r0,7(0x7)
1c000918:	001c274b 	mul.w	$r11,$r26,$r9
1c00091c:	00117d7f 	sub.w	$r31,$r11,$r31
1c000920:	54108000 	bl	4224(0x1080) # 1c0019a0 <get_ns>
1c000924:	1c00101a 	pcaddu12i	$r26,128(0x80)
1c000928:	28b9635a 	ld.w	$r26,$r26,-424(0xe58)
1c00092c:	29800344 	st.w	$r4,$r26,0
1c000930:	1c001004 	pcaddu12i	$r4,128(0x80)
1c000934:	02a28084 	addi.w	$r4,$r4,-1888(0x8a0)
1c000938:	540e1800 	bl	3608(0xe18) # 1c001750 <puts>
1c00093c:	02802804 	addi.w	$r4,$r0,10(0xa)
1c000940:	540d3000 	bl	3376(0xd30) # 1c001670 <putchar>
1c000944:	1c001004 	pcaddu12i	$r4,128(0x80)
1c000948:	02a27084 	addi.w	$r4,$r4,-1892(0x89c)
1c00094c:	540e0400 	bl	3588(0xe04) # 1c001750 <puts>
1c000950:	02802804 	addi.w	$r4,$r0,10(0xa)
1c000954:	540d1c00 	bl	3356(0xd1c) # 1c001670 <putchar>
1c000958:	28800365 	ld.w	$r5,$r27,0
1c00095c:	1c001004 	pcaddu12i	$r4,128(0x80)
1c000960:	02a2f084 	addi.w	$r4,$r4,-1860(0x8bc)
1c000964:	1c001016 	pcaddu12i	$r22,128(0x80)
1c000968:	28b872d6 	ld.w	$r22,$r22,-484(0xe1c)
1c00096c:	540ac400 	bl	2756(0xac4) # 1c001430 <printf>
1c000970:	02801405 	addi.w	$r5,$r0,5(0x5)
1c000974:	1c001004 	pcaddu12i	$r4,128(0x80)
1c000978:	02a30084 	addi.w	$r4,$r4,-1856(0x8c0)
1c00097c:	540ab400 	bl	2740(0xab4) # 1c001430 <printf>
1c000980:	288003c5 	ld.w	$r5,$r30,0
1c000984:	1c001004 	pcaddu12i	$r4,128(0x80)
1c000988:	02a33084 	addi.w	$r4,$r4,-1844(0x8cc)
1c00098c:	02800419 	addi.w	$r25,$r0,1(0x1)
1c000990:	540aa000 	bl	2720(0xaa0) # 1c001430 <printf>
1c000994:	02800405 	addi.w	$r5,$r0,1(0x1)
1c000998:	1c001004 	pcaddu12i	$r4,128(0x80)
1c00099c:	02a27084 	addi.w	$r4,$r4,-1892(0x89c)
1c0009a0:	540a9000 	bl	2704(0xa90) # 1c001430 <printf>
1c0009a4:	280003a5 	ld.b	$r5,$r29,0
1c0009a8:	1c001004 	pcaddu12i	$r4,128(0x80)
1c0009ac:	02a31084 	addi.w	$r4,$r4,-1852(0x8c4)
1c0009b0:	540a8000 	bl	2688(0xa80) # 1c001430 <printf>
1c0009b4:	02810405 	addi.w	$r5,$r0,65(0x41)
1c0009b8:	1c001004 	pcaddu12i	$r4,128(0x80)
1c0009bc:	02a34084 	addi.w	$r4,$r4,-1840(0x8d0)
1c0009c0:	540a7000 	bl	2672(0xa70) # 1c001430 <printf>
1c0009c4:	280002e5 	ld.b	$r5,$r23,0
1c0009c8:	1c001004 	pcaddu12i	$r4,128(0x80)
1c0009cc:	02a37084 	addi.w	$r4,$r4,-1828(0x8dc)
1c0009d0:	540a6000 	bl	2656(0xa60) # 1c001430 <printf>
1c0009d4:	02810805 	addi.w	$r5,$r0,66(0x42)
1c0009d8:	1c001004 	pcaddu12i	$r4,128(0x80)
1c0009dc:	02a2c084 	addi.w	$r4,$r4,-1872(0x8b0)
1c0009e0:	540a5000 	bl	2640(0xa50) # 1c001430 <printf>
1c0009e4:	1c001007 	pcaddu12i	$r7,128(0x80)
1c0009e8:	28b6d0e7 	ld.w	$r7,$r7,-588(0xdb4)
1c0009ec:	288080e5 	ld.w	$r5,$r7,32(0x20)
1c0009f0:	1c001004 	pcaddu12i	$r4,128(0x80)
1c0009f4:	02a34084 	addi.w	$r4,$r4,-1840(0x8d0)
1c0009f8:	540a3800 	bl	2616(0xa38) # 1c001430 <printf>
1c0009fc:	02801c05 	addi.w	$r5,$r0,7(0x7)
1c000a00:	1c001004 	pcaddu12i	$r4,128(0x80)
1c000a04:	02a0d084 	addi.w	$r4,$r4,-1996(0x834)
1c000a08:	540a2800 	bl	2600(0xa28) # 1c001430 <printf>
1c000a0c:	1c001005 	pcaddu12i	$r5,128(0x80)
1c000a10:	28b5a0a5 	ld.w	$r5,$r5,-664(0xd68)
1c000a14:	289970a5 	ld.w	$r5,$r5,1628(0x65c)
1c000a18:	1c001004 	pcaddu12i	$r4,128(0x80)
1c000a1c:	02a31084 	addi.w	$r4,$r4,-1852(0x8c4)
1c000a20:	540a1000 	bl	2576(0xa10) # 1c001430 <printf>
1c000a24:	2880b066 	ld.w	$r6,$r3,44(0x2c)
1c000a28:	028028c4 	addi.w	$r4,$r6,10(0xa)
1c000a2c:	00150085 	move	$r5,$r4
1c000a30:	29801064 	st.w	$r4,$r3,4(0x4)
1c000a34:	1c001004 	pcaddu12i	$r4,128(0x80)
1c000a38:	02a00084 	addi.w	$r4,$r4,-2048(0x800)
1c000a3c:	5409f400 	bl	2548(0x9f4) # 1c001430 <printf>
1c000a40:	1c001004 	pcaddu12i	$r4,128(0x80)
1c000a44:	02a2e084 	addi.w	$r4,$r4,-1864(0x8b8)
1c000a48:	540d0800 	bl	3336(0xd08) # 1c001750 <puts>
1c000a4c:	28800394 	ld.w	$r20,$r28,0
1c000a50:	1c001004 	pcaddu12i	$r4,128(0x80)
1c000a54:	02a2d084 	addi.w	$r4,$r4,-1868(0x8b4)
1c000a58:	28800285 	ld.w	$r5,$r20,0
1c000a5c:	5409d400 	bl	2516(0x9d4) # 1c001430 <printf>
1c000a60:	1c001004 	pcaddu12i	$r4,128(0x80)
1c000a64:	02a30084 	addi.w	$r4,$r4,-1856(0x8c0)
1c000a68:	540ce800 	bl	3304(0xce8) # 1c001750 <puts>
1c000a6c:	28800393 	ld.w	$r19,$r28,0
1c000a70:	1c001004 	pcaddu12i	$r4,128(0x80)
1c000a74:	02a38084 	addi.w	$r4,$r4,-1824(0x8e0)
1c000a78:	28801265 	ld.w	$r5,$r19,4(0x4)
1c000a7c:	5409b400 	bl	2484(0x9b4) # 1c001430 <printf>
1c000a80:	00150005 	move	$r5,$r0
1c000a84:	1c000fe4 	pcaddu12i	$r4,127(0x7f)
1c000a88:	029ec084 	addi.w	$r4,$r4,1968(0x7b0)
1c000a8c:	5409a400 	bl	2468(0x9a4) # 1c001430 <printf>
1c000a90:	2880038f 	ld.w	$r15,$r28,0
1c000a94:	1c001004 	pcaddu12i	$r4,128(0x80)
1c000a98:	02a36084 	addi.w	$r4,$r4,-1832(0x8d8)
1c000a9c:	288021e5 	ld.w	$r5,$r15,8(0x8)
1c000aa0:	54099000 	bl	2448(0x990) # 1c001430 <printf>
1c000aa4:	02800805 	addi.w	$r5,$r0,2(0x2)
1c000aa8:	1c000fe4 	pcaddu12i	$r4,127(0x7f)
1c000aac:	029e3084 	addi.w	$r4,$r4,1932(0x78c)
1c000ab0:	54098000 	bl	2432(0x980) # 1c001430 <printf>
1c000ab4:	2880038e 	ld.w	$r14,$r28,0
1c000ab8:	1c001004 	pcaddu12i	$r4,128(0x80)
1c000abc:	02a34084 	addi.w	$r4,$r4,-1840(0x8d0)
1c000ac0:	288031c5 	ld.w	$r5,$r14,12(0xc)
1c000ac4:	54096c00 	bl	2412(0x96c) # 1c001430 <printf>
1c000ac8:	02804405 	addi.w	$r5,$r0,17(0x11)
1c000acc:	1c000fe4 	pcaddu12i	$r4,127(0x7f)
1c000ad0:	029da084 	addi.w	$r4,$r4,1896(0x768)
1c000ad4:	54095c00 	bl	2396(0x95c) # 1c001430 <printf>
1c000ad8:	2880038d 	ld.w	$r13,$r28,0
1c000adc:	1c001004 	pcaddu12i	$r4,128(0x80)
1c000ae0:	02a32084 	addi.w	$r4,$r4,-1848(0x8c8)
1c000ae4:	028041a5 	addi.w	$r5,$r13,16(0x10)
1c000ae8:	54094800 	bl	2376(0x948) # 1c001430 <printf>
1c000aec:	1c001004 	pcaddu12i	$r4,128(0x80)
1c000af0:	02a35084 	addi.w	$r4,$r4,-1836(0x8d4)
1c000af4:	540c5c00 	bl	3164(0xc5c) # 1c001750 <puts>
1c000af8:	1c001004 	pcaddu12i	$r4,128(0x80)
1c000afc:	02a3f084 	addi.w	$r4,$r4,-1796(0x8fc)
1c000b00:	540c5000 	bl	3152(0xc50) # 1c001750 <puts>
1c000b04:	288002d2 	ld.w	$r18,$r22,0
1c000b08:	1c000fe4 	pcaddu12i	$r4,127(0x7f)
1c000b0c:	029ff084 	addi.w	$r4,$r4,2044(0x7fc)
1c000b10:	28800245 	ld.w	$r5,$r18,0
1c000b14:	54091c00 	bl	2332(0x91c) # 1c001430 <printf>
1c000b18:	1c001004 	pcaddu12i	$r4,128(0x80)
1c000b1c:	02a3b084 	addi.w	$r4,$r4,-1812(0x8ec)
1c000b20:	540c3000 	bl	3120(0xc30) # 1c001750 <puts>
1c000b24:	288002cc 	ld.w	$r12,$r22,0
1c000b28:	1c001004 	pcaddu12i	$r4,128(0x80)
1c000b2c:	02a0a084 	addi.w	$r4,$r4,-2008(0x828)
1c000b30:	28801185 	ld.w	$r5,$r12,4(0x4)
1c000b34:	5408fc00 	bl	2300(0x8fc) # 1c001430 <printf>
1c000b38:	00150005 	move	$r5,$r0
1c000b3c:	1c000fe4 	pcaddu12i	$r4,127(0x7f)
1c000b40:	029be084 	addi.w	$r4,$r4,1784(0x6f8)
1c000b44:	5408ec00 	bl	2284(0x8ec) # 1c001430 <printf>
1c000b48:	288002d1 	ld.w	$r17,$r22,0
1c000b4c:	1c001004 	pcaddu12i	$r4,128(0x80)
1c000b50:	02a08084 	addi.w	$r4,$r4,-2016(0x820)
1c000b54:	28802225 	ld.w	$r5,$r17,8(0x8)
1c000b58:	5408d800 	bl	2264(0x8d8) # 1c001430 <printf>
1c000b5c:	02800405 	addi.w	$r5,$r0,1(0x1)
1c000b60:	1c000fe4 	pcaddu12i	$r4,127(0x7f)
1c000b64:	029b5084 	addi.w	$r4,$r4,1748(0x6d4)
1c000b68:	5408c800 	bl	2248(0x8c8) # 1c001430 <printf>
1c000b6c:	288002c8 	ld.w	$r8,$r22,0
1c000b70:	1c001004 	pcaddu12i	$r4,128(0x80)
1c000b74:	02a06084 	addi.w	$r4,$r4,-2024(0x818)
1c000b78:	28803105 	ld.w	$r5,$r8,12(0xc)
1c000b7c:	5408b400 	bl	2228(0x8b4) # 1c001430 <printf>
1c000b80:	02804805 	addi.w	$r5,$r0,18(0x12)
1c000b84:	1c000fe4 	pcaddu12i	$r4,127(0x7f)
1c000b88:	029ac084 	addi.w	$r4,$r4,1712(0x6b0)
1c000b8c:	5408a400 	bl	2212(0x8a4) # 1c001430 <printf>
1c000b90:	288002d0 	ld.w	$r16,$r22,0
1c000b94:	1c001004 	pcaddu12i	$r4,128(0x80)
1c000b98:	02a04084 	addi.w	$r4,$r4,-2032(0x810)
1c000b9c:	02804205 	addi.w	$r5,$r16,16(0x10)
1c000ba0:	54089000 	bl	2192(0x890) # 1c001430 <printf>
1c000ba4:	1c001004 	pcaddu12i	$r4,128(0x80)
1c000ba8:	02a07084 	addi.w	$r4,$r4,-2020(0x81c)
1c000bac:	540ba400 	bl	2980(0xba4) # 1c001750 <puts>
1c000bb0:	00150305 	move	$r5,$r24
1c000bb4:	1c001004 	pcaddu12i	$r4,128(0x80)
1c000bb8:	02a24084 	addi.w	$r4,$r4,-1904(0x890)
1c000bbc:	54087400 	bl	2164(0x874) # 1c001430 <printf>
1c000bc0:	02801405 	addi.w	$r5,$r0,5(0x5)
1c000bc4:	1c000fe4 	pcaddu12i	$r4,127(0x7f)
1c000bc8:	0299c084 	addi.w	$r4,$r4,1648(0x670)
1c000bcc:	54086400 	bl	2148(0x864) # 1c001430 <printf>
1c000bd0:	001503e5 	move	$r5,$r31
1c000bd4:	1c001004 	pcaddu12i	$r4,128(0x80)
1c000bd8:	02a23084 	addi.w	$r4,$r4,-1908(0x88c)
1c000bdc:	54085400 	bl	2132(0x854) # 1c001430 <printf>
1c000be0:	02803405 	addi.w	$r5,$r0,13(0xd)
1c000be4:	1c000fe4 	pcaddu12i	$r4,127(0x7f)
1c000be8:	02994084 	addi.w	$r4,$r4,1616(0x650)
1c000bec:	54084400 	bl	2116(0x844) # 1c001430 <printf>
1c000bf0:	2880e065 	ld.w	$r5,$r3,56(0x38)
1c000bf4:	1c001004 	pcaddu12i	$r4,128(0x80)
1c000bf8:	02a22084 	addi.w	$r4,$r4,-1912(0x888)
1c000bfc:	54083400 	bl	2100(0x834) # 1c001430 <printf>
1c000c00:	02801c05 	addi.w	$r5,$r0,7(0x7)
1c000c04:	1c000fe4 	pcaddu12i	$r4,127(0x7f)
1c000c08:	0298c084 	addi.w	$r4,$r4,1584(0x630)
1c000c0c:	54082400 	bl	2084(0x824) # 1c001430 <printf>
1c000c10:	2880f065 	ld.w	$r5,$r3,60(0x3c)
1c000c14:	1c001004 	pcaddu12i	$r4,128(0x80)
1c000c18:	02a21084 	addi.w	$r4,$r4,-1916(0x884)
1c000c1c:	54081400 	bl	2068(0x814) # 1c001430 <printf>
1c000c20:	02800405 	addi.w	$r5,$r0,1(0x1)
1c000c24:	1c000fe4 	pcaddu12i	$r4,127(0x7f)
1c000c28:	02984084 	addi.w	$r4,$r4,1552(0x610)
1c000c2c:	54080400 	bl	2052(0x804) # 1c001430 <printf>
1c000c30:	28802065 	ld.w	$r5,$r3,8(0x8)
1c000c34:	1c001004 	pcaddu12i	$r4,128(0x80)
1c000c38:	02a20084 	addi.w	$r4,$r4,-1920(0x880)
1c000c3c:	5407f400 	bl	2036(0x7f4) # 1c001430 <printf>
1c000c40:	1c001004 	pcaddu12i	$r4,128(0x80)
1c000c44:	02a24084 	addi.w	$r4,$r4,-1904(0x890)
1c000c48:	540b0800 	bl	2824(0xb08) # 1c001750 <puts>
1c000c4c:	28803065 	ld.w	$r5,$r3,12(0xc)
1c000c50:	1c001004 	pcaddu12i	$r4,128(0x80)
1c000c54:	02a2d084 	addi.w	$r4,$r4,-1868(0x8b4)
1c000c58:	5407d800 	bl	2008(0x7d8) # 1c001430 <printf>
1c000c5c:	1c001004 	pcaddu12i	$r4,128(0x80)
1c000c60:	02a31084 	addi.w	$r4,$r4,-1852(0x8c4)
1c000c64:	540aec00 	bl	2796(0xaec) # 1c001750 <puts>
1c000c68:	02802804 	addi.w	$r4,$r0,10(0xa)
1c000c6c:	540a0400 	bl	2564(0xa04) # 1c001670 <putchar>
1c000c70:	288003de 	ld.w	$r30,$r30,0
1c000c74:	2880037b 	ld.w	$r27,$r27,0
1c000c78:	2880106a 	ld.w	$r10,$r3,4(0x4)
1c000c7c:	1c001009 	pcaddu12i	$r9,128(0x80)
1c000c80:	28ac7129 	ld.w	$r9,$r9,-1252(0xb1c)
1c000c84:	5c000fd9 	bne	$r30,$r25,12(0xc) # 1c000c90 <dhrystone+0x780>
1c000c88:	03c01761 	xori	$r1,$r27,0x5
1c000c8c:	00128419 	sltu	$r25,$r0,$r1
1c000c90:	280003bd 	ld.b	$r29,$r29,0
1c000c94:	0281040b 	addi.w	$r11,$r0,65(0x41)
1c000c98:	58000bab 	beq	$r29,$r11,8(0x8) # 1c000ca0 <dhrystone+0x790>
1c000c9c:	02800419 	addi.w	$r25,$r0,1(0x1)
1c000ca0:	280002f7 	ld.b	$r23,$r23,0
1c000ca4:	02810807 	addi.w	$r7,$r0,66(0x42)
1c000ca8:	58000ae7 	beq	$r23,$r7,8(0x8) # 1c000cb0 <dhrystone+0x7a0>
1c000cac:	02800419 	addi.w	$r25,$r0,1(0x1)
1c000cb0:	28808125 	ld.w	$r5,$r9,32(0x20)
1c000cb4:	02801c06 	addi.w	$r6,$r0,7(0x7)
1c000cb8:	580008a6 	beq	$r5,$r6,8(0x8) # 1c000cc0 <dhrystone+0x7b0>
1c000cbc:	02800419 	addi.w	$r25,$r0,1(0x1)
1c000cc0:	1c001004 	pcaddu12i	$r4,128(0x80)
1c000cc4:	28aad084 	ld.w	$r4,$r4,-1356(0xab4)
1c000cc8:	28997094 	ld.w	$r20,$r4,1628(0x65c)
1c000ccc:	58000954 	beq	$r10,$r20,8(0x8) # 1c000cd4 <dhrystone+0x7c4>
1c000cd0:	02800419 	addi.w	$r25,$r0,1(0x1)
1c000cd4:	1c001013 	pcaddu12i	$r19,128(0x80)
1c000cd8:	28aab273 	ld.w	$r19,$r19,-1364(0xaac)
1c000cdc:	2880039c 	ld.w	$r28,$r28,0
1c000ce0:	28800276 	ld.w	$r22,$r19,0
1c000ce4:	2880038f 	ld.w	$r15,$r28,0
1c000ce8:	288002ce 	ld.w	$r14,$r22,0
1c000cec:	580009ee 	beq	$r15,$r14,8(0x8) # 1c000cf4 <dhrystone+0x7e4>
1c000cf0:	02800419 	addi.w	$r25,$r0,1(0x1)
1c000cf4:	2880138d 	ld.w	$r13,$r28,4(0x4)
1c000cf8:	5c0349a0 	bne	$r13,$r0,840(0x348) # 1c001040 <dhrystone+0xb30>
1c000cfc:	28802392 	ld.w	$r18,$r28,8(0x8)
1c000d00:	0280080c 	addi.w	$r12,$r0,2(0x2)
1c000d04:	58000a4c 	beq	$r18,$r12,8(0x8) # 1c000d0c <dhrystone+0x7fc>
1c000d08:	02800419 	addi.w	$r25,$r0,1(0x1)
1c000d0c:	28803391 	ld.w	$r17,$r28,12(0xc)
1c000d10:	02804408 	addi.w	$r8,$r0,17(0x11)
1c000d14:	58000a28 	beq	$r17,$r8,8(0x8) # 1c000d1c <dhrystone+0x80c>
1c000d18:	02800419 	addi.w	$r25,$r0,1(0x1)
1c000d1c:	1c000fe5 	pcaddu12i	$r5,127(0x7f)
1c000d20:	028ea0a5 	addi.w	$r5,$r5,936(0x3a8)
1c000d24:	02804384 	addi.w	$r4,$r28,16(0x10)
1c000d28:	540b4800 	bl	2888(0xb48) # 1c001870 <strcmp>
1c000d2c:	5c030480 	bne	$r4,$r0,772(0x304) # 1c001030 <dhrystone+0xb20>
1c000d30:	288012d0 	ld.w	$r16,$r22,4(0x4)
1c000d34:	5c02f600 	bne	$r16,$r0,756(0x2f4) # 1c001028 <dhrystone+0xb18>
1c000d38:	288022de 	ld.w	$r30,$r22,8(0x8)
1c000d3c:	0280041b 	addi.w	$r27,$r0,1(0x1)
1c000d40:	58000bdb 	beq	$r30,$r27,8(0x8) # 1c000d48 <dhrystone+0x838>
1c000d44:	02800419 	addi.w	$r25,$r0,1(0x1)
1c000d48:	288032ca 	ld.w	$r10,$r22,12(0xc)
1c000d4c:	02804809 	addi.w	$r9,$r0,18(0x12)
1c000d50:	58000949 	beq	$r10,$r9,8(0x8) # 1c000d58 <dhrystone+0x848>
1c000d54:	02800419 	addi.w	$r25,$r0,1(0x1)
1c000d58:	1c000fe5 	pcaddu12i	$r5,127(0x7f)
1c000d5c:	028db0a5 	addi.w	$r5,$r5,876(0x36c)
1c000d60:	028042c4 	addi.w	$r4,$r22,16(0x10)
1c000d64:	540b0c00 	bl	2828(0xb0c) # 1c001870 <strcmp>
1c000d68:	5c02b880 	bne	$r4,$r0,696(0x2b8) # 1c001020 <dhrystone+0xb10>
1c000d6c:	02801401 	addi.w	$r1,$r0,5(0x5)
1c000d70:	58000b01 	beq	$r24,$r1,8(0x8) # 1c000d78 <dhrystone+0x868>
1c000d74:	02800419 	addi.w	$r25,$r0,1(0x1)
1c000d78:	02803418 	addi.w	$r24,$r0,13(0xd)
1c000d7c:	58000bf8 	beq	$r31,$r24,8(0x8) # 1c000d84 <dhrystone+0x874>
1c000d80:	02800419 	addi.w	$r25,$r0,1(0x1)
1c000d84:	2880e07f 	ld.w	$r31,$r3,56(0x38)
1c000d88:	02801c1d 	addi.w	$r29,$r0,7(0x7)
1c000d8c:	58000bfd 	beq	$r31,$r29,8(0x8) # 1c000d94 <dhrystone+0x884>
1c000d90:	02800419 	addi.w	$r25,$r0,1(0x1)
1c000d94:	2880f06b 	ld.w	$r11,$r3,60(0x3c)
1c000d98:	02800417 	addi.w	$r23,$r0,1(0x1)
1c000d9c:	58000977 	beq	$r11,$r23,8(0x8) # 1c000da4 <dhrystone+0x894>
1c000da0:	02800419 	addi.w	$r25,$r0,1(0x1)
1c000da4:	28802064 	ld.w	$r4,$r3,8(0x8)
1c000da8:	1c000fe5 	pcaddu12i	$r5,127(0x7f)
1c000dac:	028cf0a5 	addi.w	$r5,$r5,828(0x33c)
1c000db0:	540ac000 	bl	2752(0xac0) # 1c001870 <strcmp>
1c000db4:	5c025080 	bne	$r4,$r0,592(0x250) # 1c001004 <dhrystone+0xaf4>
1c000db8:	28803064 	ld.w	$r4,$r3,12(0xc)
1c000dbc:	1c000fe5 	pcaddu12i	$r5,127(0x7f)
1c000dc0:	028f50a5 	addi.w	$r5,$r5,980(0x3d4)
1c000dc4:	540aac00 	bl	2732(0xaac) # 1c001870 <strcmp>
1c000dc8:	5c023480 	bne	$r4,$r0,564(0x234) # 1c000ffc <dhrystone+0xaec>
1c000dcc:	1c001007 	pcaddu12i	$r7,128(0x80)
1c000dd0:	28a690e7 	ld.w	$r7,$r7,-1628(0x9a4)
1c000dd4:	288000e5 	ld.w	$r5,$r7,0
1c000dd8:	28800346 	ld.w	$r6,$r26,0
1c000ddc:	1c00101c 	pcaddu12i	$r28,128(0x80)
1c000de0:	28a6439c 	ld.w	$r28,$r28,-1648(0x990)
1c000de4:	1c000fe4 	pcaddu12i	$r4,127(0x7f)
1c000de8:	029dc084 	addi.w	$r4,$r4,1904(0x770)
1c000dec:	001114d4 	sub.w	$r20,$r6,$r5
1c000df0:	29800394 	st.w	$r20,$r28,0
1c000df4:	54063c00 	bl	1596(0x63c) # 1c001430 <printf>
1c000df8:	28800345 	ld.w	$r5,$r26,0
1c000dfc:	1c000fe4 	pcaddu12i	$r4,127(0x7f)
1c000e00:	029da084 	addi.w	$r4,$r4,1896(0x768)
1c000e04:	54062c00 	bl	1580(0x62c) # 1c001430 <printf>
1c000e08:	28800385 	ld.w	$r5,$r28,0
1c000e0c:	1c000fe4 	pcaddu12i	$r4,127(0x7f)
1c000e10:	029da084 	addi.w	$r4,$r4,1896(0x768)
1c000e14:	54061c00 	bl	1564(0x61c) # 1c001430 <printf>
1c000e18:	2880039a 	ld.w	$r26,$r28,0
1c000e1c:	0281dc05 	addi.w	$r5,$r0,119(0x77)
1c000e20:	6400a0ba 	bge	$r5,$r26,160(0xa0) # 1c000ec0 <dhrystone+0x9b0>
1c000e24:	2880b06d 	ld.w	$r13,$r3,44(0x2c)
1c000e28:	14001e93 	lu12i.w	$r19,244(0xf4)
1c000e2c:	0389026e 	ori	$r14,$r19,0x240
1c000e30:	001c39ac 	mul.w	$r12,$r13,$r14
1c000e34:	00203752 	div.w	$r18,$r26,$r13
1c000e38:	5c0009a0 	bne	$r13,$r0,8(0x8) # 1c000e40 <dhrystone+0x930>
1c000e3c:	002a0007 	break	0x7
1c000e40:	1c00100f 	pcaddu12i	$r15,128(0x80)
1c000e44:	28a491ef 	ld.w	$r15,$r15,-1756(0x924)
1c000e48:	1c001016 	pcaddu12i	$r22,128(0x80)
1c000e4c:	28a482d6 	ld.w	$r22,$r22,-1760(0x920)
1c000e50:	1c000fe4 	pcaddu12i	$r4,127(0x7f)
1c000e54:	029e3084 	addi.w	$r4,$r4,1932(0x78c)
1c000e58:	298001f2 	st.w	$r18,$r15,0
1c000e5c:	00206991 	div.w	$r17,$r12,$r26
1c000e60:	5c000b40 	bne	$r26,$r0,8(0x8) # 1c000e68 <dhrystone+0x958>
1c000e64:	002a0007 	break	0x7
1c000e68:	298002d1 	st.w	$r17,$r22,0
1c000e6c:	5405c400 	bl	1476(0x5c4) # 1c001430 <printf>
1c000e70:	288002c5 	ld.w	$r5,$r22,0
1c000e74:	1c000fe4 	pcaddu12i	$r4,127(0x7f)
1c000e78:	029e5084 	addi.w	$r4,$r4,1940(0x794)
1c000e7c:	5405b400 	bl	1460(0x5b4) # 1c001430 <printf>
1c000e80:	02802804 	addi.w	$r4,$r0,10(0xa)
1c000e84:	5407ec00 	bl	2028(0x7ec) # 1c001670 <putchar>
1c000e88:	2882b061 	ld.w	$r1,$r3,172(0xac)
1c000e8c:	2882a076 	ld.w	$r22,$r3,168(0xa8)
1c000e90:	00150324 	move	$r4,$r25
1c000e94:	28829077 	ld.w	$r23,$r3,164(0xa4)
1c000e98:	28828078 	ld.w	$r24,$r3,160(0xa0)
1c000e9c:	28827079 	ld.w	$r25,$r3,156(0x9c)
1c000ea0:	2882607a 	ld.w	$r26,$r3,152(0x98)
1c000ea4:	2882507b 	ld.w	$r27,$r3,148(0x94)
1c000ea8:	2882407c 	ld.w	$r28,$r3,144(0x90)
1c000eac:	2882307d 	ld.w	$r29,$r3,140(0x8c)
1c000eb0:	2882207e 	ld.w	$r30,$r3,136(0x88)
1c000eb4:	2882107f 	ld.w	$r31,$r3,132(0x84)
1c000eb8:	0282c063 	addi.w	$r3,$r3,176(0xb0)
1c000ebc:	4c000020 	jirl	$r0,$r1,0
1c000ec0:	1c000fe4 	pcaddu12i	$r4,127(0x7f)
1c000ec4:	029b1084 	addi.w	$r4,$r4,1732(0x6c4)
1c000ec8:	54088800 	bl	2184(0x888) # 1c001750 <puts>
1c000ecc:	1c000fe4 	pcaddu12i	$r4,127(0x7f)
1c000ed0:	029bc084 	addi.w	$r4,$r4,1776(0x6f0)
1c000ed4:	54087c00 	bl	2172(0x87c) # 1c001750 <puts>
1c000ed8:	02802804 	addi.w	$r4,$r0,10(0xa)
1c000edc:	54079400 	bl	1940(0x794) # 1c001670 <putchar>
1c000ee0:	2882b061 	ld.w	$r1,$r3,172(0xac)
1c000ee4:	2882a076 	ld.w	$r22,$r3,168(0xa8)
1c000ee8:	00150324 	move	$r4,$r25
1c000eec:	28829077 	ld.w	$r23,$r3,164(0xa4)
1c000ef0:	28828078 	ld.w	$r24,$r3,160(0xa0)
1c000ef4:	28827079 	ld.w	$r25,$r3,156(0x9c)
1c000ef8:	2882607a 	ld.w	$r26,$r3,152(0x98)
1c000efc:	2882507b 	ld.w	$r27,$r3,148(0x94)
1c000f00:	2882407c 	ld.w	$r28,$r3,144(0x90)
1c000f04:	2882307d 	ld.w	$r29,$r3,140(0x8c)
1c000f08:	2882207e 	ld.w	$r30,$r3,136(0x88)
1c000f0c:	2882107f 	ld.w	$r31,$r3,132(0x84)
1c000f10:	0282c063 	addi.w	$r3,$r3,176(0xb0)
1c000f14:	4c000020 	jirl	$r0,$r1,0
1c000f18:	0280f065 	addi.w	$r5,$r3,60(0x3c)
1c000f1c:	00150004 	move	$r4,$r0
1c000f20:	54038000 	bl	896(0x380) # 1c0012a0 <Proc_6>
1c000f24:	028006d2 	addi.w	$r18,$r22,1(0x1)
1c000f28:	288003e7 	ld.w	$r7,$r31,0
1c000f2c:	288013e5 	ld.w	$r5,$r31,4(0x4)
1c000f30:	288023e6 	ld.w	$r6,$r31,8(0x8)
1c000f34:	288033e4 	ld.w	$r4,$r31,12(0xc)
1c000f38:	288043f4 	ld.w	$r20,$r31,16(0x10)
1c000f3c:	288053f3 	ld.w	$r19,$r31,20(0x14)
1c000f40:	288063ef 	ld.w	$r15,$r31,24(0x18)
1c000f44:	2a4073ee 	ld.hu	$r14,$r31,28(0x1c)
1c000f48:	2a007bed 	ld.bu	$r13,$r31,30(0x1e)
1c000f4c:	29801072 	st.w	$r18,$r3,4(0x4)
1c000f50:	280002ec 	ld.b	$r12,$r23,0
1c000f54:	28001076 	ld.b	$r22,$r3,4(0x4)
1c000f58:	29818067 	st.w	$r7,$r3,96(0x60)
1c000f5c:	29819065 	st.w	$r5,$r3,100(0x64)
1c000f60:	2981a066 	st.w	$r6,$r3,104(0x68)
1c000f64:	2981b064 	st.w	$r4,$r3,108(0x6c)
1c000f68:	2981c074 	st.w	$r20,$r3,112(0x70)
1c000f6c:	2981d073 	st.w	$r19,$r3,116(0x74)
1c000f70:	2981e06f 	st.w	$r15,$r3,120(0x78)
1c000f74:	2941f06e 	st.h	$r14,$r3,124(0x7c)
1c000f78:	2901f86d 	st.b	$r13,$r3,126(0x7e)
1c000f7c:	29800379 	st.w	$r25,$r27,0
1c000f80:	00150338 	move	$r24,$r25
1c000f84:	67f92596 	bge	$r12,$r22,-1756(0x3f924) # 1c0008a8 <dhrystone+0x398>
1c000f88:	53f94bff 	b	-1720(0xffff948) # 1c0008d0 <dhrystone+0x3c0>
1c000f8c:	03400000 	andi	$r0,$r0,0x0
1c000f90:	288022c4 	ld.w	$r4,$r22,8(0x8)
1c000f94:	02801816 	addi.w	$r22,$r0,6(0x6)
1c000f98:	29803316 	st.w	$r22,$r24,12(0xc)
1c000f9c:	02802305 	addi.w	$r5,$r24,8(0x8)
1c000fa0:	54030000 	bl	768(0x300) # 1c0012a0 <Proc_6>
1c000fa4:	28800393 	ld.w	$r19,$r28,0
1c000fa8:	28803304 	ld.w	$r4,$r24,12(0xc)
1c000fac:	02803306 	addi.w	$r6,$r24,12(0xc)
1c000fb0:	28800272 	ld.w	$r18,$r19,0
1c000fb4:	02802805 	addi.w	$r5,$r0,10(0xa)
1c000fb8:	02810416 	addi.w	$r22,$r0,65(0x41)
1c000fbc:	29800312 	st.w	$r18,$r24,0
1c000fc0:	54034000 	bl	832(0x340) # 1c001300 <Proc_7>
1c000fc4:	280002f1 	ld.b	$r17,$r23,0
1c000fc8:	02810008 	addi.w	$r8,$r0,64(0x40)
1c000fcc:	02800c18 	addi.w	$r24,$r0,3(0x3)
1c000fd0:	1c000fff 	pcaddu12i	$r31,127(0x7f)
1c000fd4:	028783ff 	addi.w	$r31,$r31,480(0x1e0)
1c000fd8:	63f8d111 	blt	$r8,$r17,-1840(0x3f8d0) # 1c0008a8 <dhrystone+0x398>
1c000fdc:	02802409 	addi.w	$r9,$r0,9(0x9)
1c000fe0:	53f8fbff 	b	-1800(0xffff8f8) # 1c0008d8 <dhrystone+0x3c8>
1c000fe4:	1c000fe4 	pcaddu12i	$r4,127(0x7f)
1c000fe8:	02853084 	addi.w	$r4,$r4,332(0x14c)
1c000fec:	54076400 	bl	1892(0x764) # 1c001750 <puts>
1c000ff0:	02802804 	addi.w	$r4,$r0,10(0xa)
1c000ff4:	54067c00 	bl	1660(0x67c) # 1c001670 <putchar>
1c000ff8:	53f69bff 	b	-2408(0xffff698) # 1c000690 <dhrystone+0x180>
1c000ffc:	02800419 	addi.w	$r25,$r0,1(0x1)
1c001000:	53fdcfff 	b	-564(0xffffdcc) # 1c000dcc <dhrystone+0x8bc>
1c001004:	28803064 	ld.w	$r4,$r3,12(0xc)
1c001008:	1c000fe5 	pcaddu12i	$r5,127(0x7f)
1c00100c:	028620a5 	addi.w	$r5,$r5,392(0x188)
1c001010:	02800419 	addi.w	$r25,$r0,1(0x1)
1c001014:	54085c00 	bl	2140(0x85c) # 1c001870 <strcmp>
1c001018:	5bfdb480 	beq	$r4,$r0,-588(0x3fdb4) # 1c000dcc <dhrystone+0x8bc>
1c00101c:	53ffe3ff 	b	-32(0xfffffe0) # 1c000ffc <dhrystone+0xaec>
1c001020:	02800419 	addi.w	$r25,$r0,1(0x1)
1c001024:	53fd4bff 	b	-696(0xffffd48) # 1c000d6c <dhrystone+0x85c>
1c001028:	02800419 	addi.w	$r25,$r0,1(0x1)
1c00102c:	53fd0fff 	b	-756(0xffffd0c) # 1c000d38 <dhrystone+0x828>
1c001030:	288012d0 	ld.w	$r16,$r22,4(0x4)
1c001034:	02800419 	addi.w	$r25,$r0,1(0x1)
1c001038:	5bfd0200 	beq	$r16,$r0,-768(0x3fd00) # 1c000d38 <dhrystone+0x828>
1c00103c:	53ffefff 	b	-20(0xfffffec) # 1c001028 <dhrystone+0xb18>
1c001040:	02800419 	addi.w	$r25,$r0,1(0x1)
1c001044:	53fcbbff 	b	-840(0xffffcb8) # 1c000cfc <dhrystone+0x7ec>
1c001048:	02818061 	addi.w	$r1,$r3,96(0x60)
1c00104c:	02810064 	addi.w	$r4,$r3,64(0x40)
1c001050:	1c000ffd 	pcaddu12i	$r29,127(0x7f)
1c001054:	289ce3bd 	ld.w	$r29,$r29,1848(0x738)
1c001058:	1c000ffe 	pcaddu12i	$r30,127(0x7f)
1c00105c:	289d13de 	ld.w	$r30,$r30,1860(0x744)
1c001060:	1c000ff7 	pcaddu12i	$r23,127(0x7f)
1c001064:	289cb2f7 	ld.w	$r23,$r23,1836(0x72c)
1c001068:	29803061 	st.w	$r1,$r3,12(0xc)
1c00106c:	29802064 	st.w	$r4,$r3,8(0x8)
1c001070:	1c000ffb 	pcaddu12i	$r27,127(0x7f)
1c001074:	289c537b 	ld.w	$r27,$r27,1812(0x714)
1c001078:	53f8abff 	b	-1880(0xffff8a8) # 1c000920 <dhrystone+0x410>
1c00107c:	03400000 	andi	$r0,$r0,0x0

1c001080 <Proc_1>:
Proc_1():
1c001080:	02bfc063 	addi.w	$r3,$r3,-16(0xff0)
1c001084:	29800079 	st.w	$r25,$r3,0
1c001088:	1c000ff9 	pcaddu12i	$r25,127(0x7f)
1c00108c:	289c2339 	ld.w	$r25,$r25,1800(0x708)
1c001090:	2880032e 	ld.w	$r14,$r25,0
1c001094:	29801078 	st.w	$r24,$r3,4(0x4)
1c001098:	28800098 	ld.w	$r24,$r4,0
1c00109c:	29802077 	st.w	$r23,$r3,8(0x8)
1c0010a0:	29803061 	st.w	$r1,$r3,12(0xc)
1c0010a4:	00150097 	move	$r23,$r4
1c0010a8:	001501cc 	move	$r12,$r14
1c0010ac:	0015030d 	move	$r13,$r24
1c0010b0:	0280c1cf 	addi.w	$r15,$r14,48(0x30)
1c0010b4:	28800193 	ld.w	$r19,$r12,0
1c0010b8:	28801192 	ld.w	$r18,$r12,4(0x4)
1c0010bc:	28802191 	ld.w	$r17,$r12,8(0x8)
1c0010c0:	28803190 	ld.w	$r16,$r12,12(0xc)
1c0010c4:	028041ad 	addi.w	$r13,$r13,16(0x10)
1c0010c8:	0280418c 	addi.w	$r12,$r12,16(0x10)
1c0010cc:	29bfc1b3 	st.w	$r19,$r13,-16(0xff0)
1c0010d0:	29bfd1b2 	st.w	$r18,$r13,-12(0xff4)
1c0010d4:	29bfe1b1 	st.w	$r17,$r13,-8(0xff8)
1c0010d8:	29bff1b0 	st.w	$r16,$r13,-4(0xffc)
1c0010dc:	5fffd98f 	bne	$r12,$r15,-40(0x3ffd8) # 1c0010b4 <Proc_1+0x34>
1c0010e0:	288002e1 	ld.w	$r1,$r23,0
1c0010e4:	02801406 	addi.w	$r6,$r0,5(0x5)
1c0010e8:	298032e6 	st.w	$r6,$r23,12(0xc)
1c0010ec:	1c000fe5 	pcaddu12i	$r5,127(0x7f)
1c0010f0:	289a60a5 	ld.w	$r5,$r5,1688(0x698)
1c0010f4:	288000a5 	ld.w	$r5,$r5,0
1c0010f8:	29800301 	st.w	$r1,$r24,0
1c0010fc:	288001c7 	ld.w	$r7,$r14,0
1c001100:	29803306 	st.w	$r6,$r24,12(0xc)
1c001104:	02802804 	addi.w	$r4,$r0,10(0xa)
1c001108:	29800307 	st.w	$r7,$r24,0
1c00110c:	28800328 	ld.w	$r8,$r25,0
1c001110:	02803106 	addi.w	$r6,$r8,12(0xc)
1c001114:	5401ec00 	bl	492(0x1ec) # 1c001300 <Proc_7>
1c001118:	28801304 	ld.w	$r4,$r24,4(0x4)
1c00111c:	58005480 	beq	$r4,$r0,84(0x54) # 1c001170 <Proc_1+0xf0>
1c001120:	288002f9 	ld.w	$r25,$r23,0
1c001124:	001502ee 	move	$r14,$r23
1c001128:	0280c329 	addi.w	$r9,$r25,48(0x30)
1c00112c:	2880032a 	ld.w	$r10,$r25,0
1c001130:	2880132b 	ld.w	$r11,$r25,4(0x4)
1c001134:	28802334 	ld.w	$r20,$r25,8(0x8)
1c001138:	28803337 	ld.w	$r23,$r25,12(0xc)
1c00113c:	028041ce 	addi.w	$r14,$r14,16(0x10)
1c001140:	02804339 	addi.w	$r25,$r25,16(0x10)
1c001144:	29bfc1ca 	st.w	$r10,$r14,-16(0xff0)
1c001148:	29bfd1cb 	st.w	$r11,$r14,-12(0xff4)
1c00114c:	29bfe1d4 	st.w	$r20,$r14,-8(0xff8)
1c001150:	29bff1d7 	st.w	$r23,$r14,-4(0xffc)
1c001154:	5fffdb29 	bne	$r25,$r9,-40(0x3ffd8) # 1c00112c <Proc_1+0xac>
1c001158:	28803061 	ld.w	$r1,$r3,12(0xc)
1c00115c:	28802077 	ld.w	$r23,$r3,8(0x8)
1c001160:	28801078 	ld.w	$r24,$r3,4(0x4)
1c001164:	28800079 	ld.w	$r25,$r3,0
1c001168:	02804063 	addi.w	$r3,$r3,16(0x10)
1c00116c:	4c000020 	jirl	$r0,$r1,0
1c001170:	288022e4 	ld.w	$r4,$r23,8(0x8)
1c001174:	0280180f 	addi.w	$r15,$r0,6(0x6)
1c001178:	02802305 	addi.w	$r5,$r24,8(0x8)
1c00117c:	2980330f 	st.w	$r15,$r24,12(0xc)
1c001180:	54012000 	bl	288(0x120) # 1c0012a0 <Proc_6>
1c001184:	28800333 	ld.w	$r19,$r25,0
1c001188:	28803304 	ld.w	$r4,$r24,12(0xc)
1c00118c:	28803061 	ld.w	$r1,$r3,12(0xc)
1c001190:	28800272 	ld.w	$r18,$r19,0
1c001194:	28802077 	ld.w	$r23,$r3,8(0x8)
1c001198:	28800079 	ld.w	$r25,$r3,0
1c00119c:	29800312 	st.w	$r18,$r24,0
1c0011a0:	02803306 	addi.w	$r6,$r24,12(0xc)
1c0011a4:	28801078 	ld.w	$r24,$r3,4(0x4)
1c0011a8:	02802805 	addi.w	$r5,$r0,10(0xa)
1c0011ac:	02804063 	addi.w	$r3,$r3,16(0x10)
1c0011b0:	50015000 	b	336(0x150) # 1c001300 <Proc_7>
1c0011b4:	03400000 	andi	$r0,$r0,0x0
1c0011b8:	03400000 	andi	$r0,$r0,0x0
1c0011bc:	03400000 	andi	$r0,$r0,0x0

1c0011c0 <Proc_2>:
Proc_2():
1c0011c0:	1c000fed 	pcaddu12i	$r13,127(0x7f)
1c0011c4:	289721ad 	ld.w	$r13,$r13,1480(0x5c8)
1c0011c8:	280001a5 	ld.b	$r5,$r13,0
1c0011cc:	0281040c 	addi.w	$r12,$r0,65(0x41)
1c0011d0:	580008ac 	beq	$r5,$r12,8(0x8) # 1c0011d8 <Proc_2+0x18>
1c0011d4:	4c000020 	jirl	$r0,$r1,0
1c0011d8:	28800086 	ld.w	$r6,$r4,0
1c0011dc:	1c000fe7 	pcaddu12i	$r7,127(0x7f)
1c0011e0:	2896a0e7 	ld.w	$r7,$r7,1448(0x5a8)
1c0011e4:	288000e8 	ld.w	$r8,$r7,0
1c0011e8:	028024c9 	addi.w	$r9,$r6,9(0x9)
1c0011ec:	0011212a 	sub.w	$r10,$r9,$r8
1c0011f0:	2980008a 	st.w	$r10,$r4,0
1c0011f4:	4c000020 	jirl	$r0,$r1,0
1c0011f8:	03400000 	andi	$r0,$r0,0x0
1c0011fc:	03400000 	andi	$r0,$r0,0x0

1c001200 <Proc_3>:
Proc_3():
1c001200:	1c000fec 	pcaddu12i	$r12,127(0x7f)
1c001204:	2896418c 	ld.w	$r12,$r12,1424(0x590)
1c001208:	28800186 	ld.w	$r6,$r12,0
1c00120c:	580010c0 	beq	$r6,$r0,16(0x10) # 1c00121c <Proc_3+0x1c>
1c001210:	288000cd 	ld.w	$r13,$r6,0
1c001214:	2980008d 	st.w	$r13,$r4,0
1c001218:	28800186 	ld.w	$r6,$r12,0
1c00121c:	1c000fe5 	pcaddu12i	$r5,127(0x7f)
1c001220:	2895a0a5 	ld.w	$r5,$r5,1384(0x568)
1c001224:	288000a5 	ld.w	$r5,$r5,0
1c001228:	028030c6 	addi.w	$r6,$r6,12(0xc)
1c00122c:	02802804 	addi.w	$r4,$r0,10(0xa)
1c001230:	5000d000 	b	208(0xd0) # 1c001300 <Proc_7>
1c001234:	03400000 	andi	$r0,$r0,0x0
1c001238:	03400000 	andi	$r0,$r0,0x0
1c00123c:	03400000 	andi	$r0,$r0,0x0

1c001240 <Proc_4>:
Proc_4():
1c001240:	1c000fec 	pcaddu12i	$r12,127(0x7f)
1c001244:	2895218c 	ld.w	$r12,$r12,1352(0x548)
1c001248:	28000185 	ld.b	$r5,$r12,0
1c00124c:	1c000fed 	pcaddu12i	$r13,127(0x7f)
1c001250:	289541ad 	ld.w	$r13,$r13,1360(0x550)
1c001254:	288001ae 	ld.w	$r14,$r13,0
1c001258:	03c104a6 	xori	$r6,$r5,0x41
1c00125c:	024004c7 	sltui	$r7,$r6,1(0x1)
1c001260:	1c000fef 	pcaddu12i	$r15,127(0x7f)
1c001264:	2894b1ef 	ld.w	$r15,$r15,1324(0x52c)
1c001268:	02810810 	addi.w	$r16,$r0,66(0x42)
1c00126c:	001538e8 	or	$r8,$r7,$r14
1c001270:	290001f0 	st.b	$r16,$r15,0
1c001274:	298001a8 	st.w	$r8,$r13,0
1c001278:	4c000020 	jirl	$r0,$r1,0
1c00127c:	03400000 	andi	$r0,$r0,0x0

1c001280 <Proc_5>:
Proc_5():
1c001280:	1c000fed 	pcaddu12i	$r13,127(0x7f)
1c001284:	289421ad 	ld.w	$r13,$r13,1288(0x508)
1c001288:	0281040e 	addi.w	$r14,$r0,65(0x41)
1c00128c:	1c000fec 	pcaddu12i	$r12,127(0x7f)
1c001290:	2894418c 	ld.w	$r12,$r12,1296(0x510)
1c001294:	290001ae 	st.b	$r14,$r13,0
1c001298:	29800180 	st.w	$r0,$r12,0
1c00129c:	4c000020 	jirl	$r0,$r1,0

1c0012a0 <Proc_6>:
Proc_6():
1c0012a0:	0280080c 	addi.w	$r12,$r0,2(0x2)
1c0012a4:	58002c8c 	beq	$r4,$r12,44(0x2c) # 1c0012d0 <Proc_6+0x30>
1c0012a8:	0280040d 	addi.w	$r13,$r0,1(0x1)
1c0012ac:	02800c0e 	addi.w	$r14,$r0,3(0x3)
1c0012b0:	5800308d 	beq	$r4,$r13,48(0x30) # 1c0012e0 <Proc_6+0x40>
1c0012b4:	58004080 	beq	$r4,$r0,64(0x40) # 1c0012f4 <Proc_6+0x54>
1c0012b8:	02801009 	addi.w	$r9,$r0,4(0x4)
1c0012bc:	58000c89 	beq	$r4,$r9,12(0xc) # 1c0012c8 <Proc_6+0x28>
1c0012c0:	298000ae 	st.w	$r14,$r5,0
1c0012c4:	4c000020 	jirl	$r0,$r1,0
1c0012c8:	298000ac 	st.w	$r12,$r5,0
1c0012cc:	4c000020 	jirl	$r0,$r1,0
1c0012d0:	0280040a 	addi.w	$r10,$r0,1(0x1)
1c0012d4:	298000aa 	st.w	$r10,$r5,0
1c0012d8:	4c000020 	jirl	$r0,$r1,0
1c0012dc:	03400000 	andi	$r0,$r0,0x0
1c0012e0:	1c000fe6 	pcaddu12i	$r6,127(0x7f)
1c0012e4:	289290c6 	ld.w	$r6,$r6,1188(0x4a4)
1c0012e8:	288000c8 	ld.w	$r8,$r6,0
1c0012ec:	02819007 	addi.w	$r7,$r0,100(0x64)
1c0012f0:	67ffd0e8 	bge	$r7,$r8,-48(0x3ffd0) # 1c0012c0 <Proc_6+0x20>
1c0012f4:	298000a0 	st.w	$r0,$r5,0
1c0012f8:	4c000020 	jirl	$r0,$r1,0
1c0012fc:	03400000 	andi	$r0,$r0,0x0

1c001300 <Proc_7>:
Proc_7():
1c001300:	0280088c 	addi.w	$r12,$r4,2(0x2)
1c001304:	00101585 	add.w	$r5,$r12,$r5
1c001308:	001501a4 	move	$r4,$r13
1c00130c:	298000c5 	st.w	$r5,$r6,0
1c001310:	4c000020 	jirl	$r0,$r1,0
1c001314:	03400000 	andi	$r0,$r0,0x0
1c001318:	03400000 	andi	$r0,$r0,0x0
1c00131c:	03400000 	andi	$r0,$r0,0x0

1c001320 <Proc_8>:
Proc_8():
1c001320:	028014ce 	addi.w	$r14,$r6,5(0x5)
1c001324:	0283200c 	addi.w	$r12,$r0,200(0xc8)
1c001328:	001c31c8 	mul.w	$r8,$r14,$r12
1c00132c:	004088c6 	slli.w	$r6,$r6,0x2
1c001330:	004089cd 	slli.w	$r13,$r14,0x2
1c001334:	00103489 	add.w	$r9,$r4,$r13
1c001338:	001501e4 	move	$r4,$r15
1c00133c:	29800127 	st.w	$r7,$r9,0
1c001340:	29801127 	st.w	$r7,$r9,4(0x4)
1c001344:	2981e12e 	st.w	$r14,$r9,120(0x78)
1c001348:	03bed014 	ori	$r20,$r0,0xfb4
1c00134c:	1c000ff0 	pcaddu12i	$r16,127(0x7f)
1c001350:	2890e210 	ld.w	$r16,$r16,1080(0x438)
1c001354:	02801411 	addi.w	$r17,$r0,5(0x5)
1c001358:	0010190f 	add.w	$r15,$r8,$r6
1c00135c:	001020a7 	add.w	$r7,$r5,$r8
1c001360:	00103ca5 	add.w	$r5,$r5,$r15
1c001364:	288040ab 	ld.w	$r11,$r5,16(0x10)
1c001368:	298050ae 	st.w	$r14,$r5,20(0x14)
1c00136c:	298060ae 	st.w	$r14,$r5,24(0x18)
1c001370:	001018ea 	add.w	$r10,$r7,$r6
1c001374:	02800572 	addi.w	$r18,$r11,1(0x1)
1c001378:	298040b2 	st.w	$r18,$r5,16(0x10)
1c00137c:	28800133 	ld.w	$r19,$r9,0
1c001380:	00102a8c 	add.w	$r12,$r20,$r10
1c001384:	29800211 	st.w	$r17,$r16,0
1c001388:	29800193 	st.w	$r19,$r12,0
1c00138c:	4c000020 	jirl	$r0,$r1,0

1c001390 <Func_1>:
Func_1():
1c001390:	02bfc063 	addi.w	$r3,$r3,-16(0xff0)
1c001394:	29003c64 	st.b	$r4,$r3,15(0xf)
1c001398:	28003c6c 	ld.b	$r12,$r3,15(0xf)
1c00139c:	29003c65 	st.b	$r5,$r3,15(0xf)
1c0013a0:	28003c65 	ld.b	$r5,$r3,15(0xf)
1c0013a4:	00150004 	move	$r4,$r0
1c0013a8:	5c001585 	bne	$r12,$r5,20(0x14) # 1c0013bc <Func_1+0x2c>
1c0013ac:	1c000fed 	pcaddu12i	$r13,127(0x7f)
1c0013b0:	288f71ad 	ld.w	$r13,$r13,988(0x3dc)
1c0013b4:	02800404 	addi.w	$r4,$r0,1(0x1)
1c0013b8:	290001ac 	st.b	$r12,$r13,0
1c0013bc:	02804063 	addi.w	$r3,$r3,16(0x10)
1c0013c0:	4c000020 	jirl	$r0,$r1,0
1c0013c4:	03400000 	andi	$r0,$r0,0x0
1c0013c8:	03400000 	andi	$r0,$r0,0x0
1c0013cc:	03400000 	andi	$r0,$r0,0x0

1c0013d0 <Func_2>:
Func_2():
1c0013d0:	2800088d 	ld.b	$r13,$r4,2(0x2)
1c0013d4:	28000cac 	ld.b	$r12,$r5,3(0x3)
1c0013d8:	58003dac 	beq	$r13,$r12,60(0x3c) # 1c001414 <Func_2+0x44>
1c0013dc:	02bfc063 	addi.w	$r3,$r3,-16(0xff0)
1c0013e0:	29803061 	st.w	$r1,$r3,12(0xc)
1c0013e4:	54048c00 	bl	1164(0x48c) # 1c001870 <strcmp>
1c0013e8:	00150005 	move	$r5,$r0
1c0013ec:	64001804 	bge	$r0,$r4,24(0x18) # 1c001404 <Func_2+0x34>
1c0013f0:	1c000fe1 	pcaddu12i	$r1,127(0x7f)
1c0013f4:	288e5021 	ld.w	$r1,$r1,916(0x394)
1c0013f8:	0280280e 	addi.w	$r14,$r0,10(0xa)
1c0013fc:	02800405 	addi.w	$r5,$r0,1(0x1)
1c001400:	2980002e 	st.w	$r14,$r1,0
1c001404:	28803061 	ld.w	$r1,$r3,12(0xc)
1c001408:	001500a4 	move	$r4,$r5
1c00140c:	02804063 	addi.w	$r3,$r3,16(0x10)
1c001410:	4c000020 	jirl	$r0,$r1,0
1c001414:	50000000 	b	0 # 1c001414 <Func_2+0x44>
1c001418:	03400000 	andi	$r0,$r0,0x0
1c00141c:	03400000 	andi	$r0,$r0,0x0

1c001420 <Func_3>:
Func_3():
1c001420:	03c00884 	xori	$r4,$r4,0x2
1c001424:	02400484 	sltui	$r4,$r4,1(0x1)
1c001428:	4c000020 	jirl	$r0,$r1,0
1c00142c:	03400000 	andi	$r0,$r0,0x0

1c001430 <printf>:
printf():
/home/132/git_rep/perf/soft/perf_func/lib/printf.c:2
int printf(const char *fmt,...)
{
1c001430:	02be8063 	addi.w	$r3,$r3,-96(0xfa0)
1c001434:	2980b07a 	st.w	$r26,$r3,44(0x2c)
1c001438:	2980f061 	st.w	$r1,$r3,60(0x3c)
1c00143c:	2980e077 	st.w	$r23,$r3,56(0x38)
1c001440:	2980d078 	st.w	$r24,$r3,52(0x34)
1c001444:	2980c079 	st.w	$r25,$r3,48(0x30)
1c001448:	2980a07b 	st.w	$r27,$r3,40(0x28)
1c00144c:	2980907c 	st.w	$r28,$r3,36(0x24)
1c001450:	29811065 	st.w	$r5,$r3,68(0x44)
1c001454:	29812066 	st.w	$r6,$r3,72(0x48)
/home/132/git_rep/perf/soft/perf_func/lib/printf.c:10
void **arg;
void *ap;
int w;
__builtin_va_start(ap,fmt);
arg=ap;
for(i=0;fmt[i];i++)
1c001458:	28000097 	ld.b	$r23,$r4,0
/home/132/git_rep/perf/soft/perf_func/lib/printf.c:8
__builtin_va_start(ap,fmt);
1c00145c:	0281107a 	addi.w	$r26,$r3,68(0x44)
/home/132/git_rep/perf/soft/perf_func/lib/printf.c:2
{
1c001460:	29813067 	st.w	$r7,$r3,76(0x4c)
1c001464:	29814068 	st.w	$r8,$r3,80(0x50)
1c001468:	29815069 	st.w	$r9,$r3,84(0x54)
1c00146c:	2981606a 	st.w	$r10,$r3,88(0x58)
1c001470:	2981706b 	st.w	$r11,$r3,92(0x5c)
/home/132/git_rep/perf/soft/perf_func/lib/printf.c:8
__builtin_va_start(ap,fmt);
1c001474:	2980707a 	st.w	$r26,$r3,28(0x1c)
/home/132/git_rep/perf/soft/perf_func/lib/printf.c:10
for(i=0;fmt[i];i++)
1c001478:	58008ae0 	beq	$r23,$r0,136(0x88) # 1c001500 <printf+0xd0>
1c00147c:	00150099 	move	$r25,$r4
1c001480:	00150018 	move	$r24,$r0
1c001484:	1c000ffc 	pcaddu12i	$r28,127(0x7f)
1c001488:	0286339c 	addi.w	$r28,$r28,396(0x18c)
1c00148c:	0280201b 	addi.w	$r27,$r0,8(0x8)
1c001490:	50001c00 	b	28(0x1c) # 1c0014ac <printf+0x7c>
/home/132/git_rep/perf/soft/perf_func/lib/printf.c:80
		}

	}
	else{
		if(c=='\n') putchar('\r');
		putchar(c);
1c001494:	001502e4 	move	$r4,$r23
1c001498:	5401d800 	bl	472(0x1d8) # 1c001670 <putchar>
/home/132/git_rep/perf/soft/perf_func/lib/printf.c:10 (discriminator 2)
for(i=0;fmt[i];i++)
1c00149c:	02800718 	addi.w	$r24,$r24,1(0x1)
1c0014a0:	0010632c 	add.w	$r12,$r25,$r24
1c0014a4:	28000197 	ld.b	$r23,$r12,0
1c0014a8:	58005ae0 	beq	$r23,$r0,88(0x58) # 1c001500 <printf+0xd0>
/home/132/git_rep/perf/soft/perf_func/lib/printf.c:13
	if(c=='%')
1c0014ac:	0280940c 	addi.w	$r12,$r0,37(0x25)
1c0014b0:	58001aec 	beq	$r23,$r12,24(0x18) # 1c0014c8 <printf+0x98>
/home/132/git_rep/perf/soft/perf_func/lib/printf.c:79
		if(c=='\n') putchar('\r');
1c0014b4:	0280280c 	addi.w	$r12,$r0,10(0xa)
1c0014b8:	5fffdeec 	bne	$r23,$r12,-36(0x3ffdc) # 1c001494 <printf+0x64>
/home/132/git_rep/perf/soft/perf_func/lib/printf.c:79 (discriminator 1)
1c0014bc:	02803404 	addi.w	$r4,$r0,13(0xd)
1c0014c0:	5401b000 	bl	432(0x1b0) # 1c001670 <putchar>
1c0014c4:	53ffd3ff 	b	-48(0xfffffd0) # 1c001494 <printf+0x64>
1c0014c8:	0010632c 	add.w	$r12,$r25,$r24
1c0014cc:	2800058d 	ld.b	$r13,$r12,1(0x1)
/home/132/git_rep/perf/soft/perf_func/lib/printf.c:15
		w=1;
1c0014d0:	02800405 	addi.w	$r5,$r0,1(0x1)
/home/132/git_rep/perf/soft/perf_func/lib/printf.c:17
		switch(fmt[i+1])
1c0014d4:	02814c10 	addi.w	$r16,$r0,83(0x53)
/home/132/git_rep/perf/soft/perf_func/lib/printf.c:68
				 w=w*10+(fmt[i+1]-'0');
1c0014d8:	0280280f 	addi.w	$r15,$r0,10(0xa)
/home/132/git_rep/perf/soft/perf_func/lib/printf.c:17
		switch(fmt[i+1])
1c0014dc:	02bf6dac 	addi.w	$r12,$r13,-37(0xfdb)
1c0014e0:	2980306c 	st.w	$r12,$r3,12(0xc)
1c0014e4:	2a00306c 	ld.bu	$r12,$r3,12(0xc)
1c0014e8:	68017a0c 	bltu	$r16,$r12,376(0x178) # 1c001660 <printf+0x230>
1c0014ec:	0040898c 	slli.w	$r12,$r12,0x2
1c0014f0:	0010338c 	add.w	$r12,$r28,$r12
1c0014f4:	2880018c 	ld.w	$r12,$r12,0
1c0014f8:	4c000180 	jirl	$r0,$r12,0
1c0014fc:	03400000 	andi	$r0,$r0,0x0
/home/132/git_rep/perf/soft/perf_func/lib/printf.c:84
	}
}
	return 0;
}
1c001500:	2880f061 	ld.w	$r1,$r3,60(0x3c)
1c001504:	2880e077 	ld.w	$r23,$r3,56(0x38)
1c001508:	2880d078 	ld.w	$r24,$r3,52(0x34)
1c00150c:	2880c079 	ld.w	$r25,$r3,48(0x30)
1c001510:	2880b07a 	ld.w	$r26,$r3,44(0x2c)
1c001514:	2880a07b 	ld.w	$r27,$r3,40(0x28)
1c001518:	2880907c 	ld.w	$r28,$r3,36(0x24)
1c00151c:	00150004 	move	$r4,$r0
1c001520:	02818063 	addi.w	$r3,$r3,96(0x60)
1c001524:	4c000020 	jirl	$r0,$r1,0
/home/132/git_rep/perf/soft/perf_func/lib/printf.c:65
				i++;
1c001528:	0010632c 	add.w	$r12,$r25,$r24
1c00152c:	2800098d 	ld.b	$r13,$r12,2(0x2)
1c001530:	02800718 	addi.w	$r24,$r24,1(0x1)
/home/132/git_rep/perf/soft/perf_func/lib/printf.c:67 (discriminator 1)
				for(w=0;fmt[i+1]>'0' && fmt[i+1]<='9';i++)
1c001534:	02bf3dac 	addi.w	$r12,$r13,-49(0xfcf)
1c001538:	2980306c 	st.w	$r12,$r3,12(0xc)
1c00153c:	2a00306c 	ld.bu	$r12,$r3,12(0xc)
1c001540:	00150005 	move	$r5,$r0
1c001544:	6bff9b6c 	bltu	$r27,$r12,-104(0x3ff98) # 1c0014dc <printf+0xac>
/home/132/git_rep/perf/soft/perf_func/lib/printf.c:68 (discriminator 3)
				 w=w*10+(fmt[i+1]-'0');
1c001548:	001c3ca5 	mul.w	$r5,$r5,$r15
/home/132/git_rep/perf/soft/perf_func/lib/printf.c:67 (discriminator 3)
				for(w=0;fmt[i+1]>'0' && fmt[i+1]<='9';i++)
1c00154c:	02800718 	addi.w	$r24,$r24,1(0x1)
1c001550:	0010632c 	add.w	$r12,$r25,$r24
/home/132/git_rep/perf/soft/perf_func/lib/printf.c:68 (discriminator 3)
				 w=w*10+(fmt[i+1]-'0');
1c001554:	02bf41ae 	addi.w	$r14,$r13,-48(0xfd0)
/home/132/git_rep/perf/soft/perf_func/lib/printf.c:67 (discriminator 3)
				for(w=0;fmt[i+1]>'0' && fmt[i+1]<='9';i++)
1c001558:	2800058d 	ld.b	$r13,$r12,1(0x1)
1c00155c:	02bf3dac 	addi.w	$r12,$r13,-49(0xfcf)
1c001560:	2980306c 	st.w	$r12,$r3,12(0xc)
1c001564:	2a00306c 	ld.bu	$r12,$r3,12(0xc)
/home/132/git_rep/perf/soft/perf_func/lib/printf.c:68 (discriminator 3)
				 w=w*10+(fmt[i+1]-'0');
1c001568:	001015c5 	add.w	$r5,$r14,$r5
/home/132/git_rep/perf/soft/perf_func/lib/printf.c:67 (discriminator 3)
				for(w=0;fmt[i+1]>'0' && fmt[i+1]<='9';i++)
1c00156c:	6fffdf6c 	bgeu	$r27,$r12,-36(0x3ffdc) # 1c001548 <printf+0x118>
1c001570:	53ff6fff 	b	-148(0xfffff6c) # 1c0014dc <printf+0xac>
/home/132/git_rep/perf/soft/perf_func/lib/printf.c:50
				printbase((long)*arg,w,2,0);
1c001574:	28800344 	ld.w	$r4,$r26,0
1c001578:	00150007 	move	$r7,$r0
1c00157c:	02800806 	addi.w	$r6,$r0,2(0x2)
/home/132/git_rep/perf/soft/perf_func/lib/printf.c:51
				arg++;
1c001580:	0280135a 	addi.w	$r26,$r26,4(0x4)
/home/132/git_rep/perf/soft/perf_func/lib/printf.c:52
				i++;
1c001584:	02800718 	addi.w	$r24,$r24,1(0x1)
/home/132/git_rep/perf/soft/perf_func/lib/printf.c:50
				printbase((long)*arg,w,2,0);
1c001588:	5401f800 	bl	504(0x1f8) # 1c001780 <printbase>
/home/132/git_rep/perf/soft/perf_func/lib/printf.c:53
				break;
1c00158c:	53ff13ff 	b	-240(0xfffff10) # 1c00149c <printf+0x6c>
/home/132/git_rep/perf/soft/perf_func/lib/printf.c:25
				putchar((long)*arg);
1c001590:	28800344 	ld.w	$r4,$r26,0
/home/132/git_rep/perf/soft/perf_func/lib/printf.c:27
				i++;
1c001594:	02800718 	addi.w	$r24,$r24,1(0x1)
/home/132/git_rep/perf/soft/perf_func/lib/printf.c:26
				arg++;
1c001598:	0280135a 	addi.w	$r26,$r26,4(0x4)
/home/132/git_rep/perf/soft/perf_func/lib/printf.c:25
				putchar((long)*arg);
1c00159c:	5400d400 	bl	212(0xd4) # 1c001670 <putchar>
/home/132/git_rep/perf/soft/perf_func/lib/printf.c:28
				break;
1c0015a0:	53feffff 	b	-260(0xffffefc) # 1c00149c <printf+0x6c>
/home/132/git_rep/perf/soft/perf_func/lib/printf.c:35
				printbase((long)*arg,w,10,1);
1c0015a4:	28800344 	ld.w	$r4,$r26,0
1c0015a8:	02800407 	addi.w	$r7,$r0,1(0x1)
1c0015ac:	02802806 	addi.w	$r6,$r0,10(0xa)
/home/132/git_rep/perf/soft/perf_func/lib/printf.c:36
				arg++;
1c0015b0:	0280135a 	addi.w	$r26,$r26,4(0x4)
/home/132/git_rep/perf/soft/perf_func/lib/printf.c:37
				i++;
1c0015b4:	02800718 	addi.w	$r24,$r24,1(0x1)
/home/132/git_rep/perf/soft/perf_func/lib/printf.c:35
				printbase((long)*arg,w,10,1);
1c0015b8:	5401c800 	bl	456(0x1c8) # 1c001780 <printbase>
/home/132/git_rep/perf/soft/perf_func/lib/printf.c:38
				break;
1c0015bc:	53fee3ff 	b	-288(0xffffee0) # 1c00149c <printf+0x6c>
/home/132/git_rep/perf/soft/perf_func/lib/printf.c:40
                printbase((long)*arg,w,10,0);
1c0015c0:	28800344 	ld.w	$r4,$r26,0
1c0015c4:	00150007 	move	$r7,$r0
1c0015c8:	02802806 	addi.w	$r6,$r0,10(0xa)
/home/132/git_rep/perf/soft/perf_func/lib/printf.c:41
                arg++;
1c0015cc:	0280135a 	addi.w	$r26,$r26,4(0x4)
/home/132/git_rep/perf/soft/perf_func/lib/printf.c:42
                i=i+2;
1c0015d0:	02800b18 	addi.w	$r24,$r24,2(0x2)
/home/132/git_rep/perf/soft/perf_func/lib/printf.c:40
                printbase((long)*arg,w,10,0);
1c0015d4:	5401ac00 	bl	428(0x1ac) # 1c001780 <printbase>
/home/132/git_rep/perf/soft/perf_func/lib/printf.c:43
                break;
1c0015d8:	53fec7ff 	b	-316(0xffffec4) # 1c00149c <printf+0x6c>
1c0015dc:	03400000 	andi	$r0,$r0,0x0
/home/132/git_rep/perf/soft/perf_func/lib/printf.c:45
				printbase((long)*arg,w,8,0);
1c0015e0:	28800344 	ld.w	$r4,$r26,0
1c0015e4:	00150007 	move	$r7,$r0
1c0015e8:	02802006 	addi.w	$r6,$r0,8(0x8)
/home/132/git_rep/perf/soft/perf_func/lib/printf.c:46
				arg++;
1c0015ec:	0280135a 	addi.w	$r26,$r26,4(0x4)
/home/132/git_rep/perf/soft/perf_func/lib/printf.c:47
				i++;
1c0015f0:	02800718 	addi.w	$r24,$r24,1(0x1)
/home/132/git_rep/perf/soft/perf_func/lib/printf.c:45
				printbase((long)*arg,w,8,0);
1c0015f4:	54018c00 	bl	396(0x18c) # 1c001780 <printbase>
/home/132/git_rep/perf/soft/perf_func/lib/printf.c:48
				break;
1c0015f8:	53fea7ff 	b	-348(0xffffea4) # 1c00149c <printf+0x6c>
1c0015fc:	03400000 	andi	$r0,$r0,0x0
/home/132/git_rep/perf/soft/perf_func/lib/printf.c:56
				printbase((long)*arg,w,16,0);
1c001600:	28800344 	ld.w	$r4,$r26,0
1c001604:	00150007 	move	$r7,$r0
1c001608:	02804006 	addi.w	$r6,$r0,16(0x10)
/home/132/git_rep/perf/soft/perf_func/lib/printf.c:57
				arg++;
1c00160c:	0280135a 	addi.w	$r26,$r26,4(0x4)
/home/132/git_rep/perf/soft/perf_func/lib/printf.c:58
				i++;
1c001610:	02800718 	addi.w	$r24,$r24,1(0x1)
/home/132/git_rep/perf/soft/perf_func/lib/printf.c:56
				printbase((long)*arg,w,16,0);
1c001614:	54016c00 	bl	364(0x16c) # 1c001780 <printbase>
/home/132/git_rep/perf/soft/perf_func/lib/printf.c:59
				break;
1c001618:	53fe87ff 	b	-380(0xffffe84) # 1c00149c <printf+0x6c>
1c00161c:	03400000 	andi	$r0,$r0,0x0
/home/132/git_rep/perf/soft/perf_func/lib/printf.c:20
				putstring(*arg);
1c001620:	28800344 	ld.w	$r4,$r26,0
/home/132/git_rep/perf/soft/perf_func/lib/printf.c:22
				i++;
1c001624:	02800718 	addi.w	$r24,$r24,1(0x1)
/home/132/git_rep/perf/soft/perf_func/lib/printf.c:21
				arg++;
1c001628:	0280135a 	addi.w	$r26,$r26,4(0x4)
/home/132/git_rep/perf/soft/perf_func/lib/printf.c:20
				putstring(*arg);
1c00162c:	5400a400 	bl	164(0xa4) # 1c0016d0 <putstring>
/home/132/git_rep/perf/soft/perf_func/lib/printf.c:23
				break;
1c001630:	53fe6fff 	b	-404(0xffffe6c) # 1c00149c <printf+0x6c>
/home/132/git_rep/perf/soft/perf_func/lib/printf.c:30
				printbase((long)*arg,w,10,0);
1c001634:	28800344 	ld.w	$r4,$r26,0
1c001638:	00150007 	move	$r7,$r0
1c00163c:	02802806 	addi.w	$r6,$r0,10(0xa)
/home/132/git_rep/perf/soft/perf_func/lib/printf.c:31
				arg++;
1c001640:	0280135a 	addi.w	$r26,$r26,4(0x4)
/home/132/git_rep/perf/soft/perf_func/lib/printf.c:32
				i++;
1c001644:	02800718 	addi.w	$r24,$r24,1(0x1)
/home/132/git_rep/perf/soft/perf_func/lib/printf.c:30
				printbase((long)*arg,w,10,0);
1c001648:	54013800 	bl	312(0x138) # 1c001780 <printbase>
/home/132/git_rep/perf/soft/perf_func/lib/printf.c:33
				break;
1c00164c:	53fe53ff 	b	-432(0xffffe50) # 1c00149c <printf+0x6c>
/home/132/git_rep/perf/soft/perf_func/lib/printf.c:61
				putchar('%');
1c001650:	02809404 	addi.w	$r4,$r0,37(0x25)
/home/132/git_rep/perf/soft/perf_func/lib/printf.c:62
				i++;
1c001654:	02800718 	addi.w	$r24,$r24,1(0x1)
/home/132/git_rep/perf/soft/perf_func/lib/printf.c:61
				putchar('%');
1c001658:	54001800 	bl	24(0x18) # 1c001670 <putchar>
/home/132/git_rep/perf/soft/perf_func/lib/printf.c:63
				break;
1c00165c:	53fe43ff 	b	-448(0xffffe40) # 1c00149c <printf+0x6c>
/home/132/git_rep/perf/soft/perf_func/lib/printf.c:73
				putchar('%');
1c001660:	02809404 	addi.w	$r4,$r0,37(0x25)
1c001664:	54000c00 	bl	12(0xc) # 1c001670 <putchar>
/home/132/git_rep/perf/soft/perf_func/lib/printf.c:74
				break;
1c001668:	53fe37ff 	b	-460(0xffffe34) # 1c00149c <printf+0x6c>
1c00166c:	03400000 	andi	$r0,$r0,0x0

1c001670 <putchar>:
putchar():
/home/132/git_rep/perf/soft/perf_func/lib/putchar.c:2
int putchar(int c)
{
1c001670:	02bfc063 	addi.w	$r3,$r3,-16(0xff0)
1c001674:	29803079 	st.w	$r25,$r3,12(0xc)
/home/132/git_rep/perf/soft/perf_func/lib/putchar.c:9
return 0;
}

void tgt_putchar(c)
{   //UART_ADDR
    asm(
1c001678:	157f5ff9 	lu12i.w	$r25,-263425(0xbfaff)
1c00167c:	03bc4339 	ori	$r25,$r25,0xf10
1c001680:	29000324 	st.b	$r4,$r25,0
1c001684:	03400000 	andi	$r0,$r0,0x0
/home/132/git_rep/perf/soft/perf_func/lib/putchar.c:5
}
1c001688:	00150004 	move	$r4,$r0
1c00168c:	28803079 	ld.w	$r25,$r3,12(0xc)
1c001690:	02804063 	addi.w	$r3,$r3,16(0x10)
1c001694:	4c000020 	jirl	$r0,$r1,0
1c001698:	03400000 	andi	$r0,$r0,0x0
1c00169c:	03400000 	andi	$r0,$r0,0x0

1c0016a0 <tgt_putchar>:
tgt_putchar():
/home/132/git_rep/perf/soft/perf_func/lib/putchar.c:8
{   //UART_ADDR
1c0016a0:	02bfc063 	addi.w	$r3,$r3,-16(0xff0)
1c0016a4:	29803079 	st.w	$r25,$r3,12(0xc)
/home/132/git_rep/perf/soft/perf_func/lib/putchar.c:9
    asm(
1c0016a8:	157f5ff9 	lu12i.w	$r25,-263425(0xbfaff)
1c0016ac:	03bc4339 	ori	$r25,$r25,0xf10
1c0016b0:	29000324 	st.b	$r4,$r25,0
1c0016b4:	03400000 	andi	$r0,$r0,0x0
/home/132/git_rep/perf/soft/perf_func/lib/putchar.c:16
        "st.b %0,$r25,0\n\t"        
        "nop\n\t"
        :
        :"r"(c)
        :"$r25");
}
1c0016b8:	28803079 	ld.w	$r25,$r3,12(0xc)
1c0016bc:	02804063 	addi.w	$r3,$r3,16(0x10)
1c0016c0:	4c000020 	jirl	$r0,$r1,0
1c0016c4:	03400000 	andi	$r0,$r0,0x0
1c0016c8:	03400000 	andi	$r0,$r0,0x0
1c0016cc:	03400000 	andi	$r0,$r0,0x0

1c0016d0 <putstring>:
putstring():
/home/132/git_rep/perf/soft/perf_func/lib/puts.c:2
int putstring(char *s)
{
1c0016d0:	02bfc063 	addi.w	$r3,$r3,-16(0xff0)
1c0016d4:	29803061 	st.w	$r1,$r3,12(0xc)
1c0016d8:	29802077 	st.w	$r23,$r3,8(0x8)
1c0016dc:	29801078 	st.w	$r24,$r3,4(0x4)
1c0016e0:	29800079 	st.w	$r25,$r3,0
/home/132/git_rep/perf/soft/perf_func/lib/puts.c:4
char c;
while((c=*s))
1c0016e4:	28000097 	ld.b	$r23,$r4,0
1c0016e8:	580042e0 	beq	$r23,$r0,64(0x40) # 1c001728 <putstring+0x58>
1c0016ec:	00150098 	move	$r24,$r4
/home/132/git_rep/perf/soft/perf_func/lib/puts.c:6
{
 if(c == '\n') putchar('\r');
1c0016f0:	02802819 	addi.w	$r25,$r0,10(0xa)
1c0016f4:	50001400 	b	20(0x14) # 1c001708 <putstring+0x38>
/home/132/git_rep/perf/soft/perf_func/lib/puts.c:7
 putchar(c);
1c0016f8:	001502e4 	move	$r4,$r23
1c0016fc:	57ff77ff 	bl	-140(0xfffff74) # 1c001670 <putchar>
/home/132/git_rep/perf/soft/perf_func/lib/puts.c:4
while((c=*s))
1c001700:	28000317 	ld.b	$r23,$r24,0
1c001704:	580026e0 	beq	$r23,$r0,36(0x24) # 1c001728 <putstring+0x58>
/home/132/git_rep/perf/soft/perf_func/lib/puts.c:8
 s++;
1c001708:	02800718 	addi.w	$r24,$r24,1(0x1)
/home/132/git_rep/perf/soft/perf_func/lib/puts.c:6
 if(c == '\n') putchar('\r');
1c00170c:	5fffeef9 	bne	$r23,$r25,-20(0x3ffec) # 1c0016f8 <putstring+0x28>
/home/132/git_rep/perf/soft/perf_func/lib/puts.c:6 (discriminator 1)
1c001710:	02803404 	addi.w	$r4,$r0,13(0xd)
1c001714:	57ff5fff 	bl	-164(0xfffff5c) # 1c001670 <putchar>
/home/132/git_rep/perf/soft/perf_func/lib/puts.c:7 (discriminator 1)
 putchar(c);
1c001718:	001502e4 	move	$r4,$r23
1c00171c:	57ff57ff 	bl	-172(0xfffff54) # 1c001670 <putchar>
/home/132/git_rep/perf/soft/perf_func/lib/puts.c:4 (discriminator 1)
while((c=*s))
1c001720:	28000317 	ld.b	$r23,$r24,0
1c001724:	5fffe6e0 	bne	$r23,$r0,-28(0x3ffe4) # 1c001708 <putstring+0x38>
/home/132/git_rep/perf/soft/perf_func/lib/puts.c:11
}
return 0;
}
1c001728:	28803061 	ld.w	$r1,$r3,12(0xc)
1c00172c:	28802077 	ld.w	$r23,$r3,8(0x8)
1c001730:	28801078 	ld.w	$r24,$r3,4(0x4)
1c001734:	28800079 	ld.w	$r25,$r3,0
1c001738:	00150004 	move	$r4,$r0
1c00173c:	02804063 	addi.w	$r3,$r3,16(0x10)
1c001740:	4c000020 	jirl	$r0,$r1,0
1c001744:	03400000 	andi	$r0,$r0,0x0
1c001748:	03400000 	andi	$r0,$r0,0x0
1c00174c:	03400000 	andi	$r0,$r0,0x0

1c001750 <puts>:
puts():
/home/132/git_rep/perf/soft/perf_func/lib/puts.c:15


int puts(char *s)
{
1c001750:	02bfc063 	addi.w	$r3,$r3,-16(0xff0)
1c001754:	29803061 	st.w	$r1,$r3,12(0xc)
/home/132/git_rep/perf/soft/perf_func/lib/puts.c:16
putstring(s);
1c001758:	57ff7bff 	bl	-136(0xfffff78) # 1c0016d0 <putstring>
/home/132/git_rep/perf/soft/perf_func/lib/puts.c:17
putchar('\r');
1c00175c:	02803404 	addi.w	$r4,$r0,13(0xd)
1c001760:	57ff13ff 	bl	-240(0xfffff10) # 1c001670 <putchar>
/home/132/git_rep/perf/soft/perf_func/lib/puts.c:18
putchar('\n');
1c001764:	02802804 	addi.w	$r4,$r0,10(0xa)
1c001768:	57ff0bff 	bl	-248(0xfffff08) # 1c001670 <putchar>
/home/132/git_rep/perf/soft/perf_func/lib/puts.c:20
return 0;
}
1c00176c:	28803061 	ld.w	$r1,$r3,12(0xc)
1c001770:	00150004 	move	$r4,$r0
1c001774:	02804063 	addi.w	$r3,$r3,16(0x10)
1c001778:	4c000020 	jirl	$r0,$r1,0
1c00177c:	03400000 	andi	$r0,$r0,0x0

1c001780 <printbase>:
printbase():
/home/132/git_rep/perf/soft/perf_func/lib/printbase.c:2
int printbase(long v,int w,int base,int sign)
{
1c001780:	02be8063 	addi.w	$r3,$r3,-96(0xfa0)
1c001784:	29816077 	st.w	$r23,$r3,88(0x58)
1c001788:	29817061 	st.w	$r1,$r3,92(0x5c)
1c00178c:	29815078 	st.w	$r24,$r3,84(0x54)
1c001790:	29814079 	st.w	$r25,$r3,80(0x50)
1c001794:	00150097 	move	$r23,$r4
/home/132/git_rep/perf/soft/perf_func/lib/printbase.c:7
	int i,j;
	int c;
	char buf[64];
	unsigned long value;
	if(sign && v<0)
1c001798:	580008e0 	beq	$r7,$r0,8(0x8) # 1c0017a0 <printbase+0x20>
/home/132/git_rep/perf/soft/perf_func/lib/printbase.c:7 (discriminator 1)
1c00179c:	6000a480 	blt	$r4,$r0,164(0xa4) # 1c001840 <printbase+0xc0>
/home/132/git_rep/perf/soft/perf_func/lib/printbase.c:14
	value = -v;
	putchar('-');
	}
	else value=v;

	for(i=0;value;i++)
1c0017a0:	5800c2e0 	beq	$r23,$r0,192(0xc0) # 1c001860 <printbase+0xe0>
1c0017a4:	0280406c 	addi.w	$r12,$r3,16(0x10)
1c0017a8:	0280040e 	addi.w	$r14,$r0,1(0x1)
1c0017ac:	001131ce 	sub.w	$r14,$r14,$r12
1c0017b0:	50000800 	b	8(0x8) # 1c0017b8 <printbase+0x38>
/home/132/git_rep/perf/soft/perf_func/lib/printbase.c:17
	{
	buf[i]=value%base;
	value=value/base;
1c0017b4:	001501b7 	move	$r23,$r13
/home/132/git_rep/perf/soft/perf_func/lib/printbase.c:16 (discriminator 3)
	buf[i]=value%base;
1c0017b8:	00219aed 	mod.wu	$r13,$r23,$r6
1c0017bc:	5c0008c0 	bne	$r6,$r0,8(0x8) # 1c0017c4 <printbase+0x44>
1c0017c0:	002a0007 	break	0x7
1c0017c4:	2900018d 	st.b	$r13,$r12,0
/home/132/git_rep/perf/soft/perf_func/lib/printbase.c:17 (discriminator 3)
	value=value/base;
1c0017c8:	001031d8 	add.w	$r24,$r14,$r12
1c0017cc:	00211aed 	div.wu	$r13,$r23,$r6
1c0017d0:	5c0008c0 	bne	$r6,$r0,8(0x8) # 1c0017d8 <printbase+0x58>
1c0017d4:	002a0007 	break	0x7
1c0017d8:	0280058c 	addi.w	$r12,$r12,1(0x1)
/home/132/git_rep/perf/soft/perf_func/lib/printbase.c:14 (discriminator 3)
	for(i=0;value;i++)
1c0017dc:	6fffdae6 	bgeu	$r23,$r6,-40(0x3ffd8) # 1c0017b4 <printbase+0x34>
/home/132/git_rep/perf/soft/perf_func/lib/printbase.c:22
	}

#define max(a,b) (((a)>(b))?(a):(b))

	for(j=max(w,i);j>0;j--)
1c0017e0:	600058b8 	blt	$r5,$r24,88(0x58) # 1c001838 <printbase+0xb8>
1c0017e4:	001500b7 	move	$r23,$r5
/home/132/git_rep/perf/soft/perf_func/lib/printbase.c:25
	{
		c=j>i?0:buf[j-1];
		putchar((c<=9)?c+'0':c-0xa+'a');
1c0017e8:	02802419 	addi.w	$r25,$r0,9(0x9)
1c0017ec:	03400000 	andi	$r0,$r0,0x0
/home/132/git_rep/perf/soft/perf_func/lib/printbase.c:24
		c=j>i?0:buf[j-1];
1c0017f0:	0280406c 	addi.w	$r12,$r3,16(0x10)
1c0017f4:	00105d8c 	add.w	$r12,$r12,$r23
1c0017f8:	0280c004 	addi.w	$r4,$r0,48(0x30)
1c0017fc:	60001717 	blt	$r24,$r23,20(0x14) # 1c001810 <printbase+0x90>
/home/132/git_rep/perf/soft/perf_func/lib/printbase.c:24 (discriminator 1)
1c001800:	283ffd8c 	ld.b	$r12,$r12,-1(0xfff)
/home/132/git_rep/perf/soft/perf_func/lib/printbase.c:25 (discriminator 1)
		putchar((c<=9)?c+'0':c-0xa+'a');
1c001804:	02815d84 	addi.w	$r4,$r12,87(0x57)
1c001808:	60000b2c 	blt	$r25,$r12,8(0x8) # 1c001810 <printbase+0x90>
1c00180c:	0280c184 	addi.w	$r4,$r12,48(0x30)
1c001810:	02bffef7 	addi.w	$r23,$r23,-1(0xfff)
/home/132/git_rep/perf/soft/perf_func/lib/printbase.c:25 (discriminator 4)
1c001814:	57fe5fff 	bl	-420(0xffffe5c) # 1c001670 <putchar>
/home/132/git_rep/perf/soft/perf_func/lib/printbase.c:22 (discriminator 4)
	for(j=max(w,i);j>0;j--)
1c001818:	5fffdae0 	bne	$r23,$r0,-40(0x3ffd8) # 1c0017f0 <printbase+0x70>
/home/132/git_rep/perf/soft/perf_func/lib/printbase.c:28
	}
	return 0;
}
1c00181c:	28817061 	ld.w	$r1,$r3,92(0x5c)
1c001820:	28816077 	ld.w	$r23,$r3,88(0x58)
1c001824:	28815078 	ld.w	$r24,$r3,84(0x54)
1c001828:	28814079 	ld.w	$r25,$r3,80(0x50)
1c00182c:	00150004 	move	$r4,$r0
1c001830:	02818063 	addi.w	$r3,$r3,96(0x60)
1c001834:	4c000020 	jirl	$r0,$r1,0
/home/132/git_rep/perf/soft/perf_func/lib/printbase.c:22
	for(j=max(w,i);j>0;j--)
1c001838:	00150305 	move	$r5,$r24
1c00183c:	53ffabff 	b	-88(0xfffffa8) # 1c0017e4 <printbase+0x64>
/home/132/git_rep/perf/soft/perf_func/lib/printbase.c:10
	putchar('-');
1c001840:	0280b404 	addi.w	$r4,$r0,45(0x2d)
1c001844:	29803066 	st.w	$r6,$r3,12(0xc)
1c001848:	29802065 	st.w	$r5,$r3,8(0x8)
1c00184c:	57fe27ff 	bl	-476(0xffffe24) # 1c001670 <putchar>
/home/132/git_rep/perf/soft/perf_func/lib/printbase.c:9
	value = -v;
1c001850:	00115c17 	sub.w	$r23,$r0,$r23
/home/132/git_rep/perf/soft/perf_func/lib/printbase.c:10
	putchar('-');
1c001854:	28802065 	ld.w	$r5,$r3,8(0x8)
1c001858:	28803066 	ld.w	$r6,$r3,12(0xc)
1c00185c:	53ff4bff 	b	-184(0xfffff48) # 1c0017a4 <printbase+0x24>
/home/132/git_rep/perf/soft/perf_func/lib/printbase.c:22
	for(j=max(w,i);j>0;j--)
1c001860:	67ffbc05 	bge	$r0,$r5,-68(0x3ffbc) # 1c00181c <printbase+0x9c>
1c001864:	00150018 	move	$r24,$r0
1c001868:	53ff7fff 	b	-132(0xfffff7c) # 1c0017e4 <printbase+0x64>
1c00186c:	03400000 	andi	$r0,$r0,0x0

1c001870 <strcmp>:
strcmp():
/home/132/git_rep/perf/soft/perf_func/lib/strcmp.c:7
 * Compare strings.
 */
int
strcmp(const char *s1, const char *s2)
{
	while (*s1 == *s2++)
1c001870:	50000800 	b	8(0x8) # 1c001878 <strcmp+0x8>
/home/132/git_rep/perf/soft/perf_func/lib/strcmp.c:8
		if (*s1++ == 0)
1c001874:	58003d80 	beq	$r12,$r0,60(0x3c) # 1c0018b0 <strcmp+0x40>
/home/132/git_rep/perf/soft/perf_func/lib/strcmp.c:7
	while (*s1 == *s2++)
1c001878:	028004a5 	addi.w	$r5,$r5,1(0x1)
1c00187c:	2800008c 	ld.b	$r12,$r4,0
1c001880:	283ffcad 	ld.b	$r13,$r5,-1(0xfff)
/home/132/git_rep/perf/soft/perf_func/lib/strcmp.c:8
		if (*s1++ == 0)
1c001884:	02800484 	addi.w	$r4,$r4,1(0x1)
/home/132/git_rep/perf/soft/perf_func/lib/strcmp.c:7
	while (*s1 == *s2++)
1c001888:	5bffed8d 	beq	$r12,$r13,-20(0x3ffec) # 1c001874 <strcmp+0x4>
/home/132/git_rep/perf/soft/perf_func/lib/strcmp.c:6
{
1c00188c:	02bfc063 	addi.w	$r3,$r3,-16(0xff0)
/home/132/git_rep/perf/soft/perf_func/lib/strcmp.c:10
			return (0);
	return (*(const unsigned char *)s1 - *(const unsigned char *)--s2);
1c001890:	2980306c 	st.w	$r12,$r3,12(0xc)
1c001894:	2a00306c 	ld.bu	$r12,$r3,12(0xc)
1c001898:	2980306d 	st.w	$r13,$r3,12(0xc)
1c00189c:	2a003064 	ld.bu	$r4,$r3,12(0xc)
/home/132/git_rep/perf/soft/perf_func/lib/strcmp.c:11
}
1c0018a0:	02804063 	addi.w	$r3,$r3,16(0x10)
/home/132/git_rep/perf/soft/perf_func/lib/strcmp.c:10
	return (*(const unsigned char *)s1 - *(const unsigned char *)--s2);
1c0018a4:	00111184 	sub.w	$r4,$r12,$r4
/home/132/git_rep/perf/soft/perf_func/lib/strcmp.c:11
}
1c0018a8:	4c000020 	jirl	$r0,$r1,0
1c0018ac:	03400000 	andi	$r0,$r0,0x0
/home/132/git_rep/perf/soft/perf_func/lib/strcmp.c:9
			return (0);
1c0018b0:	00150004 	move	$r4,$r0
/home/132/git_rep/perf/soft/perf_func/lib/strcmp.c:11
}
1c0018b4:	4c000020 	jirl	$r0,$r1,0
1c0018b8:	03400000 	andi	$r0,$r0,0x0
1c0018bc:	03400000 	andi	$r0,$r0,0x0

1c0018c0 <get_count>:
get_count():
/home/132/git_rep/perf/soft/perf_func/lib/time.c:18
        );
    return  _contval;
}

unsigned long get_count()
{
1c0018c0:	02bfc063 	addi.w	$r3,$r3,-16(0xff0)
1c0018c4:	29803079 	st.w	$r25,$r3,12(0xc)
/home/132/git_rep/perf/soft/perf_func/lib/time.c:7
    asm volatile(
1c0018c8:	157f5fd9 	lu12i.w	$r25,-263426(0xbfafe)
1c0018cc:	28800324 	ld.w	$r4,$r25,0
/home/132/git_rep/perf/soft/perf_func/lib/time.c:20
    return  _get_count();
}
1c0018d0:	28803079 	ld.w	$r25,$r3,12(0xc)
1c0018d4:	02804063 	addi.w	$r3,$r3,16(0x10)
1c0018d8:	4c000020 	jirl	$r0,$r1,0
1c0018dc:	03400000 	andi	$r0,$r0,0x0

1c0018e0 <_get_count>:
_get_count():
/home/132/git_rep/perf/soft/perf_func/lib/time.c:20
1c0018e0:	53ffe3ff 	b	-32(0xfffffe0) # 1c0018c0 <get_count>
1c0018e4:	03400000 	andi	$r0,$r0,0x0
1c0018e8:	03400000 	andi	$r0,$r0,0x0
1c0018ec:	03400000 	andi	$r0,$r0,0x0

1c0018f0 <get_count_my>:
get_count_my():
/home/132/git_rep/perf/soft/perf_func/lib/time.c:25

unsigned long get_count_my()
{
    unsigned long n;
    asm volatile(
1c0018f0:	00006004 	rdtimel.w	$r4,$r0
/home/132/git_rep/perf/soft/perf_func/lib/time.c:30
        "rdcntvl.w %0\n\t"
        :"=r"(n)
        );
    return  n;
}
1c0018f4:	4c000020 	jirl	$r0,$r1,0
1c0018f8:	03400000 	andi	$r0,$r0,0x0
1c0018fc:	03400000 	andi	$r0,$r0,0x0

1c001900 <clock_gettime>:
clock_gettime():
/home/132/git_rep/perf/soft/perf_func/lib/time.c:33

unsigned long clock_gettime(int sel,struct timespec *tmp)
{
1c001900:	02bfc063 	addi.w	$r3,$r3,-16(0xff0)
1c001904:	29803079 	st.w	$r25,$r3,12(0xc)
_get_count():
/home/132/git_rep/perf/soft/perf_func/lib/time.c:7
    asm volatile(
1c001908:	157f5fd9 	lu12i.w	$r25,-263426(0xbfafe)
1c00190c:	2880032f 	ld.w	$r15,$r25,0
clock_gettime():
/home/132/git_rep/perf/soft/perf_func/lib/time.c:36
    unsigned long n = 0;
    n = _get_count();
    tmp->tv_nsec = n*(NSEC_PER_USEC/CPU_COUNT_PER_US)%NSEC_PER_USEC;
1c001910:	0280280d 	addi.w	$r13,$r0,10(0xa)
1c001914:	001c35ed 	mul.w	$r13,$r15,$r13
/home/132/git_rep/perf/soft/perf_func/lib/time.c:37
    tmp->tv_usec = (n/CPU_COUNT_PER_US)%USEC_PER_MSEC;
1c001918:	02819011 	addi.w	$r17,$r0,100(0x64)
/home/132/git_rep/perf/soft/perf_func/lib/time.c:38
    tmp->tv_msec = (n/CPU_COUNT_PER_US/USEC_PER_MSEC)%MSEC_PER_SEC;
1c00191c:	1400030e 	lu12i.w	$r14,24(0x18)
/home/132/git_rep/perf/soft/perf_func/lib/time.c:37
    tmp->tv_usec = (n/CPU_COUNT_PER_US)%USEC_PER_MSEC;
1c001920:	002145f0 	div.wu	$r16,$r15,$r17
1c001924:	5c000a20 	bne	$r17,$r0,8(0x8) # 1c00192c <clock_gettime+0x2c>
1c001928:	002a0007 	break	0x7
/home/132/git_rep/perf/soft/perf_func/lib/time.c:36
    tmp->tv_nsec = n*(NSEC_PER_USEC/CPU_COUNT_PER_US)%NSEC_PER_USEC;
1c00192c:	028fa00c 	addi.w	$r12,$r0,1000(0x3e8)
/home/132/git_rep/perf/soft/perf_func/lib/time.c:38
    tmp->tv_msec = (n/CPU_COUNT_PER_US/USEC_PER_MSEC)%MSEC_PER_SEC;
1c001930:	039a81ce 	ori	$r14,$r14,0x6a0
/home/132/git_rep/perf/soft/perf_func/lib/time.c:37
    tmp->tv_usec = (n/CPU_COUNT_PER_US)%USEC_PER_MSEC;
1c001934:	0021b211 	mod.wu	$r17,$r16,$r12
1c001938:	5c000980 	bne	$r12,$r0,8(0x8) # 1c001940 <clock_gettime+0x40>
1c00193c:	002a0007 	break	0x7
/home/132/git_rep/perf/soft/perf_func/lib/time.c:38
    tmp->tv_msec = (n/CPU_COUNT_PER_US/USEC_PER_MSEC)%MSEC_PER_SEC;
1c001940:	002139f0 	div.wu	$r16,$r15,$r14
1c001944:	5c0009c0 	bne	$r14,$r0,8(0x8) # 1c00194c <clock_gettime+0x4c>
1c001948:	002a0007 	break	0x7
1c00194c:	0021b20e 	mod.wu	$r14,$r16,$r12
1c001950:	5c000980 	bne	$r12,$r0,8(0x8) # 1c001958 <clock_gettime+0x58>
1c001954:	002a0007 	break	0x7
/home/132/git_rep/perf/soft/perf_func/lib/time.c:39
    tmp->tv_sec  = n/CPU_COUNT_PER_US/NSEC_PER_SEC;
1c001958:	298000a0 	st.w	$r0,$r5,0
/home/132/git_rep/perf/soft/perf_func/lib/time.c:38
    tmp->tv_msec = (n/CPU_COUNT_PER_US/USEC_PER_MSEC)%MSEC_PER_SEC;
1c00195c:	298030ae 	st.w	$r14,$r5,12(0xc)
/home/132/git_rep/perf/soft/perf_func/lib/time.c:37
    tmp->tv_usec = (n/CPU_COUNT_PER_US)%USEC_PER_MSEC;
1c001960:	298020b1 	st.w	$r17,$r5,8(0x8)
/home/132/git_rep/perf/soft/perf_func/lib/time.c:42
    //printf("clock ns=%d,sec=%d\n",tmp->tv_nsec,tmp->tv_sec);
    return 0;
}
1c001964:	28803079 	ld.w	$r25,$r3,12(0xc)
1c001968:	00150004 	move	$r4,$r0
/home/132/git_rep/perf/soft/perf_func/lib/time.c:36
    tmp->tv_nsec = n*(NSEC_PER_USEC/CPU_COUNT_PER_US)%NSEC_PER_USEC;
1c00196c:	0021b1ae 	mod.wu	$r14,$r13,$r12
1c001970:	5c000980 	bne	$r12,$r0,8(0x8) # 1c001978 <clock_gettime+0x78>
1c001974:	002a0007 	break	0x7
1c001978:	298010ae 	st.w	$r14,$r5,4(0x4)
/home/132/git_rep/perf/soft/perf_func/lib/time.c:42
}
1c00197c:	02804063 	addi.w	$r3,$r3,16(0x10)
1c001980:	4c000020 	jirl	$r0,$r1,0
1c001984:	03400000 	andi	$r0,$r0,0x0
1c001988:	03400000 	andi	$r0,$r0,0x0
1c00198c:	03400000 	andi	$r0,$r0,0x0

1c001990 <get_clock>:
get_clock():
/home/132/git_rep/perf/soft/perf_func/lib/time.c:42
1c001990:	53ff33ff 	b	-208(0xfffff30) # 1c0018c0 <get_count>
1c001994:	03400000 	andi	$r0,$r0,0x0
1c001998:	03400000 	andi	$r0,$r0,0x0
1c00199c:	03400000 	andi	$r0,$r0,0x0

1c0019a0 <get_ns>:
get_ns():
/home/132/git_rep/perf/soft/perf_func/lib/time.c:52
    n=_get_count();
    return n;
}

unsigned long get_ns(void)
{
1c0019a0:	02bfc063 	addi.w	$r3,$r3,-16(0xff0)
1c0019a4:	29803079 	st.w	$r25,$r3,12(0xc)
_get_count():
/home/132/git_rep/perf/soft/perf_func/lib/time.c:7
    asm volatile(
1c0019a8:	157f5fd9 	lu12i.w	$r25,-263426(0xbfafe)
1c0019ac:	28800324 	ld.w	$r4,$r25,0
get_ns():
/home/132/git_rep/perf/soft/perf_func/lib/time.c:55
    unsigned long n=0;
    n = _get_count();
    n=n*(NSEC_PER_USEC/CPU_COUNT_PER_US);
1c0019b0:	0280280c 	addi.w	$r12,$r0,10(0xa)
/home/132/git_rep/perf/soft/perf_func/lib/time.c:57
    return n;
}
1c0019b4:	28803079 	ld.w	$r25,$r3,12(0xc)
1c0019b8:	001c3084 	mul.w	$r4,$r4,$r12
1c0019bc:	02804063 	addi.w	$r3,$r3,16(0x10)
1c0019c0:	4c000020 	jirl	$r0,$r1,0
1c0019c4:	03400000 	andi	$r0,$r0,0x0
1c0019c8:	03400000 	andi	$r0,$r0,0x0
1c0019cc:	03400000 	andi	$r0,$r0,0x0

1c0019d0 <get_us>:
get_us():
/home/132/git_rep/perf/soft/perf_func/lib/time.c:61


unsigned long get_us(void)
{
1c0019d0:	02bfc063 	addi.w	$r3,$r3,-16(0xff0)
1c0019d4:	29803079 	st.w	$r25,$r3,12(0xc)
_get_count():
/home/132/git_rep/perf/soft/perf_func/lib/time.c:7
    asm volatile(
1c0019d8:	157f5fd9 	lu12i.w	$r25,-263426(0xbfafe)
1c0019dc:	28800324 	ld.w	$r4,$r25,0
get_us():
/home/132/git_rep/perf/soft/perf_func/lib/time.c:64
    unsigned long n=0;
    n = _get_count();
    n=n/CPU_COUNT_PER_US;
1c0019e0:	0281900c 	addi.w	$r12,$r0,100(0x64)
/home/132/git_rep/perf/soft/perf_func/lib/time.c:66
    return n;
}
1c0019e4:	28803079 	ld.w	$r25,$r3,12(0xc)
1c0019e8:	0021308d 	div.wu	$r13,$r4,$r12
1c0019ec:	5c000980 	bne	$r12,$r0,8(0x8) # 1c0019f4 <get_us+0x24>
1c0019f0:	002a0007 	break	0x7
1c0019f4:	001501a4 	move	$r4,$r13
1c0019f8:	02804063 	addi.w	$r3,$r3,16(0x10)
1c0019fc:	4c000020 	jirl	$r0,$r1,0

Disassembly of section .data:

1c080000 <rodata_end-0x760>:
1c080000:	79726864 	0x79726864
1c080004:	6e6f7473 	bgeu	$r3,$r19,-102540(0x26f74) # 1c066f78 <_data_lma+0x65578>
1c080008:	65742065 	bge	$r3,$r5,95264(0x17420) # 1c097428 <_end+0x14420>
1c08000c:	62207473 	blt	$r3,$r19,-122764(0x22074) # 1c062080 <_data_lma+0x60680>
1c080010:	6e696765 	bgeu	$r27,$r5,-104092(0x26964) # 1c066974 <_data_lma+0x64f74>
1c080014:	0000002e 	0x0000002e
1c080018:	79726864 	0x79726864
1c08001c:	6e6f7473 	bgeu	$r3,$r19,-102540(0x26f74) # 1c066f90 <_data_lma+0x65590>
1c080020:	41502065 	beqz	$r3,1396768(0x155020) # 1c1d5040 <_stack+0xd5044>
1c080024:	00215353 	div.wu	$r19,$r26,$r20
1c080028:	79726864 	0x79726864
1c08002c:	6e6f7473 	bgeu	$r3,$r19,-102540(0x26f74) # 1c066fa0 <_data_lma+0x655a0>
1c080030:	52452065 	b	26625312(0x1964520) # 1d9e4550 <_stack+0x18e4554>
1c080034:	21524f52 	sc.w	$r18,$r26,21068(0x524c)
1c080038:	00002121 	clo.d	$r1,$r9
1c08003c:	79726864 	0x79726864
1c080040:	6e6f7473 	bgeu	$r3,$r19,-102540(0x26f74) # 1c066fb4 <_data_lma+0x655b4>
1c080044:	54203a65 	bl	-107732936(0x9942038) # 159c207c <__stack_size+0x159b207c>
1c080048:	6c61746f 	bgeu	$r3,$r15,24948(0x6174) # 1c0861bc <_end+0x31b4>
1c08004c:	756f4320 	0x756f4320
1c080050:	5328746e 	b	29042804(0x1bb2874) # 1dc328c4 <_stack+0x1b328c8>
1c080054:	6320436f 	blt	$r27,$r15,-57280(0x32040) # 1c072094 <_data_lma+0x70694>
1c080058:	746e756f 	0x746e756f
1c08005c:	203d2029 	ll.w	$r9,$r1,15648(0x3d20)
1c080060:	78257830 	0x78257830
1c080064:	0000000a 	0x0000000a
1c080068:	79726864 	0x79726864
1c08006c:	6e6f7473 	bgeu	$r3,$r19,-102540(0x26f74) # 1c066fe0 <_data_lma+0x655e0>
1c080070:	54203a65 	bl	-107732936(0x9942038) # 159c20a8 <__stack_size+0x159b20a8>
1c080074:	6c61746f 	bgeu	$r3,$r15,24948(0x6174) # 1c0861e8 <_end+0x31e0>
1c080078:	756f4320 	0x756f4320
1c08007c:	4328746e 	beqz	$r3,3876980(0x3b2874) # 1c4328f0 <_stack+0x3328f4>
1c080080:	63205550 	blt	$r10,$r16,-57260(0x32054) # 1c0720d4 <_data_lma+0x706d4>
1c080084:	746e756f 	0x746e756f
1c080088:	203d2029 	ll.w	$r9,$r1,15648(0x3d20)
1c08008c:	78257830 	0x78257830
1c080090:	0000000a 	0x0000000a
1c080094:	79726844 	0x79726844
1c080098:	6e6f7473 	bgeu	$r3,$r19,-102540(0x26f74) # 1c06700c <_data_lma+0x6560c>
1c08009c:	65422065 	bge	$r3,$r5,82464(0x14220) # 1c0942bc <_end+0x112b4>
1c0800a0:	6d68636e 	bgeu	$r27,$r14,92256(0x16860) # 1c096900 <_end+0x138f8>
1c0800a4:	2c6b7261 	vst	$vr1,$r19,-1316(0xadc)
1c0800a8:	72655620 	0x72655620
1c0800ac:	6e6f6973 	bgeu	$r11,$r19,-102552(0x26f68) # 1c067014 <_data_lma+0x65614>
1c0800b0:	312e3220 	vstelm.w	$vr0,$r17,-464(0x230),0x3
1c0800b4:	614c2820 	blt	$r1,$r0,85032(0x14c28) # 1c094cdc <_end+0x11cd4>
1c0800b8:	6175676e 	blt	$r27,$r14,95588(0x17564) # 1c09761c <_end+0x14614>
1c0800bc:	203a6567 	ll.w	$r7,$r11,14948(0x3a64)
1c0800c0:	00002943 	cto.d	$r3,$r10
1c0800c4:	59524844 	beq	$r2,$r4,86600(0x15248) # 1c09530c <_end+0x12304>
1c0800c8:	4e4f5453 	jirl	$r19,$r2,-110764(0x24f54)
1c0800cc:	52502045 	b	18239520(0x1165020) # 1d1e50ec <_stack+0x10e50f0>
1c0800d0:	4152474f 	beqz	$r26,4018756(0x3d5244) # 1c455314 <_stack+0x355318>
1c0800d4:	53202c4d 	b	20389932(0x137202c) # 1d3f2100 <_stack+0x12f2104>
1c0800d8:	20454d4f 	ll.w	$r15,$r10,17740(0x454c)
1c0800dc:	49525453 	bceqz	$fcc2,-3321260(0x4d5254) # 1bd55330 <__stack_size+0x1bd45330>
1c0800e0:	0000474e 	revh.d	$r14,$r26
1c0800e4:	59524844 	beq	$r2,$r4,86600(0x15248) # 1c09532c <_end+0x12324>
1c0800e8:	4e4f5453 	jirl	$r19,$r2,-110764(0x24f54)
1c0800ec:	52502045 	b	18239520(0x1165020) # 1d1e510c <_stack+0x10e5110>
1c0800f0:	4152474f 	beqz	$r26,4018756(0x3d5244) # 1c455334 <_stack+0x355338>
1c0800f4:	31202c4d 	vstelm.w	$vr13,$r2,44(0x2c),0x0
1c0800f8:	20545327 	ll.w	$r7,$r25,21584(0x5450)
1c0800fc:	49525453 	bceqz	$fcc2,-3321260(0x4d5254) # 1bd55350 <__stack_size+0x1bd45350>
1c080100:	0000474e 	revh.d	$r14,$r26
1c080104:	676f7250 	bge	$r18,$r16,-37008(0x36f70) # 1c077074 <_data_lma+0x75674>
1c080108:	206d6172 	ll.w	$r18,$r11,28000(0x6d60)
1c08010c:	706d6f63 	0x706d6f63
1c080110:	64656c69 	bge	$r3,$r9,25964(0x656c) # 1c08667c <_end+0x3674>
1c080114:	74697720 	xvavgr.w	$xr0,$xr25,$xr29
1c080118:	72272068 	0x72272068
1c08011c:	73696765 	vssrarni.w.d	$vr5,$vr27,0x19
1c080120:	27726574 	stptr.d	$r20,$r11,29284(0x7264)
1c080124:	74746120 	xvmax.bu	$xr0,$xr9,$xr24
1c080128:	75626972 	0x75626972
1c08012c:	00006574 	rdtimeh.w	$r20,$r11
1c080130:	676f7250 	bge	$r18,$r16,-37008(0x36f70) # 1c0770a0 <_data_lma+0x756a0>
1c080134:	206d6172 	ll.w	$r18,$r11,28000(0x6d60)
1c080138:	706d6f63 	0x706d6f63
1c08013c:	64656c69 	bge	$r3,$r9,25964(0x656c) # 1c0866a8 <_end+0x36a0>
1c080140:	74697720 	xvavgr.w	$xr0,$xr25,$xr29
1c080144:	74756f68 	xvmax.wu	$xr8,$xr27,$xr27
1c080148:	65722720 	bge	$r25,$r0,94756(0x17224) # 1c09736c <_end+0x14364>
1c08014c:	74736967 	xvmin.w	$xr7,$xr11,$xr26
1c080150:	20277265 	ll.w	$r5,$r19,10096(0x2770)
1c080154:	72747461 	0x72747461
1c080158:	74756269 	xvmax.wu	$xr9,$xr19,$xr24
1c08015c:	00000065 	0x00000065
1c080160:	63657845 	blt	$r2,$r5,-39560(0x36578) # 1c0766d8 <_data_lma+0x74cd8>
1c080164:	6f697475 	bgeu	$r3,$r21,-38540(0x36974) # 1c076ad8 <_data_lma+0x750d8>
1c080168:	7473206e 	xvmin.w	$xr14,$xr3,$xr8
1c08016c:	73747261 	0x73747261
1c080170:	6425202c 	bge	$r1,$r12,9504(0x2520) # 1c082690 <Arr_2_Glob+0x1edc>
1c080174:	6e757220 	bgeu	$r17,$r0,-101008(0x27570) # 1c0676e4 <_data_lma+0x65ce4>
1c080178:	68742073 	bltu	$r3,$r19,29728(0x7420) # 1c087598 <_end+0x4590>
1c08017c:	67756f72 	bge	$r27,$r18,-35476(0x3756c) # 1c0776e8 <_data_lma+0x75ce8>
1c080180:	68442068 	bltu	$r3,$r8,17440(0x4420) # 1c0845a0 <_end+0x1598>
1c080184:	74737972 	xvmin.w	$xr18,$xr11,$xr30
1c080188:	0a656e6f 	xvfmsub.d	$xr15,$xr19,$xr27,$xr10
1c08018c:	00000000 	0x00000000
1c080190:	59524844 	beq	$r2,$r4,86600(0x15248) # 1c0953d8 <_end+0x123d0>
1c080194:	4e4f5453 	jirl	$r19,$r2,-110764(0x24f54)
1c080198:	52502045 	b	18239520(0x1165020) # 1d1e51b8 <_stack+0x10e51bc>
1c08019c:	4152474f 	beqz	$r26,4018756(0x3d5244) # 1c4553e0 <_stack+0x3553e4>
1c0801a0:	32202c4d 	xvldrepl.w	$xr13,$r2,44(0x2c)
1c0801a4:	20444e27 	ll.w	$r7,$r17,17484(0x444c)
1c0801a8:	49525453 	bceqz	$fcc2,-3321260(0x4d5254) # 1bd553fc <__stack_size+0x1bd453fc>
1c0801ac:	0000474e 	revh.d	$r14,$r26
1c0801b0:	59524844 	beq	$r2,$r4,86600(0x15248) # 1c0953f8 <_end+0x123f0>
1c0801b4:	4e4f5453 	jirl	$r19,$r2,-110764(0x24f54)
1c0801b8:	52502045 	b	18239520(0x1165020) # 1d1e51d8 <_stack+0x10e51dc>
1c0801bc:	4152474f 	beqz	$r26,4018756(0x3d5244) # 1c455400 <_stack+0x355404>
1c0801c0:	33202c4d 	xvstelm.w	$xr13,$r2,44(0x2c),0x0
1c0801c4:	20445227 	ll.w	$r7,$r17,17488(0x4450)
1c0801c8:	49525453 	bceqz	$fcc2,-3321260(0x4d5254) # 1bd5541c <__stack_size+0x1bd4541c>
1c0801cc:	0000474e 	revh.d	$r14,$r26
1c0801d0:	63657845 	blt	$r2,$r5,-39560(0x36578) # 1c076748 <_data_lma+0x74d48>
1c0801d4:	6f697475 	bgeu	$r3,$r21,-38540(0x36974) # 1c076b48 <_data_lma+0x75148>
1c0801d8:	6e65206e 	bgeu	$r3,$r14,-105184(0x26520) # 1c0666f8 <_data_lma+0x64cf8>
1c0801dc:	00007364 	0x00007364
1c0801e0:	616e6946 	blt	$r10,$r6,93800(0x16e68) # 1c097048 <_end+0x14040>
1c0801e4:	6176206c 	blt	$r3,$r12,95776(0x17620) # 1c097804 <_end+0x147fc>
1c0801e8:	7365756c 	vssrani.wu.d	$vr12,$vr11,0x1d
1c0801ec:	20666f20 	ll.w	$r0,$r25,26220(0x666c)
1c0801f0:	20656874 	ll.w	$r20,$r3,25960(0x6568)
1c0801f4:	69726176 	bltu	$r11,$r22,94816(0x17260) # 1c097454 <_end+0x1444c>
1c0801f8:	656c6261 	bge	$r19,$r1,93280(0x16c60) # 1c096e58 <_end+0x13e50>
1c0801fc:	73752073 	0x73752073
1c080200:	69206465 	bltu	$r3,$r5,73828(0x12064) # 1c092264 <_end+0xf25c>
1c080204:	6874206e 	bltu	$r3,$r14,29728(0x7420) # 1c087624 <_end+0x461c>
1c080208:	65622065 	bge	$r3,$r5,90656(0x16220) # 1c096428 <_end+0x13420>
1c08020c:	6d68636e 	bgeu	$r27,$r14,92256(0x16860) # 1c096a6c <_end+0x13a64>
1c080210:	3a6b7261 	0x3a6b7261
1c080214:	00000000 	0x00000000
1c080218:	5f746e49 	bne	$r18,$r9,-35732(0x3746c) # 1c077684 <_data_lma+0x75c84>
1c08021c:	626f6c47 	blt	$r2,$r7,-102548(0x26f6c) # 1c067188 <_data_lma+0x65788>
1c080220:	2020203a 	ll.w	$r26,$r1,8224(0x2020)
1c080224:	20202020 	ll.w	$r0,$r1,8224(0x2020)
1c080228:	20202020 	ll.w	$r0,$r1,8224(0x2020)
1c08022c:	0a642520 	xvfmsub.d	$xr0,$xr9,$xr9,$xr8
1c080230:	00000000 	0x00000000
1c080234:	20202020 	ll.w	$r0,$r1,8224(0x2020)
1c080238:	20202020 	ll.w	$r0,$r1,8224(0x2020)
1c08023c:	756f6873 	0x756f6873
1c080240:	6220646c 	blt	$r3,$r12,-122780(0x22064) # 1c0622a4 <_data_lma+0x608a4>
1c080244:	20203a65 	ll.w	$r5,$r19,8248(0x2038)
1c080248:	0a642520 	xvfmsub.d	$xr0,$xr9,$xr9,$xr8
1c08024c:	00000000 	0x00000000
1c080250:	6c6f6f42 	bgeu	$r26,$r2,28524(0x6f6c) # 1c0871bc <_end+0x41b4>
1c080254:	6f6c475f 	bgeu	$r26,$r31,-37820(0x36c44) # 1c076e98 <_data_lma+0x75498>
1c080258:	20203a62 	ll.w	$r2,$r19,8248(0x2038)
1c08025c:	20202020 	ll.w	$r0,$r1,8224(0x2020)
1c080260:	20202020 	ll.w	$r0,$r1,8224(0x2020)
1c080264:	0a642520 	xvfmsub.d	$xr0,$xr9,$xr9,$xr8
1c080268:	00000000 	0x00000000
1c08026c:	315f6843 	vstelm.h	$vr3,$r2,-76(0x1b4),0x7
1c080270:	6f6c475f 	bgeu	$r26,$r31,-37820(0x36c44) # 1c076eb4 <_data_lma+0x754b4>
1c080274:	20203a62 	ll.w	$r2,$r19,8248(0x2038)
1c080278:	20202020 	ll.w	$r0,$r1,8224(0x2020)
1c08027c:	20202020 	ll.w	$r0,$r1,8224(0x2020)
1c080280:	0a632520 	xvfmsub.d	$xr0,$xr9,$xr9,$xr6
1c080284:	00000000 	0x00000000
1c080288:	20202020 	ll.w	$r0,$r1,8224(0x2020)
1c08028c:	20202020 	ll.w	$r0,$r1,8224(0x2020)
1c080290:	756f6873 	0x756f6873
1c080294:	6220646c 	blt	$r3,$r12,-122780(0x22064) # 1c0622f8 <_data_lma+0x608f8>
1c080298:	20203a65 	ll.w	$r5,$r19,8248(0x2038)
1c08029c:	0a632520 	xvfmsub.d	$xr0,$xr9,$xr9,$xr6
1c0802a0:	00000000 	0x00000000
1c0802a4:	325f6843 	xvldrepl.h	$xr3,$r2,-76(0xfb4)
1c0802a8:	6f6c475f 	bgeu	$r26,$r31,-37820(0x36c44) # 1c076eec <_data_lma+0x754ec>
1c0802ac:	20203a62 	ll.w	$r2,$r19,8248(0x2038)
1c0802b0:	20202020 	ll.w	$r0,$r1,8224(0x2020)
1c0802b4:	20202020 	ll.w	$r0,$r1,8224(0x2020)
1c0802b8:	0a632520 	xvfmsub.d	$xr0,$xr9,$xr9,$xr6
1c0802bc:	00000000 	0x00000000
1c0802c0:	5f727241 	bne	$r18,$r1,-36240(0x37270) # 1c077530 <_data_lma+0x75b30>
1c0802c4:	6c475f31 	bgeu	$r25,$r17,18268(0x475c) # 1c084a20 <_end+0x1a18>
1c0802c8:	385b626f 	0x385b626f
1c0802cc:	20203a5d 	ll.w	$r29,$r18,8248(0x2038)
1c0802d0:	20202020 	ll.w	$r0,$r1,8224(0x2020)
1c0802d4:	0a642520 	xvfmsub.d	$xr0,$xr9,$xr9,$xr8
1c0802d8:	00000000 	0x00000000
1c0802dc:	5f727241 	bne	$r18,$r1,-36240(0x37270) # 1c07754c <_data_lma+0x75b4c>
1c0802e0:	6c475f32 	bgeu	$r25,$r18,18268(0x475c) # 1c084a3c <_end+0x1a34>
1c0802e4:	385b626f 	0x385b626f
1c0802e8:	5d375b5d 	bne	$r26,$r29,79704(0x13758) # 1c093a40 <_end+0x10a38>
1c0802ec:	2020203a 	ll.w	$r26,$r1,8224(0x2020)
1c0802f0:	0a642520 	xvfmsub.d	$xr0,$xr9,$xr9,$xr8
1c0802f4:	00000000 	0x00000000
1c0802f8:	5f727450 	bne	$r2,$r16,-36236(0x37274) # 1c07756c <_data_lma+0x75b6c>
1c0802fc:	626f6c47 	blt	$r2,$r7,-102548(0x26f6c) # 1c067268 <_data_lma+0x65868>
1c080300:	00003e2d 	revb.d	$r13,$r17
1c080304:	74502020 	0x74502020
1c080308:	6f435f72 	bgeu	$r27,$r18,-48292(0x3435c) # 1c074664 <_data_lma+0x72c64>
1c08030c:	203a706d 	ll.w	$r13,$r3,14960(0x3a70)
1c080310:	20202020 	ll.w	$r0,$r1,8224(0x2020)
1c080314:	20202020 	ll.w	$r0,$r1,8224(0x2020)
1c080318:	0a642520 	xvfmsub.d	$xr0,$xr9,$xr9,$xr8
1c08031c:	00000000 	0x00000000
1c080320:	20202020 	ll.w	$r0,$r1,8224(0x2020)
1c080324:	20202020 	ll.w	$r0,$r1,8224(0x2020)
1c080328:	756f6873 	0x756f6873
1c08032c:	6220646c 	blt	$r3,$r12,-122780(0x22064) # 1c062390 <_data_lma+0x60990>
1c080330:	20203a65 	ll.w	$r5,$r19,8248(0x2038)
1c080334:	6d692820 	bgeu	$r1,$r0,92456(0x16928) # 1c096c5c <_end+0x13c54>
1c080338:	6d656c70 	bgeu	$r3,$r16,91500(0x1656c) # 1c0968a4 <_end+0x1389c>
1c08033c:	61746e65 	blt	$r19,$r5,95340(0x1746c) # 1c0977a8 <_end+0x147a0>
1c080340:	6e6f6974 	bgeu	$r11,$r20,-102552(0x26f68) # 1c0672a8 <_data_lma+0x658a8>
1c080344:	7065642d 	vavg.w	$vr13,$vr1,$vr25
1c080348:	65646e65 	bge	$r19,$r5,91244(0x1646c) # 1c0967b4 <_end+0x137ac>
1c08034c:	0029746e 	0x0029746e
1c080350:	69442020 	bltu	$r1,$r0,82976(0x14420) # 1c094770 <_end+0x11768>
1c080354:	3a726373 	0x3a726373
1c080358:	20202020 	ll.w	$r0,$r1,8224(0x2020)
1c08035c:	20202020 	ll.w	$r0,$r1,8224(0x2020)
1c080360:	20202020 	ll.w	$r0,$r1,8224(0x2020)
1c080364:	0a642520 	xvfmsub.d	$xr0,$xr9,$xr9,$xr8
1c080368:	00000000 	0x00000000
1c08036c:	6e452020 	bgeu	$r1,$r0,-113376(0x24520) # 1c06488c <_data_lma+0x62e8c>
1c080370:	435f6d75 	beqz	$r11,-2662548(0x575f6c) # 1bdf62dc <__stack_size+0x1bde62dc>
1c080374:	3a706d6f 	0x3a706d6f
1c080378:	20202020 	ll.w	$r0,$r1,8224(0x2020)
1c08037c:	20202020 	ll.w	$r0,$r1,8224(0x2020)
1c080380:	0a642520 	xvfmsub.d	$xr0,$xr9,$xr9,$xr8
1c080384:	00000000 	0x00000000
1c080388:	6e492020 	bgeu	$r1,$r0,-112352(0x24920) # 1c064ca8 <_data_lma+0x632a8>
1c08038c:	6f435f74 	bgeu	$r27,$r20,-48292(0x3435c) # 1c0746e8 <_data_lma+0x72ce8>
1c080390:	203a706d 	ll.w	$r13,$r3,14960(0x3a70)
1c080394:	20202020 	ll.w	$r0,$r1,8224(0x2020)
1c080398:	20202020 	ll.w	$r0,$r1,8224(0x2020)
1c08039c:	0a642520 	xvfmsub.d	$xr0,$xr9,$xr9,$xr8
1c0803a0:	00000000 	0x00000000
1c0803a4:	74532020 	0x74532020
1c0803a8:	6f435f72 	bgeu	$r27,$r18,-48292(0x3435c) # 1c074704 <_data_lma+0x72d04>
1c0803ac:	203a706d 	ll.w	$r13,$r3,14960(0x3a70)
1c0803b0:	20202020 	ll.w	$r0,$r1,8224(0x2020)
1c0803b4:	20202020 	ll.w	$r0,$r1,8224(0x2020)
1c0803b8:	0a732520 	0x0a732520
1c0803bc:	00000000 	0x00000000
1c0803c0:	20202020 	ll.w	$r0,$r1,8224(0x2020)
1c0803c4:	20202020 	ll.w	$r0,$r1,8224(0x2020)
1c0803c8:	756f6873 	0x756f6873
1c0803cc:	6220646c 	blt	$r3,$r12,-122780(0x22064) # 1c062430 <_data_lma+0x60a30>
1c0803d0:	20203a65 	ll.w	$r5,$r19,8248(0x2038)
1c0803d4:	52484420 	b	8538180(0x824844) # 1c8a4c18 <_stack+0x7a4c1c>
1c0803d8:	4f545359 	jirl	$r25,$r26,-43952(0x35450)
1c0803dc:	5020454e 	b	87564356(0x5382044) # 21402420 <_stack+0x5302424>
1c0803e0:	52474f52 	b	-45463732(0xd4a474c) # 19524b2c <__stack_size+0x19514b2c>
1c0803e4:	202c4d41 	ll.w	$r1,$r10,11340(0x2c4c)
1c0803e8:	454d4f53 	bnez	$r26,-3322548(0x4d4d4c) # 1bd55134 <__stack_size+0x1bd45134>
1c0803ec:	52545320 	b	-58567600(0xc825450) # 188a583c <__stack_size+0x1889583c>
1c0803f0:	00474e49 	0x00474e49
1c0803f4:	7478654e 	0x7478654e
1c0803f8:	7274505f 	0x7274505f
1c0803fc:	6f6c475f 	bgeu	$r26,$r31,-37820(0x36c44) # 1c077040 <_data_lma+0x75640>
1c080400:	003e2d62 	0x003e2d62
1c080404:	20202020 	ll.w	$r0,$r1,8224(0x2020)
1c080408:	20202020 	ll.w	$r0,$r1,8224(0x2020)
1c08040c:	756f6873 	0x756f6873
1c080410:	6220646c 	blt	$r3,$r12,-122780(0x22064) # 1c062474 <_data_lma+0x60a74>
1c080414:	20203a65 	ll.w	$r5,$r19,8248(0x2038)
1c080418:	6d692820 	bgeu	$r1,$r0,92456(0x16928) # 1c096d40 <_end+0x13d38>
1c08041c:	6d656c70 	bgeu	$r3,$r16,91500(0x1656c) # 1c096988 <_end+0x13980>
1c080420:	61746e65 	blt	$r19,$r5,95340(0x1746c) # 1c09788c <_end+0x14884>
1c080424:	6e6f6974 	bgeu	$r11,$r20,-102552(0x26f68) # 1c06738c <_data_lma+0x6598c>
1c080428:	7065642d 	vavg.w	$vr13,$vr1,$vr25
1c08042c:	65646e65 	bge	$r19,$r5,91244(0x1646c) # 1c096898 <_end+0x13890>
1c080430:	2c29746e 	vld	$vr14,$r3,-1443(0xa5d)
1c080434:	6d617320 	bgeu	$r25,$r0,90480(0x16170) # 1c0965a4 <_end+0x1359c>
1c080438:	73612065 	vssrani.w.d	$vr5,$vr3,0x8
1c08043c:	6f626120 	bgeu	$r9,$r0,-40352(0x36260) # 1c07669c <_data_lma+0x74c9c>
1c080440:	00006576 	rdtimeh.w	$r22,$r11
1c080444:	5f746e49 	bne	$r18,$r9,-35732(0x3746c) # 1c0778b0 <_data_lma+0x75eb0>
1c080448:	6f4c5f31 	bgeu	$r25,$r17,-45988(0x34c5c) # 1c0750a4 <_data_lma+0x736a4>
1c08044c:	20203a63 	ll.w	$r3,$r19,8248(0x2038)
1c080450:	20202020 	ll.w	$r0,$r1,8224(0x2020)
1c080454:	20202020 	ll.w	$r0,$r1,8224(0x2020)
1c080458:	0a642520 	xvfmsub.d	$xr0,$xr9,$xr9,$xr8
1c08045c:	00000000 	0x00000000
1c080460:	5f746e49 	bne	$r18,$r9,-35732(0x3746c) # 1c0778cc <_data_lma+0x75ecc>
1c080464:	6f4c5f32 	bgeu	$r25,$r18,-45988(0x34c5c) # 1c0750c0 <_data_lma+0x736c0>
1c080468:	20203a63 	ll.w	$r3,$r19,8248(0x2038)
1c08046c:	20202020 	ll.w	$r0,$r1,8224(0x2020)
1c080470:	20202020 	ll.w	$r0,$r1,8224(0x2020)
1c080474:	0a642520 	xvfmsub.d	$xr0,$xr9,$xr9,$xr8
1c080478:	00000000 	0x00000000
1c08047c:	5f746e49 	bne	$r18,$r9,-35732(0x3746c) # 1c0778e8 <_data_lma+0x75ee8>
1c080480:	6f4c5f33 	bgeu	$r25,$r19,-45988(0x34c5c) # 1c0750dc <_data_lma+0x736dc>
1c080484:	20203a63 	ll.w	$r3,$r19,8248(0x2038)
1c080488:	20202020 	ll.w	$r0,$r1,8224(0x2020)
1c08048c:	20202020 	ll.w	$r0,$r1,8224(0x2020)
1c080490:	0a642520 	xvfmsub.d	$xr0,$xr9,$xr9,$xr8
1c080494:	00000000 	0x00000000
1c080498:	6d756e45 	bgeu	$r18,$r5,95596(0x1756c) # 1c097a04 <_end+0x149fc>
1c08049c:	636f4c5f 	blt	$r2,$r31,-37044(0x36f4c) # 1c0773e8 <_data_lma+0x759e8>
1c0804a0:	2020203a 	ll.w	$r26,$r1,8224(0x2020)
1c0804a4:	20202020 	ll.w	$r0,$r1,8224(0x2020)
1c0804a8:	20202020 	ll.w	$r0,$r1,8224(0x2020)
1c0804ac:	0a642520 	xvfmsub.d	$xr0,$xr9,$xr9,$xr8
1c0804b0:	00000000 	0x00000000
1c0804b4:	5f727453 	bne	$r2,$r19,-36236(0x37274) # 1c077728 <_data_lma+0x75d28>
1c0804b8:	6f4c5f31 	bgeu	$r25,$r17,-45988(0x34c5c) # 1c075114 <_data_lma+0x73714>
1c0804bc:	20203a63 	ll.w	$r3,$r19,8248(0x2038)
1c0804c0:	20202020 	ll.w	$r0,$r1,8224(0x2020)
1c0804c4:	20202020 	ll.w	$r0,$r1,8224(0x2020)
1c0804c8:	0a732520 	0x0a732520
1c0804cc:	00000000 	0x00000000
1c0804d0:	20202020 	ll.w	$r0,$r1,8224(0x2020)
1c0804d4:	20202020 	ll.w	$r0,$r1,8224(0x2020)
1c0804d8:	756f6873 	0x756f6873
1c0804dc:	6220646c 	blt	$r3,$r12,-122780(0x22064) # 1c062540 <_data_lma+0x60b40>
1c0804e0:	20203a65 	ll.w	$r5,$r19,8248(0x2038)
1c0804e4:	52484420 	b	8538180(0x824844) # 1c8a4d28 <_stack+0x7a4d2c>
1c0804e8:	4f545359 	jirl	$r25,$r26,-43952(0x35450)
1c0804ec:	5020454e 	b	87564356(0x5382044) # 21402530 <_stack+0x5302534>
1c0804f0:	52474f52 	b	-45463732(0xd4a474c) # 19524c3c <__stack_size+0x19514c3c>
1c0804f4:	202c4d41 	ll.w	$r1,$r10,11340(0x2c4c)
1c0804f8:	54532731 	bl	-54242524(0xcc45324) # 18cc581c <__stack_size+0x18cb581c>
1c0804fc:	52545320 	b	-58567600(0xc825450) # 188a594c <__stack_size+0x1889594c>
1c080500:	00474e49 	0x00474e49
1c080504:	5f727453 	bne	$r2,$r19,-36236(0x37274) # 1c077778 <_data_lma+0x75d78>
1c080508:	6f4c5f32 	bgeu	$r25,$r18,-45988(0x34c5c) # 1c075164 <_data_lma+0x73764>
1c08050c:	20203a63 	ll.w	$r3,$r19,8248(0x2038)
1c080510:	20202020 	ll.w	$r0,$r1,8224(0x2020)
1c080514:	20202020 	ll.w	$r0,$r1,8224(0x2020)
1c080518:	0a732520 	0x0a732520
1c08051c:	00000000 	0x00000000
1c080520:	20202020 	ll.w	$r0,$r1,8224(0x2020)
1c080524:	20202020 	ll.w	$r0,$r1,8224(0x2020)
1c080528:	756f6873 	0x756f6873
1c08052c:	6220646c 	blt	$r3,$r12,-122780(0x22064) # 1c062590 <_data_lma+0x60b90>
1c080530:	20203a65 	ll.w	$r5,$r19,8248(0x2038)
1c080534:	52484420 	b	8538180(0x824844) # 1c8a4d78 <_stack+0x7a4d7c>
1c080538:	4f545359 	jirl	$r25,$r26,-43952(0x35450)
1c08053c:	5020454e 	b	87564356(0x5382044) # 21402580 <_stack+0x5302584>
1c080540:	52474f52 	b	-45463732(0xd4a474c) # 19524c8c <__stack_size+0x19514c8c>
1c080544:	202c4d41 	ll.w	$r1,$r10,11340(0x2c4c)
1c080548:	444e2732 	bnez	$r25,-3650012(0x484e24) # 1bd0536c <__stack_size+0x1bcf536c>
1c08054c:	52545320 	b	-58567600(0xc825450) # 188a599c <__stack_size+0x1889599c>
1c080550:	00474e49 	0x00474e49
1c080554:	69676542 	bltu	$r10,$r2,92004(0x16764) # 1c096cb8 <_end+0x13cb0>
1c080558:	736e206e 	vssrarni.du.q	$vr14,$vr3,0x8
1c08055c:	6c25203a 	bgeu	$r1,$r26,9504(0x2520) # 1c082a7c <Arr_2_Glob+0x22c8>
1c080560:	00000a75 	0x00000a75
1c080564:	20646e45 	ll.w	$r5,$r18,25708(0x646c)
1c080568:	203a736e 	ll.w	$r14,$r27,14960(0x3a70)
1c08056c:	0a756c25 	0x0a756c25
1c080570:	00000000 	0x00000000
1c080574:	61746f54 	blt	$r26,$r20,95340(0x1746c) # 1c0979e0 <_end+0x149d8>
1c080578:	736e206c 	vssrarni.du.q	$vr12,$vr3,0x8
1c08057c:	6c25203a 	bgeu	$r1,$r26,9504(0x2520) # 1c082a9c <Arr_2_Glob+0x22e8>
1c080580:	00000a75 	0x00000a75
1c080584:	7361654d 	vssrani.w.d	$vr13,$vr10,0x19
1c080588:	64657275 	bge	$r19,$r21,25968(0x6570) # 1c086af8 <_end+0x3af0>
1c08058c:	6d697420 	bgeu	$r1,$r0,92532(0x16974) # 1c096f00 <_end+0x13ef8>
1c080590:	6f742065 	bgeu	$r3,$r5,-35808(0x37420) # 1c0779b0 <_data_lma+0x75fb0>
1c080594:	6d73206f 	bgeu	$r3,$r15,95008(0x17320) # 1c0978b4 <_end+0x148ac>
1c080598:	206c6c61 	ll.w	$r1,$r3,27756(0x6c6c)
1c08059c:	6f206f74 	bgeu	$r27,$r20,-57236(0x3206c) # 1c072608 <_data_lma+0x70c08>
1c0805a0:	69617462 	bltu	$r3,$r2,90484(0x16174) # 1c096714 <_end+0x1370c>
1c0805a4:	656d206e 	bge	$r3,$r14,93472(0x16d20) # 1c0972c4 <_end+0x142bc>
1c0805a8:	6e696e61 	bgeu	$r19,$r1,-104084(0x2696c) # 1c066f14 <_data_lma+0x65514>
1c0805ac:	6c756667 	bgeu	$r19,$r7,30052(0x7564) # 1c087b10 <_end+0x4b08>
1c0805b0:	73657220 	vssrani.wu.d	$vr0,$vr17,0x1c
1c0805b4:	73746c75 	0x73746c75
1c0805b8:	00000000 	0x00000000
1c0805bc:	61656c50 	blt	$r2,$r16,91500(0x1656c) # 1c096b28 <_end+0x13b20>
1c0805c0:	69206573 	bltu	$r11,$r19,73828(0x12064) # 1c092624 <_end+0xf61c>
1c0805c4:	6572636e 	bge	$r27,$r14,94816(0x17260) # 1c097824 <_end+0x1481c>
1c0805c8:	20657361 	ll.w	$r1,$r27,25968(0x6570)
1c0805cc:	626d756e 	blt	$r11,$r14,-103052(0x26d74) # 1c067340 <_data_lma+0x65940>
1c0805d0:	6f207265 	bgeu	$r19,$r5,-57232(0x32070) # 1c072640 <_data_lma+0x70c40>
1c0805d4:	75722066 	0x75722066
1c0805d8:	0000736e 	0x0000736e
1c0805dc:	79726844 	0x79726844
1c0805e0:	6e6f7473 	bgeu	$r3,$r19,-102540(0x26f74) # 1c067554 <_data_lma+0x65b54>
1c0805e4:	70207365 	vsubwev.h.b	$vr5,$vr27,$vr28
1c0805e8:	6d207265 	bgeu	$r19,$r5,73840(0x12070) # 1c092658 <_end+0xf650>
1c0805ec:	20203a73 	ll.w	$r19,$r19,8248(0x2038)
1c0805f0:	20202020 	ll.w	$r0,$r1,8224(0x2020)
1c0805f4:	20202020 	ll.w	$r0,$r1,8224(0x2020)
1c0805f8:	20202020 	ll.w	$r0,$r1,8224(0x2020)
1c0805fc:	20202020 	ll.w	$r0,$r1,8224(0x2020)
1c080600:	20202020 	ll.w	$r0,$r1,8224(0x2020)
1c080604:	00000000 	0x00000000
1c080608:	20753125 	ll.w	$r5,$r9,30000(0x7530)
1c08060c:	0000000a 	0x0000000a
1c080610:	1c001650 	pcaddu12i	$r16,178(0xb2)
1c080614:	1c001660 	pcaddu12i	$r0,179(0xb3)
1c080618:	1c001660 	pcaddu12i	$r0,179(0xb3)
1c08061c:	1c001660 	pcaddu12i	$r0,179(0xb3)
1c080620:	1c001660 	pcaddu12i	$r0,179(0xb3)
1c080624:	1c001660 	pcaddu12i	$r0,179(0xb3)
1c080628:	1c001660 	pcaddu12i	$r0,179(0xb3)
1c08062c:	1c001660 	pcaddu12i	$r0,179(0xb3)
1c080630:	1c001660 	pcaddu12i	$r0,179(0xb3)
1c080634:	1c001660 	pcaddu12i	$r0,179(0xb3)
1c080638:	1c001660 	pcaddu12i	$r0,179(0xb3)
1c08063c:	1c001528 	pcaddu12i	$r8,169(0xa9)
1c080640:	1c001534 	pcaddu12i	$r20,169(0xa9)
1c080644:	1c001534 	pcaddu12i	$r20,169(0xa9)
1c080648:	1c001534 	pcaddu12i	$r20,169(0xa9)
1c08064c:	1c001534 	pcaddu12i	$r20,169(0xa9)
1c080650:	1c001534 	pcaddu12i	$r20,169(0xa9)
1c080654:	1c001534 	pcaddu12i	$r20,169(0xa9)
1c080658:	1c001534 	pcaddu12i	$r20,169(0xa9)
1c08065c:	1c001534 	pcaddu12i	$r20,169(0xa9)
1c080660:	1c001534 	pcaddu12i	$r20,169(0xa9)
1c080664:	1c001660 	pcaddu12i	$r0,179(0xb3)
1c080668:	1c001660 	pcaddu12i	$r0,179(0xb3)
1c08066c:	1c001660 	pcaddu12i	$r0,179(0xb3)
1c080670:	1c001660 	pcaddu12i	$r0,179(0xb3)
1c080674:	1c001660 	pcaddu12i	$r0,179(0xb3)
1c080678:	1c001660 	pcaddu12i	$r0,179(0xb3)
1c08067c:	1c001660 	pcaddu12i	$r0,179(0xb3)
1c080680:	1c001660 	pcaddu12i	$r0,179(0xb3)
1c080684:	1c001660 	pcaddu12i	$r0,179(0xb3)
1c080688:	1c001660 	pcaddu12i	$r0,179(0xb3)
1c08068c:	1c001660 	pcaddu12i	$r0,179(0xb3)
1c080690:	1c001660 	pcaddu12i	$r0,179(0xb3)
1c080694:	1c001660 	pcaddu12i	$r0,179(0xb3)
1c080698:	1c001660 	pcaddu12i	$r0,179(0xb3)
1c08069c:	1c001660 	pcaddu12i	$r0,179(0xb3)
1c0806a0:	1c001660 	pcaddu12i	$r0,179(0xb3)
1c0806a4:	1c001660 	pcaddu12i	$r0,179(0xb3)
1c0806a8:	1c001660 	pcaddu12i	$r0,179(0xb3)
1c0806ac:	1c001660 	pcaddu12i	$r0,179(0xb3)
1c0806b0:	1c001660 	pcaddu12i	$r0,179(0xb3)
1c0806b4:	1c001660 	pcaddu12i	$r0,179(0xb3)
1c0806b8:	1c001660 	pcaddu12i	$r0,179(0xb3)
1c0806bc:	1c001660 	pcaddu12i	$r0,179(0xb3)
1c0806c0:	1c001660 	pcaddu12i	$r0,179(0xb3)
1c0806c4:	1c001660 	pcaddu12i	$r0,179(0xb3)
1c0806c8:	1c001660 	pcaddu12i	$r0,179(0xb3)
1c0806cc:	1c001660 	pcaddu12i	$r0,179(0xb3)
1c0806d0:	1c001660 	pcaddu12i	$r0,179(0xb3)
1c0806d4:	1c001660 	pcaddu12i	$r0,179(0xb3)
1c0806d8:	1c001660 	pcaddu12i	$r0,179(0xb3)
1c0806dc:	1c001660 	pcaddu12i	$r0,179(0xb3)
1c0806e0:	1c001660 	pcaddu12i	$r0,179(0xb3)
1c0806e4:	1c001660 	pcaddu12i	$r0,179(0xb3)
1c0806e8:	1c001660 	pcaddu12i	$r0,179(0xb3)
1c0806ec:	1c001660 	pcaddu12i	$r0,179(0xb3)
1c0806f0:	1c001660 	pcaddu12i	$r0,179(0xb3)
1c0806f4:	1c001660 	pcaddu12i	$r0,179(0xb3)
1c0806f8:	1c001660 	pcaddu12i	$r0,179(0xb3)
1c0806fc:	1c001660 	pcaddu12i	$r0,179(0xb3)
1c080700:	1c001660 	pcaddu12i	$r0,179(0xb3)
1c080704:	1c001574 	pcaddu12i	$r20,171(0xab)
1c080708:	1c001590 	pcaddu12i	$r16,172(0xac)
1c08070c:	1c0015a4 	pcaddu12i	$r4,173(0xad)
1c080710:	1c001660 	pcaddu12i	$r0,179(0xb3)
1c080714:	1c001660 	pcaddu12i	$r0,179(0xb3)
1c080718:	1c001660 	pcaddu12i	$r0,179(0xb3)
1c08071c:	1c001660 	pcaddu12i	$r0,179(0xb3)
1c080720:	1c001660 	pcaddu12i	$r0,179(0xb3)
1c080724:	1c001660 	pcaddu12i	$r0,179(0xb3)
1c080728:	1c001660 	pcaddu12i	$r0,179(0xb3)
1c08072c:	1c0015c0 	pcaddu12i	$r0,174(0xae)
1c080730:	1c001660 	pcaddu12i	$r0,179(0xb3)
1c080734:	1c001660 	pcaddu12i	$r0,179(0xb3)
1c080738:	1c0015e0 	pcaddu12i	$r0,175(0xaf)
1c08073c:	1c001600 	pcaddu12i	$r0,176(0xb0)
1c080740:	1c001660 	pcaddu12i	$r0,179(0xb3)
1c080744:	1c001660 	pcaddu12i	$r0,179(0xb3)
1c080748:	1c001620 	pcaddu12i	$r0,177(0xb1)
1c08074c:	1c001660 	pcaddu12i	$r0,179(0xb3)
1c080750:	1c001634 	pcaddu12i	$r20,177(0xb1)
1c080754:	1c001660 	pcaddu12i	$r0,179(0xb3)
1c080758:	1c001660 	pcaddu12i	$r0,179(0xb3)
1c08075c:	1c001600 	pcaddu12i	$r0,176(0xb0)

Disassembly of section .got:

1c080760 <_GLOBAL_OFFSET_TABLE_>:
1c080760:	00000000 	0x00000000
1c080764:	1c0807a4 	pcaddu12i	$r4,16445(0x403d)
1c080768:	1c0807a8 	pcaddu12i	$r8,16445(0x403d)
1c08076c:	1c0807ac 	pcaddu12i	$r12,16445(0x403d)
1c080770:	1c0807b0 	pcaddu12i	$r16,16445(0x403d)
1c080774:	1c0807b4 	pcaddu12i	$r20,16445(0x403d)
1c080778:	1c082ec4 	pcaddu12i	$r4,16758(0x4176)
1c08077c:	1c082ef4 	pcaddu12i	$r20,16759(0x4177)
1c080780:	1c082ef8 	pcaddu12i	$r24,16759(0x4177)
1c080784:	1c082efc 	pcaddu12i	$r28,16759(0x4177)
1c080788:	1c082f00 	pcaddu12i	$r0,16760(0x4178)
1c08078c:	1c082f01 	pcaddu12i	$r1,16760(0x4178)
1c080790:	1c082f04 	pcaddu12i	$r4,16760(0x4178)
1c080794:	1c082f08 	pcaddu12i	$r8,16760(0x4178)
1c080798:	1c082f38 	pcaddu12i	$r24,16761(0x4179)
1c08079c:	1c083000 	pcaddu12i	$r0,16768(0x4180)

Disassembly of section .bss:

1c0807a0 <Reg>:
__bss_start():
1c0807a0:	00000000 	0x00000000

1c0807a4 <Microseconds>:
1c0807a4:	00000000 	0x00000000

1c0807a8 <Dhrystones_Per_Second>:
1c0807a8:	00000000 	0x00000000

1c0807ac <User_Time>:
1c0807ac:	00000000 	0x00000000

1c0807b0 <Begin_Time>:
1c0807b0:	00000000 	0x00000000

1c0807b4 <Arr_2_Glob>:
	...

1c082ec4 <Next_Rec_Glob>:
	...

1c082ef4 <End_Time>:
1c082ef4:	00000000 	0x00000000

1c082ef8 <Next_Ptr_Glob>:
1c082ef8:	00000000 	0x00000000

1c082efc <Int_Glob>:
1c082efc:	00000000 	0x00000000

1c082f00 <Ch_1_Glob>:
	...

1c082f01 <Ch_2_Glob>:
1c082f01:	 	0x00000000

1c082f04 <Ptr_Glob>:
1c082f04:	00000000 	0x00000000

1c082f08 <Rec_Glob>:
	...

1c082f38 <Arr_1_Glob>:
	...

1c083000 <Bool_Glob>:
1c083000:	00000000 	0x00000000

Disassembly of section .stack:

1c0f0000 <_stack-0xfffc>:
	...

Disassembly of section .comment:

00000000 <.comment>:
   0:	3a434347 	0x3a434347
   4:	6f4c2820 	bgeu	$r1,$r0,-46040(0x34c28) # ffff4c2c <_stack+0xe3ef4c30>
   8:	41676e6f 	beqz	$r19,4024172(0x3d676c) # 3d6774 <__stack_size+0x3c6774>
   c:	20686372 	ll.w	$r18,$r27,26720(0x6860)
  10:	20554e47 	ll.w	$r7,$r18,21836(0x554c)
  14:	6c6f6f74 	bgeu	$r27,$r20,28524(0x6f6c) # 6f80 <__stack_size-0x9080>
  18:	69616863 	bltu	$r3,$r3,90472(0x16168) # 16180 <__stack_size+0x6180>
  1c:	414c206e 	beqz	$r3,3755040(0x394c20) # 394c3c <__stack_size+0x384c3c>
  20:	76203233 	0x76203233
  24:	20302e32 	ll.w	$r18,$r17,12332(0x302c)
  28:	32303228 	0x32303228
  2c:	30393033 	0x30393033
  30:	20292933 	ll.w	$r19,$r9,10536(0x2928)
  34:	2e332e38 	0x2e332e38
  38:	Address 0x0000000000000038 is out of bounds.


Disassembly of section .debug_info:

00000000 <.debug_info>:
   0:	00000268 	0x00000268
   4:	00000004 	0x00000004
   8:	01040000 	0x01040000
   c:	00000018 	0x00000018
  10:	0000b30c 	0x0000b30c
  14:	0000bc00 	0x0000bc00
  18:	00143000 	nor	$r0,$r0,$r12
  1c:	00023c1c 	0x00023c1c
  20:	00000000 	0x00000000
  24:	03040200 	lu52i.d	$r0,$r16,256(0x100)
  28:	000b0704 	0x000b0704
  2c:	04030000 	csrrd	$r0,0xc0
  30:	00000607 	0x00000607
  34:	00e60400 	bstrpick.d	$r0,$r0,0x26,0x1
  38:	01010000 	fadd.d	$f0,$f0,$f0
  3c:	00022805 	0x00022805
  40:	00143000 	nor	$r0,$r0,$r12
  44:	00023c1c 	0x00023c1c
  48:	289c0100 	ld.w	$r0,$r8,1792(0x700)
  4c:	05000002 	0x05000002
  50:	00746d66 	bstrins.w	$r6,$r11,0x14,0x1b
  54:	2f180101 	0x2f180101
  58:	08000002 	0x08000002
  5c:	00000000 	0x00000000
  60:	06000000 	cacop	0x0,$r0,0
  64:	01006907 	0x01006907
  68:	02280503 	slti	$r3,$r8,-1535(0xa01)
  6c:	00710000 	bstrins.w	$r0,$r0,0x11,0x0
  70:	003f0000 	0x003f0000
  74:	63070000 	blt	$r0,$r0,-63744(0x30700) # ffff0774 <_stack+0xe3ef0778>
  78:	06040100 	cacop	0x0,$r8,256(0x100)
  7c:	00000235 	0x00000235
  80:	000001a9 	0x000001a9
  84:	000001a3 	0x000001a3
  88:	67726107 	bge	$r8,$r7,-36256(0x37260) # ffff72e8 <_stack+0xe3ef72ec>
  8c:	08050100 	0x08050100
  90:	00000241 	0x00000241
  94:	000001f6 	0x000001f6
  98:	000001d2 	0x000001d2
  9c:	00706108 	bstrins.w	$r8,$r8,0x10,0x18
  a0:	25070601 	stptr.w	$r1,$r16,1796(0x704)
  a4:	03000000 	lu52i.d	$r0,$r0,0
  a8:	077fbc91 	0x077fbc91
  ac:	07010077 	0x07010077
  b0:	00022805 	0x00022805
  b4:	0002f000 	0x0002f000
  b8:	0002d400 	0x0002d400
  bc:	00000900 	0x00000900
  c0:	10010000 	addu16i.d	$r0,$r0,64(0x40)
  c4:	0014dc01 	and	$r1,$r0,$r23
  c8:	00180a1c 	sra.w	$r28,$r16,$r2
  cc:	01d00000 	0x01d00000
  d0:	a90b0000 	0xa90b0000
  d4:	01000000 	0x01000000
  d8:	02280514 	slti	$r20,$r8,-1535(0xa01)
  dc:	00e40000 	bstrpick.d	$r0,$r0,0x24,0x0
  e0:	00060000 	alsl.wu	$r0,$r0,$r0,0x1
  e4:	0000f10b 	0x0000f10b
  e8:	05190100 	0x05190100
  ec:	00000228 	0x00000228
  f0:	000000f6 	0x000000f6
  f4:	9f0b0006 	0x9f0b0006
  f8:	01000000 	0x01000000
  fc:	0228051e 	slti	$r30,$r8,-1535(0xa01)
 100:	01080000 	0x01080000
 104:	00060000 	alsl.wu	$r0,$r0,$r0,0x1
 108:	00158c0c 	xor	$r12,$r0,$r3
 10c:	0002471c 	0x0002471c
 110:	00012000 	asrtle.d	$r0,$r8
 114:	56010d00 	bl	67240204(0x402010c) # 4020220 <__stack_size+0x4010220>
 118:	010d3201 	fmaxa.d	$f1,$f16,$f12
 11c:	00300157 	0x00300157
 120:	0015a00e 	xor	$r14,$r0,$r8
 124:	0002531c 	0x0002531c
 128:	15bc0c00 	lu12i.w	$r0,-139168(0xde060)
 12c:	02471c00 	sltui	$r0,$r0,455(0x1c7)
 130:	01410000 	0x01410000
 134:	010d0000 	fmaxa.d	$f0,$f0,$f0
 138:	0d3a0156 	0x0d3a0156
 13c:	31015701 	0x31015701
 140:	15d80c00 	lu12i.w	$r0,-81824(0xec060)
 144:	02471c00 	sltui	$r0,$r0,455(0x1c7)
 148:	01590000 	0x01590000
 14c:	010d0000 	fmaxa.d	$f0,$f0,$f0
 150:	0d3a0156 	0x0d3a0156
 154:	30015701 	0x30015701
 158:	15f80c00 	lu12i.w	$r0,-16288(0xfc060)
 15c:	02471c00 	sltui	$r0,$r0,455(0x1c7)
 160:	01720000 	0x01720000
 164:	010d0000 	fmaxa.d	$f0,$f0,$f0
 168:	008b0256 	bstrins.d	$r22,$r18,0xb,0x0
 16c:	0157010d 	0x0157010d
 170:	180c0030 	pcaddi	$r16,24577(0x6001)
 174:	471c0016 	bnez	$r0,-2417664(0x5b1c00) # ffdb1d74 <_stack+0xe3cb1d78>
 178:	8a000002 	0x8a000002
 17c:	0d000001 	fsel	$f1,$f0,$f0,$fcc0
 180:	40015601 	beqz	$r16,262484(0x40154) # 402d4 <__stack_size+0x302d4>
 184:	0157010d 	0x0157010d
 188:	300e0030 	0x300e0030
 18c:	5f1c0016 	bne	$r0,$r22,-58368(0x31c00) # ffff1d8c <_stack+0xe3ef1d90>
 190:	0c000002 	0x0c000002
 194:	1c00164c 	pcaddu12i	$r12,178(0xb2)
 198:	00000247 	0x00000247
 19c:	000001ab 	0x000001ab
 1a0:	0156010d 	0x0156010d
 1a4:	57010d3a 	bl	82510092(0x4eb010c) # 4eb02b0 <__stack_size+0x4ea02b0>
 1a8:	0c003001 	0x0c003001
 1ac:	1c00165c 	pcaddu12i	$r28,178(0xb2)
 1b0:	00000253 	0x00000253
 1b4:	000001bf 	0x000001bf
 1b8:	0254010d 	sltui	$r13,$r8,1280(0x500)
 1bc:	0f002508 	0x0f002508
 1c0:	1c001668 	pcaddu12i	$r8,179(0xb3)
 1c4:	00000253 	0x00000253
 1c8:	0254010d 	sltui	$r13,$r8,1280(0x500)
 1cc:	00002508 	clz.d	$r8,$r8
 1d0:	00000010 	0x00000010
 1d4:	00f10b00 	bstrpick.d	$r0,$r24,0x31,0x2
 1d8:	19010000 	pcaddi	$r0,-522240(0x80800)
 1dc:	00022805 	0x00022805
 1e0:	0001e700 	asrtgt.d	$r24,$r25
 1e4:	11000600 	addu16i.d	$r0,$r16,16385(0x4001)
 1e8:	1c0014bc 	pcaddu12i	$r28,165(0xa5)
 1ec:	00000014 	0x00000014
 1f0:	00000216 	0x00000216
 1f4:	0000f10b 	0x0000f10b
 1f8:	05190100 	0x05190100
 1fc:	00000228 	0x00000228
 200:	00000206 	0x00000206
 204:	c40f0006 	0xc40f0006
 208:	531c0014 	b	5446656(0x531c00) # 531e08 <__stack_size+0x521e08>
 20c:	0d000002 	fsel	$f2,$f0,$f0,$fcc0
 210:	3d015401 	0x3d015401
 214:	9c0f0000 	0x9c0f0000
 218:	531c0014 	b	5446656(0x531c00) # 531e18 <__stack_size+0x521e18>
 21c:	0d000002 	fsel	$f2,$f0,$f0,$fcc0
 220:	87025401 	0x87025401
 224:	00000000 	0x00000000
 228:	69050412 	bltu	$r0,$r18,66820(0x10504) # 1072c <__stack_size+0x72c>
 22c:	1300746e 	addu16i.d	$r14,$r3,-16355(0xc01d)
 230:	00023c04 	0x00023c04
 234:	06010300 	cacop	0x0,$r24,64(0x40)
 238:	000000f4 	0x000000f4
 23c:	00023514 	0x00023514
 240:	25041300 	stptr.w	$r0,$r24,1040(0x410)
 244:	15000000 	lu12i.w	$r0,-524288(0x80000)
 248:	0000009f 	0x0000009f
 24c:	0000009f 	0x0000009f
 250:	15051e01 	lu12i.w	$r1,-513808(0x828f0)
 254:	000000f1 	0x000000f1
 258:	000000f1 	0x000000f1
 25c:	15051901 	lu12i.w	$r1,-513848(0x828c8)
 260:	000000a9 	0x000000a9
 264:	000000a9 	0x000000a9
 268:	00051401 	alsl.w	$r1,$r0,$r5,0x3
 26c:	000000c4 	0x000000c4
 270:	011e0004 	0x011e0004
 274:	01040000 	0x01040000
 278:	00000018 	0x00000018
 27c:	0000f90c 	0x0000f90c
 280:	0000bc00 	0x0000bc00
 284:	00167000 	orn	$r0,$r0,$r28
 288:	0000541c 	bitrev.d	$r28,$r0
 28c:	0001a800 	asrtgt.d	$r0,$r10
 290:	07040200 	0x07040200
 294:	0000000b 	0x0000000b
 298:	06070402 	cacop	0x2,$r0,449(0x1c1)
 29c:	03000000 	lu52i.d	$r0,$r0,0
 2a0:	000000ed 	0x000000ed
 2a4:	01060701 	0x01060701
 2a8:	0000004b 	0x0000004b
 2ac:	01006304 	0x01006304
 2b0:	004b0607 	0x004b0607
 2b4:	05000000 	0x05000000
 2b8:	6e690504 	bgeu	$r8,$r4,-104188(0x26904) # fffe6bbc <_stack+0xe3ee6bc0>
 2bc:	f1060074 	0xf1060074
 2c0:	01000000 	0x01000000
 2c4:	004b0501 	0x004b0501
 2c8:	16700000 	lu32i.d	$r0,229376(0x38000)
 2cc:	00281c00 	0x00281c00
 2d0:	9c010000 	0x9c010000
 2d4:	000000b0 	0x000000b0
 2d8:	01006307 	0x01006307
 2dc:	004b1101 	0x004b1101
 2e0:	03970000 	ori	$r0,$r0,0x5c0
 2e4:	03930000 	ori	$r0,$r0,0x4c0
 2e8:	ed080000 	0xed080000
 2ec:	01000000 	0x01000000
 2f0:	004b0103 	0x004b0103
 2f4:	00900000 	bstrins.d	$r0,$r0,0x10,0x0
 2f8:	00090000 	bytepick.w	$r0,$r0,$r0,0x2
 2fc:	0000330a 	revb.2h	$r10,$r24
 300:	00167000 	orn	$r0,$r0,$r28
 304:	0030021c 	0x0030021c
 308:	03010000 	lu52i.d	$r0,$r0,64(0x40)
 30c:	00400b01 	0x00400b01
 310:	03ba0000 	ori	$r0,$r0,0xe80
 314:	03b80000 	ori	$r0,$r0,0xe00
 318:	00000000 	0x00000000
 31c:	0000330c 	revb.2h	$r12,$r24
 320:	0016a000 	andn	$r0,$r0,$r8
 324:	0000241c 	clz.d	$r28,$r0
 328:	0d9c0100 	0x0d9c0100
 32c:	00000040 	0x00000040
 330:	00005401 	bitrev.d	$r1,$r0
 334:	00000170 	0x00000170
 338:	01ef0004 	0x01ef0004
 33c:	01040000 	0x01040000
 340:	00000018 	0x00000018
 344:	0001030c 	0x0001030c
 348:	0000bc00 	0x0000bc00
 34c:	0016d000 	andn	$r0,$r0,$r20
 350:	0000ac1c 	0x0000ac1c
 354:	00020900 	0x00020900
 358:	07040200 	0x07040200
 35c:	0000000b 	0x0000000b
 360:	06070402 	cacop	0x2,$r0,449(0x1c1)
 364:	03000000 	lu52i.d	$r0,$r0,0
 368:	0000010a 	0x0000010a
 36c:	a9050e01 	0xa9050e01
 370:	50000000 	b	0 # 370 <__stack_size-0xfc90>
 374:	2c1c0017 	vld	$vr23,$r0,1792(0x700)
 378:	01000000 	0x01000000
 37c:	0000a99c 	0x0000a99c
 380:	00730400 	bstrins.w	$r0,$r0,0x13,0x1
 384:	b0100e01 	0xb0100e01
 388:	d1000000 	0xd1000000
 38c:	cd000003 	0xcd000003
 390:	05000003 	0x05000003
 394:	000000f1 	0x000000f1
 398:	a9100601 	0xa9100601
 39c:	71000000 	0x71000000
 3a0:	06000000 	cacop	0x0,$r0,0
 3a4:	175c0700 	lu32i.d	$r0,-335816(0xae038)
 3a8:	00bd1c00 	bstrins.d	$r0,$r0,0x3d,0x7
 3ac:	00860000 	bstrins.d	$r0,$r0,0x6,0x0
 3b0:	01080000 	0x01080000
 3b4:	01f30354 	0x01f30354
 3b8:	64070054 	bge	$r2,$r20,1792(0x700) # ab8 <__stack_size-0xf548>
 3bc:	671c0017 	bge	$r0,$r23,-58368(0x31c00) # ffff1fbc <_stack+0xe3ef1fc0>
 3c0:	99000001 	0x99000001
 3c4:	08000000 	0x08000000
 3c8:	3d015401 	0x3d015401
 3cc:	176c0900 	lu32i.d	$r0,-303032(0xb6048)
 3d0:	01671c00 	0x01671c00
 3d4:	01080000 	0x01080000
 3d8:	003a0154 	0x003a0154
 3dc:	05040a00 	0x05040a00
 3e0:	00746e69 	bstrins.w	$r9,$r19,0x14,0x1b
 3e4:	00b6040b 	bstrins.d	$r11,$r0,0x36,0x1
 3e8:	01020000 	0x01020000
 3ec:	0000f406 	0x0000f406
 3f0:	00a90300 	bstrins.d	$r0,$r24,0x29,0x0
 3f4:	01010000 	fadd.d	$f0,$f0,$f0
 3f8:	0000a905 	0x0000a905
 3fc:	0016d000 	andn	$r0,$r0,$r20
 400:	0000741c 	0x0000741c
 404:	679c0100 	bge	$r8,$r0,-25600(0x39c00) # ffffa004 <_stack+0xe3efa008>
 408:	04000001 	csrrd	$r1,0x0
 40c:	01010073 	fadd.d	$f19,$f3,$f0
 410:	0000b015 	0x0000b015
 414:	0003fc00 	0x0003fc00
 418:	0003f200 	0x0003f200
 41c:	00630c00 	bstrins.w	$r0,$r0,0x3,0x3
 420:	b6060301 	0xb6060301
 424:	41000000 	beqz	$r0,65536(0x10000) # 10424 <__stack_size+0x424>
 428:	3f000004 	0x3f000004
 42c:	0d000004 	fsel	$f4,$f0,$f0,$fcc0
 430:	00000048 	0x00000048
 434:	0000f105 	0x0000f105
 438:	10060100 	addu16i.d	$r0,$r8,384(0x180)
 43c:	000000a9 	0x000000a9
 440:	00000112 	0x00000112
 444:	100e0006 	addu16i.d	$r6,$r0,896(0x380)
 448:	081c0017 	fmadd.s	$f23,$f0,$f0,$f24
 44c:	41000000 	beqz	$r0,65536(0x10000) # 1044c <__stack_size+0x44c>
 450:	05000001 	0x05000001
 454:	000000f1 	0x000000f1
 458:	a9100601 	0xa9100601
 45c:	31000000 	0x31000000
 460:	06000001 	cacop	0x1,$r0,0
 464:	17180900 	lu32i.d	$r0,-475064(0x8c048)
 468:	01671c00 	0x01671c00
 46c:	01080000 	0x01080000
 470:	003d0154 	0x003d0154
 474:	17000700 	lu32i.d	$r0,-524232(0x80038)
 478:	01671c00 	0x01671c00
 47c:	01550000 	0x01550000
 480:	01080000 	0x01080000
 484:	00870254 	bstrins.d	$r20,$r18,0x7,0x0
 488:	17200900 	lu32i.d	$r0,-458680(0x90048)
 48c:	01671c00 	0x01671c00
 490:	01080000 	0x01080000
 494:	00870254 	bstrins.d	$r20,$r18,0x7,0x0
 498:	0f000000 	0x0f000000
 49c:	000000f1 	0x000000f1
 4a0:	000000f1 	0x000000f1
 4a4:	00100601 	add.w	$r1,$r16,$r1
 4a8:	00000177 	0x00000177
 4ac:	02cb0004 	addi.d	$r4,$r0,704(0x2c0)
 4b0:	01040000 	0x01040000
 4b4:	00000018 	0x00000018
 4b8:	00010f0c 	0x00010f0c
 4bc:	0000bc00 	0x0000bc00
 4c0:	00178000 	srl.w	$r0,$r0,$r0
 4c4:	0000ec1c 	0x0000ec1c
 4c8:	0002a100 	0x0002a100
 4cc:	07040200 	0x07040200
 4d0:	0000000b 	0x0000000b
 4d4:	06070402 	cacop	0x2,$r0,449(0x1c1)
 4d8:	03000000 	lu52i.d	$r0,$r0,0
 4dc:	0000009f 	0x0000009f
 4e0:	49050101 	bcnez	$fcc0,328960(0x50500) # 509e0 <__stack_size+0x409e0>
 4e4:	80000001 	0x80000001
 4e8:	ec1c0017 	0xec1c0017
 4ec:	01000000 	0x01000000
 4f0:	0001499c 	0x0001499c
 4f4:	00760400 	bstrins.w	$r0,$r0,0x16,0x1
 4f8:	50140101 	b	67376128(0x4041400) # 40418f8 <__stack_size+0x40318f8>
 4fc:	60000001 	blt	$r0,$r1,0 # 4fc <__stack_size-0xfb04>
 500:	54000004 	bl	1048576(0x100000) # 100500 <__stack_size+0xf0500>
 504:	04000004 	csrrd	$r4,0x0
 508:	01010077 	fadd.d	$f23,$f3,$f0
 50c:	0001491a 	0x0001491a
 510:	0004ba00 	alsl.w	$r0,$r16,$r14,0x2
 514:	0004b000 	alsl.w	$r0,$r0,$r12,0x2
 518:	00a40500 	bstrins.d	$r0,$r8,0x24,0x1
 51c:	01010000 	fadd.d	$f0,$f0,$f0
 520:	00014920 	asrtle.d	$r9,$r18
 524:	00050800 	alsl.w	$r0,$r0,$r2,0x3
 528:	0004fe00 	alsl.w	$r0,$r16,$r31,0x2
 52c:	01210500 	0x01210500
 530:	01010000 	fadd.d	$f0,$f0,$f0
 534:	00014929 	0x00014929
 538:	00055600 	alsl.w	$r0,$r16,$r21,0x3
 53c:	00054c00 	alsl.w	$r0,$r0,$r19,0x3
 540:	00690600 	bstrins.w	$r0,$r16,0x9,0x1
 544:	49060301 	0x49060301
 548:	a7000001 	0xa7000001
 54c:	9b000005 	0x9b000005
 550:	06000005 	cacop	0x5,$r0,0
 554:	0301006a 	lu52i.d	$r10,$r3,64(0x40)
 558:	00014908 	0x00014908
 55c:	00060400 	alsl.wu	$r0,$r0,$r1,0x1
 560:	0005fa00 	alsl.w	$r0,$r16,$r30,0x4
 564:	00630600 	bstrins.w	$r0,$r16,0x3,0x1
 568:	49060401 	bceqz	$fcc0,329220(0x50604) # 50b6c <__stack_size+0x40b6c>
 56c:	53000001 	b	458752(0x70000) # 7056c <__stack_size+0x6056c>
 570:	51000006 	b	1638400(0x190000) # 190570 <__stack_size+0x180570>
 574:	07000006 	0x07000006
 578:	00667562 	bstrins.w	$r2,$r11,0x6,0x1d
 57c:	57070501 	bl	67569412(0x4070704) # 4070c80 <__stack_size+0x4060c80>
 580:	03000001 	lu52i.d	$r1,$r0,0
 584:	087fb091 	0x087fb091
 588:	0000011b 	0x0000011b
 58c:	2c100601 	vld	$vr1,$r16,1025(0x401)
 590:	76000000 	0x76000000
 594:	66000006 	bge	$r0,$r6,-131072(0x20000) # fffe0594 <_stack+0xe3ee0598>
 598:	09000006 	0x09000006
 59c:	1c001840 	pcaddu12i	$r0,194(0xc2)
 5a0:	00000020 	0x00000020
 5a4:	00000123 	0x00000123
 5a8:	0000f10a 	0x0000f10a
 5ac:	020a0100 	slti	$r0,$r8,640(0x280)
 5b0:	00000149 	0x00000149
 5b4:	00000112 	0x00000112
 5b8:	500c000b 	b	2886656(0x2c0c00) # 2c11b8 <__stack_size+0x2b11b8>
 5bc:	6e1c0018 	bgeu	$r0,$r24,-123904(0x21c00) # fffe21bc <_stack+0xe3ee21c0>
 5c0:	0d000001 	fsel	$f1,$f0,$f0,$fcc0
 5c4:	08025401 	0x08025401
 5c8:	0e00002d 	0x0e00002d
 5cc:	1c0017e8 	pcaddu12i	$r8,191(0xbf)
 5d0:	00000030 	0x00000030
 5d4:	0000f10a 	0x0000f10a
 5d8:	020a0100 	slti	$r0,$r8,640(0x280)
 5dc:	00000149 	0x00000149
 5e0:	0000013e 	0x0000013e
 5e4:	180f000b 	pcaddi	$r11,30720(0x7800)
 5e8:	6e1c0018 	bgeu	$r0,$r24,-123904(0x21c00) # fffe21e8 <_stack+0xe3ee21ec>
 5ec:	00000001 	0x00000001
 5f0:	05041000 	0x05041000
 5f4:	00746e69 	bstrins.w	$r9,$r19,0x14,0x1b
 5f8:	26050402 	ldptr.d	$r2,$r0,1284(0x504)
 5fc:	11000001 	addu16i.d	$r1,$r0,16384(0x4000)
 600:	00000167 	0x00000167
 604:	00000167 	0x00000167
 608:	00002512 	clz.d	$r18,$r8
 60c:	02003f00 	slti	$r0,$r24,15(0xf)
 610:	00f40601 	bstrpick.d	$r1,$r16,0x34,0x1
 614:	f1130000 	0xf1130000
 618:	f1000000 	0xf1000000
 61c:	01000000 	0x01000000
 620:	8a00020a 	0x8a00020a
 624:	04000000 	csrrd	$r0,0x0
 628:	0003e900 	0x0003e900
 62c:	18010400 	pcaddi	$r0,2080(0x820)
 630:	0c000000 	0x0c000000
 634:	00000136 	0x00000136
 638:	000000bc 	0x000000bc
 63c:	1c001870 	pcaddu12i	$r16,195(0xc3)
 640:	00000048 	0x00000048
 644:	0000038d 	0x0000038d
 648:	0b070402 	0x0b070402
 64c:	02000000 	slti	$r0,$r0,0
 650:	00060704 	alsl.wu	$r4,$r24,$r1,0x1
 654:	2f030000 	0x2f030000
 658:	01000001 	0x01000001
 65c:	00740105 	bstrins.w	$r5,$r8,0x14,0x0
 660:	18700000 	pcaddi	$r0,229376(0x38000)
 664:	00481c00 	0x00481c00
 668:	9c010000 	0x9c010000
 66c:	00000074 	0x00000074
 670:	00317304 	0x00317304
 674:	7b140501 	0x7b140501
 678:	dc000000 	0xdc000000
 67c:	d6000006 	0xd6000006
 680:	04000006 	csrrd	$r6,0x0
 684:	01003273 	0x01003273
 688:	007b2405 	bstrins.w	$r5,$r0,0x1b,0x9
 68c:	07070000 	0x07070000
 690:	07050000 	0x07050000
 694:	05000000 	0x05000000
 698:	6e690504 	bgeu	$r8,$r4,-104188(0x26904) # fffe6f9c <_stack+0xe3ee6fa0>
 69c:	04060074 	csrxchg	$r20,$r3,0x180
 6a0:	00000088 	0x00000088
 6a4:	f4060102 	0xf4060102
 6a8:	07000000 	0x07000000
 6ac:	00000081 	0x00000081
 6b0:	00024500 	0x00024500
 6b4:	55000400 	bl	65540(0x10004) # 106b8 <__stack_size+0x6b8>
 6b8:	04000004 	csrrd	$r4,0x0
 6bc:	00001801 	cto.w	$r1,$r0
 6c0:	01710c00 	0x01710c00
 6c4:	00bc0000 	bstrins.d	$r0,$r0,0x3c,0x0
 6c8:	18c00000 	pcaddi	$r0,393216(0x60000)
 6cc:	01401c00 	0x01401c00
 6d0:	04000000 	csrrd	$r0,0x0
 6d4:	04020000 	csrrd	$r0,0x80
 6d8:	00000b07 	0x00000b07
 6dc:	07040200 	0x07040200
 6e0:	00000006 	0x00000006
 6e4:	00016003 	0x00016003
 6e8:	17030200 	lu32i.d	$r0,-518128(0x81810)
 6ec:	0000002c 	0x0000002c
 6f0:	69050404 	bltu	$r0,$r4,66820(0x10504) # 10bf4 <__stack_size+0xbf4>
 6f4:	0500746e 	0x0500746e
 6f8:	00000157 	0x00000157
 6fc:	08200210 	fmadd.d	$f16,$f16,$f0,$f0
 700:	00000088 	0x00000088
 704:	00019a06 	0x00019a06
 708:	0b210200 	0x0b210200
 70c:	00000033 	0x00000033
 710:	01a80600 	0x01a80600
 714:	22020000 	ll.d	$r0,$r0,512(0x200)
 718:	0000330b 	revb.2h	$r11,$r24
 71c:	89060400 	0x89060400
 720:	02000001 	slti	$r1,$r0,0
 724:	00330b23 	0x00330b23
 728:	06080000 	cacop	0x0,$r0,512(0x200)
 72c:	00000169 	0x00000169
 730:	330b2402 	0x330b2402
 734:	0c000000 	0x0c000000
 738:	01780700 	0x01780700
 73c:	3c010000 	0x3c010000
 740:	00002c0f 	ctz.d	$r15,$r0
 744:	0019d000 	sra.d	$r0,$r0,$r20
 748:	0000301c 	revb.2h	$r28,$r0
 74c:	da9c0100 	0xda9c0100
 750:	08000000 	0x08000000
 754:	3e01006e 	0x3e01006e
 758:	00002c13 	ctz.d	$r19,$r0
 75c:	00072200 	alsl.wu	$r0,$r16,$r8,0x3
 760:	00071a00 	alsl.wu	$r0,$r16,$r6,0x3
 764:	022e0900 	slti	$r0,$r8,-1150(0xb82)
 768:	19d00000 	pcaddi	$r0,-98304(0xe8000)
 76c:	a8031c00 	0xa8031c00
 770:	01000000 	0x01000000
 774:	a80a093f 	0xa80a093f
 778:	0b000000 	0x0b000000
 77c:	0000023b 	0x0000023b
 780:	00000764 	0x00000764
 784:	00000762 	0x00000762
 788:	07000000 	0x07000000
 78c:	000001a1 	0x000001a1
 790:	2c0f3301 	vld	$vr1,$r24,972(0x3cc)
 794:	a0000000 	0xa0000000
 798:	241c0019 	ldptr.w	$r25,$r0,7168(0x1c00)
 79c:	01000000 	0x01000000
 7a0:	00012c9c 	0x00012c9c
 7a4:	006e0800 	bstrins.w	$r0,$r0,0xe,0x2
 7a8:	2c133501 	vld	$vr1,$r8,1229(0x4cd)
 7ac:	7f000000 	0x7f000000
 7b0:	77000007 	0x77000007
 7b4:	09000007 	0x09000007
 7b8:	0000022e 	0x0000022e
 7bc:	1c0019a0 	pcaddu12i	$r0,205(0xcd)
 7c0:	00009003 	0x00009003
 7c4:	09360100 	0x09360100
 7c8:	0000900a 	0x0000900a
 7cc:	023b0b00 	slti	$r0,$r24,-318(0xec2)
 7d0:	07ba0000 	0x07ba0000
 7d4:	07b80000 	0x07b80000
 7d8:	00000000 	0x00000000
 7dc:	017f0c00 	0x017f0c00
 7e0:	2c010000 	vld	$vr0,$r0,64(0x40)
 7e4:	00002c0f 	ctz.d	$r15,$r0
 7e8:	00014700 	asrtle.d	$r24,$r17
 7ec:	006e0d00 	bstrins.w	$r0,$r8,0xe,0x3
 7f0:	2c132e01 	vld	$vr1,$r16,1227(0x4cb)
 7f4:	00000000 	0x00000000
 7f8:	0001b007 	0x0001b007
 7fc:	0f200100 	0x0f200100
 800:	0000002c 	0x0000002c
 804:	1c001900 	pcaddu12i	$r0,200(0xc8)
 808:	00000084 	0x00000084
 80c:	01bb9c01 	0x01bb9c01
 810:	730e0000 	0x730e0000
 814:	01006c65 	0x01006c65
 818:	003f2120 	0x003f2120
 81c:	07d10000 	0x07d10000
 820:	07cd0000 	0x07cd0000
 824:	740f0000 	0x740f0000
 828:	0100706d 	0x0100706d
 82c:	01bb3620 	0x01bb3620
 830:	55010000 	bl	65792(0x10100) # 10930 <__stack_size+0x930>
 834:	01006e08 	0x01006e08
 838:	002c1322 	alsl.d	$r2,$r25,$r4,0x1
 83c:	07f60000 	0x07f60000
 840:	07f20000 	0x07f20000
 844:	2e090000 	0x2e090000
 848:	00000002 	0x00000002
 84c:	031c0019 	lu52i.d	$r25,$r0,1792(0x700)
 850:	00000078 	0x00000078
 854:	0a092301 	0x0a092301
 858:	00000078 	0x00000078
 85c:	00023b0b 	0x00023b0b
 860:	00081700 	bytepick.w	$r0,$r24,$r5,0x0
 864:	00081500 	bytepick.w	$r0,$r8,$r5,0x0
 868:	00000000 	0x00000000
 86c:	00460410 	0x00460410
 870:	3f110000 	0x3f110000
 874:	01000001 	0x01000001
 878:	002c0f16 	alsl.d	$r22,$r24,$r3,0x1
 87c:	18f00000 	pcaddi	$r0,491520(0x78000)
 880:	00081c00 	bytepick.w	$r0,$r0,$r7,0x0
 884:	9c010000 	0x9c010000
 888:	000001ee 	0x000001ee
 88c:	01006e08 	0x01006e08
 890:	002c1318 	alsl.d	$r24,$r24,$r4,0x1
 894:	082c0000 	fmadd.d	$f0,$f0,$f0,$f24
 898:	082a0000 	fmadd.d	$f0,$f0,$f0,$f20
 89c:	11000000 	addu16i.d	$r0,$r0,16384(0x4000)
 8a0:	0000014d 	0x0000014d
 8a4:	2c0f1101 	vld	$vr1,$r8,964(0x3c4)
 8a8:	c0000000 	0xc0000000
 8ac:	1c1c0018 	pcaddu12i	$r24,57344(0xe000)
 8b0:	01000000 	0x01000000
 8b4:	00022e9c 	0x00022e9c
 8b8:	022e0900 	slti	$r0,$r8,-1150(0xb82)
 8bc:	18c00000 	pcaddi	$r0,393216(0x60000)
 8c0:	60021c00 	blt	$r0,$r0,540(0x21c) # adc <__stack_size-0xf524>
 8c4:	01000000 	0x01000000
 8c8:	600a0d13 	blt	$r8,$r19,2572(0xa0c) # 12d4 <__stack_size-0xed2c>
 8cc:	0b000000 	0x0b000000
 8d0:	0000023b 	0x0000023b
 8d4:	00000841 	0x00000841
 8d8:	0000083f 	0x0000083f
 8dc:	12000000 	addu16i.d	$r0,$r0,-32768(0x8000)
 8e0:	0000014c 	0x0000014c
 8e4:	2c0f0401 	vld	$vr1,$r0,961(0x3c1)
 8e8:	01000000 	0x01000000
 8ec:	00019113 	0x00019113
 8f0:	13060100 	addu16i.d	$r0,$r8,-16000(0xc180)
 8f4:	0000002c 	0x0000002c
	...

Disassembly of section .debug_abbrev:

00000000 <.debug_abbrev>:
   0:	25011101 	stptr.w	$r1,$r8,272(0x110)
   4:	030b130e 	lu52i.d	$r14,$r24,708(0x2c4)
   8:	110e1b0e 	addu16i.d	$r14,$r24,17286(0x4386)
   c:	10061201 	addu16i.d	$r1,$r16,388(0x184)
  10:	02000017 	slti	$r23,$r0,0
  14:	0b0b000f 	0x0b0b000f
  18:	24030000 	ldptr.w	$r0,$r0,768(0x300)
  1c:	3e0b0b00 	0x3e0b0b00
  20:	000e030b 	bytepick.d	$r11,$r24,$r0,0x4
  24:	012e0400 	0x012e0400
  28:	0e03193f 	0x0e03193f
  2c:	0b3b0b3a 	0x0b3b0b3a
  30:	19270b39 	pcaddi	$r25,-444327(0x93859)
  34:	01111349 	fscaleb.d	$f9,$f26,$f4
  38:	18400612 	pcaddi	$r18,131120(0x20030)
  3c:	01194297 	0x01194297
  40:	05000013 	0x05000013
  44:	08030005 	0x08030005
  48:	0b3b0b3a 	0x0b3b0b3a
  4c:	13490b39 	addu16i.d	$r25,$r25,-11710(0xd242)
  50:	42b71702 	beqz	$r24,702228(0xab714) # ab764 <__stack_size+0x9b764>
  54:	06000017 	cacop	0x17,$r0,0
  58:	00000018 	0x00000018
  5c:	03003407 	lu52i.d	$r7,$r0,13(0xd)
  60:	3b0b3a08 	0x3b0b3a08
  64:	490b390b 	bcnez	$fcc0,2951992(0x2d0b38) # 2d0b9c <__stack_size+0x2c0b9c>
  68:	b7170213 	0xb7170213
  6c:	00001742 	clz.w	$r2,$r26
  70:	03003408 	lu52i.d	$r8,$r0,13(0xd)
  74:	3b0b3a08 	0x3b0b3a08
  78:	490b390b 	bcnez	$fcc0,2951992(0x2d0b38) # 2d0bb0 <__stack_size+0x2c0bb0>
  7c:	00180213 	sra.w	$r19,$r16,$r0
  80:	000a0900 	0x000a0900
  84:	0b3a0e03 	0x0b3a0e03
  88:	0b390b3b 	0x0b390b3b
  8c:	00000111 	0x00000111
  90:	55010b0a 	bl	-64421624(0xc290108) # fc290198 <_stack+0xe019019c>
  94:	00130117 	maskeqz	$r23,$r8,$r0
  98:	012e0b00 	0x012e0b00
  9c:	0e03193f 	0x0e03193f
  a0:	0b3b0b3a 	0x0b3b0b3a
  a4:	13490b39 	addu16i.d	$r25,$r25,-11710(0xd242)
  a8:	1301193c 	addu16i.d	$r28,$r9,-16314(0xc046)
  ac:	890c0000 	0x890c0000
  b0:	11010182 	addu16i.d	$r2,$r12,16448(0x4040)
  b4:	01133101 	fcopysign.d	$f1,$f8,$f12
  b8:	0d000013 	fsel	$f19,$f0,$f0,$fcc0
  bc:	0001828a 	0x0001828a
  c0:	42911802 	beqz	$r0,692504(0xa9118) # a91d8 <__stack_size+0x991d8>
  c4:	0e000018 	0x0e000018
  c8:	00018289 	0x00018289
  cc:	13310111 	addu16i.d	$r17,$r8,-13248(0xcc40)
  d0:	890f0000 	0x890f0000
  d4:	11010182 	addu16i.d	$r2,$r12,16448(0x4040)
  d8:	00133101 	maskeqz	$r1,$r8,$r12
  dc:	010b1000 	fmin.d	$f0,$f0,$f4
  e0:	00001755 	clz.w	$r21,$r26
  e4:	11010b11 	addu16i.d	$r17,$r24,16450(0x4042)
  e8:	01061201 	0x01061201
  ec:	12000013 	addu16i.d	$r19,$r0,-32768(0x8000)
  f0:	0b0b0024 	0x0b0b0024
  f4:	08030b3e 	0x08030b3e
  f8:	0f130000 	0x0f130000
  fc:	490b0b00 	0x490b0b00
 100:	14000013 	lu12i.w	$r19,0
 104:	13490026 	addu16i.d	$r6,$r1,-11712(0xd240)
 108:	2e150000 	0x2e150000
 10c:	3c193f00 	0x3c193f00
 110:	030e6e19 	lu52i.d	$r25,$r16,923(0x39b)
 114:	3b0b3a0e 	0x3b0b3a0e
 118:	000b390b 	0x000b390b
 11c:	11010000 	addu16i.d	$r0,$r0,16448(0x4040)
 120:	130e2501 	addu16i.d	$r1,$r8,-15479(0xc389)
 124:	1b0e030b 	pcalau12i	$r11,-495592(0x87018)
 128:	1201110e 	addu16i.d	$r14,$r8,-32700(0x8044)
 12c:	00171006 	sll.w	$r6,$r0,$r4
 130:	00240200 	crc.w.b.w	$r0,$r16,$r0
 134:	0b3e0b0b 	0x0b3e0b0b
 138:	00000e03 	0x00000e03
 13c:	3f012e03 	0x3f012e03
 140:	3a0e0319 	0x3a0e0319
 144:	390b3b0b 	0x390b3b0b
 148:	010b200b 	fmin.d	$f11,$f0,$f8
 14c:	04000013 	csrrd	$r19,0x0
 150:	08030005 	0x08030005
 154:	0b3b0b3a 	0x0b3b0b3a
 158:	13490b39 	addu16i.d	$r25,$r25,-11710(0xd242)
 15c:	24050000 	ldptr.w	$r0,$r0,1280(0x500)
 160:	3e0b0b00 	0x3e0b0b00
 164:	0008030b 	bytepick.w	$r11,$r24,$r0,0x0
 168:	012e0600 	0x012e0600
 16c:	0e03193f 	0x0e03193f
 170:	0b3b0b3a 	0x0b3b0b3a
 174:	19270b39 	pcaddi	$r25,-444327(0x93859)
 178:	01111349 	fscaleb.d	$f9,$f26,$f4
 17c:	18400612 	pcaddi	$r18,131120(0x20030)
 180:	01194297 	0x01194297
 184:	07000013 	0x07000013
 188:	08030005 	0x08030005
 18c:	0b3b0b3a 	0x0b3b0b3a
 190:	13490b39 	addu16i.d	$r25,$r25,-11710(0xd242)
 194:	42b71702 	beqz	$r24,702228(0xab714) # ab8a8 <__stack_size+0x9b8a8>
 198:	08000017 	0x08000017
 19c:	193f012e 	pcaddi	$r14,-395255(0x9f809)
 1a0:	0b3a0e03 	0x0b3a0e03
 1a4:	0b390b3b 	0x0b390b3b
 1a8:	193c1349 	pcaddi	$r9,-401254(0x9e09a)
 1ac:	00001301 	clo.w	$r1,$r24
 1b0:	00001809 	cto.w	$r9,$r0
 1b4:	011d0a00 	0x011d0a00
 1b8:	01521331 	0x01521331
 1bc:	550b42b8 	bl	-85914816(0xae10b40) # fae10cfc <_stack+0xded10d00>
 1c0:	590b5817 	beq	$r0,$r23,68440(0x10b58) # 10d18 <__stack_size+0xd18>
 1c4:	000b570b 	0x000b570b
 1c8:	00050b00 	alsl.w	$r0,$r24,$r2,0x3
 1cc:	17021331 	lu32i.d	$r17,-520039(0x81099)
 1d0:	001742b7 	sll.w	$r23,$r21,$r16
 1d4:	012e0c00 	0x012e0c00
 1d8:	01111331 	fscaleb.d	$f17,$f25,$f4
 1dc:	18400612 	pcaddi	$r18,131120(0x20030)
 1e0:	00194297 	srl.d	$r23,$r20,$r16
 1e4:	00050d00 	alsl.w	$r0,$r8,$r3,0x3
 1e8:	18021331 	pcaddi	$r17,4249(0x1099)
 1ec:	01000000 	0x01000000
 1f0:	0e250111 	0x0e250111
 1f4:	0e030b13 	0x0e030b13
 1f8:	01110e1b 	fscaleb.d	$f27,$f16,$f3
 1fc:	17100612 	lu32i.d	$r18,-491472(0x88030)
 200:	24020000 	ldptr.w	$r0,$r0,512(0x200)
 204:	3e0b0b00 	0x3e0b0b00
 208:	000e030b 	bytepick.d	$r11,$r24,$r0,0x4
 20c:	012e0300 	0x012e0300
 210:	0e03193f 	0x0e03193f
 214:	0b3b0b3a 	0x0b3b0b3a
 218:	19270b39 	pcaddi	$r25,-444327(0x93859)
 21c:	01111349 	fscaleb.d	$f9,$f26,$f4
 220:	18400612 	pcaddi	$r18,131120(0x20030)
 224:	01194297 	0x01194297
 228:	04000013 	csrrd	$r19,0x0
 22c:	08030005 	0x08030005
 230:	0b3b0b3a 	0x0b3b0b3a
 234:	13490b39 	addu16i.d	$r25,$r25,-11710(0xd242)
 238:	42b71702 	beqz	$r24,702228(0xab714) # ab94c <__stack_size+0x9b94c>
 23c:	05000017 	0x05000017
 240:	193f012e 	pcaddi	$r14,-395255(0x9f809)
 244:	0b3a0e03 	0x0b3a0e03
 248:	0b390b3b 	0x0b390b3b
 24c:	193c1349 	pcaddi	$r9,-401254(0x9e09a)
 250:	00001301 	clo.w	$r1,$r24
 254:	00001806 	cto.w	$r6,$r0
 258:	82890700 	0x82890700
 25c:	01110101 	fscaleb.d	$f1,$f8,$f0
 260:	13011331 	addu16i.d	$r17,$r25,-16316(0xc044)
 264:	8a080000 	0x8a080000
 268:	02000182 	slti	$r2,$r12,0
 26c:	18429118 	pcaddi	$r24,136328(0x21488)
 270:	89090000 	0x89090000
 274:	11010182 	addu16i.d	$r2,$r12,16448(0x4040)
 278:	00133101 	maskeqz	$r1,$r8,$r12
 27c:	00240a00 	crc.w.b.w	$r0,$r16,$r2
 280:	0b3e0b0b 	0x0b3e0b0b
 284:	00000803 	0x00000803
 288:	0b000f0b 	0x0b000f0b
 28c:	0013490b 	maskeqz	$r11,$r8,$r18
 290:	00340c00 	0x00340c00
 294:	0b3a0803 	0x0b3a0803
 298:	0b390b3b 	0x0b390b3b
 29c:	17021349 	lu32i.d	$r9,-520038(0x8109a)
 2a0:	001742b7 	sll.w	$r23,$r21,$r16
 2a4:	010b0d00 	fmin.d	$f0,$f8,$f3
 2a8:	00001755 	clz.w	$r21,$r26
 2ac:	11010b0e 	addu16i.d	$r14,$r24,16450(0x4042)
 2b0:	01061201 	0x01061201
 2b4:	0f000013 	0x0f000013
 2b8:	193f002e 	pcaddi	$r14,-395263(0x9f801)
 2bc:	0e6e193c 	0x0e6e193c
 2c0:	0b3a0e03 	0x0b3a0e03
 2c4:	0b390b3b 	0x0b390b3b
 2c8:	01000000 	0x01000000
 2cc:	0e250111 	0x0e250111
 2d0:	0e030b13 	0x0e030b13
 2d4:	01110e1b 	fscaleb.d	$f27,$f16,$f3
 2d8:	17100612 	lu32i.d	$r18,-491472(0x88030)
 2dc:	24020000 	ldptr.w	$r0,$r0,512(0x200)
 2e0:	3e0b0b00 	0x3e0b0b00
 2e4:	000e030b 	bytepick.d	$r11,$r24,$r0,0x4
 2e8:	012e0300 	0x012e0300
 2ec:	0e03193f 	0x0e03193f
 2f0:	0b3b0b3a 	0x0b3b0b3a
 2f4:	19270b39 	pcaddi	$r25,-444327(0x93859)
 2f8:	01111349 	fscaleb.d	$f9,$f26,$f4
 2fc:	18400612 	pcaddi	$r18,131120(0x20030)
 300:	01194297 	0x01194297
 304:	04000013 	csrrd	$r19,0x0
 308:	08030005 	0x08030005
 30c:	0b3b0b3a 	0x0b3b0b3a
 310:	13490b39 	addu16i.d	$r25,$r25,-11710(0xd242)
 314:	42b71702 	beqz	$r24,702228(0xab714) # aba28 <__stack_size+0x9ba28>
 318:	05000017 	0x05000017
 31c:	0e030005 	0x0e030005
 320:	0b3b0b3a 	0x0b3b0b3a
 324:	13490b39 	addu16i.d	$r25,$r25,-11710(0xd242)
 328:	42b71702 	beqz	$r24,702228(0xab714) # aba3c <__stack_size+0x9ba3c>
 32c:	06000017 	cacop	0x17,$r0,0
 330:	08030034 	0x08030034
 334:	0b3b0b3a 	0x0b3b0b3a
 338:	13490b39 	addu16i.d	$r25,$r25,-11710(0xd242)
 33c:	42b71702 	beqz	$r24,702228(0xab714) # aba50 <__stack_size+0x9ba50>
 340:	07000017 	0x07000017
 344:	08030034 	0x08030034
 348:	0b3b0b3a 	0x0b3b0b3a
 34c:	13490b39 	addu16i.d	$r25,$r25,-11710(0xd242)
 350:	00001802 	cto.w	$r2,$r0
 354:	03003408 	lu52i.d	$r8,$r0,13(0xd)
 358:	3b0b3a0e 	0x3b0b3a0e
 35c:	490b390b 	bcnez	$fcc0,2951992(0x2d0b38) # 2d0e94 <__stack_size+0x2c0e94>
 360:	b7170213 	0xb7170213
 364:	00001742 	clz.w	$r2,$r26
 368:	11010b09 	addu16i.d	$r9,$r24,16450(0x4042)
 36c:	01061201 	0x01061201
 370:	0a000013 	0x0a000013
 374:	193f012e 	pcaddi	$r14,-395255(0x9f809)
 378:	0b3a0e03 	0x0b3a0e03
 37c:	0b390b3b 	0x0b390b3b
 380:	193c1349 	pcaddi	$r9,-401254(0x9e09a)
 384:	00001301 	clo.w	$r1,$r24
 388:	0000180b 	cto.w	$r11,$r0
 38c:	82890c00 	0x82890c00
 390:	01110101 	fscaleb.d	$f1,$f8,$f0
 394:	00001331 	clo.w	$r17,$r25
 398:	01828a0d 	0x01828a0d
 39c:	91180200 	0x91180200
 3a0:	00001842 	cto.w	$r2,$r2
 3a4:	11010b0e 	addu16i.d	$r14,$r24,16450(0x4042)
 3a8:	00061201 	alsl.wu	$r1,$r16,$r4,0x1
 3ac:	82890f00 	0x82890f00
 3b0:	01110001 	fscaleb.d	$f1,$f0,$f0
 3b4:	00001331 	clo.w	$r17,$r25
 3b8:	0b002410 	0x0b002410
 3bc:	030b3e0b 	lu52i.d	$r11,$r16,719(0x2cf)
 3c0:	11000008 	addu16i.d	$r8,$r0,16384(0x4000)
 3c4:	13490101 	addu16i.d	$r1,$r8,-11712(0xd240)
 3c8:	00001301 	clo.w	$r1,$r24
 3cc:	49002112 	bcnez	$fcc0,-3604448(0x490020) # ffc903ec <_stack+0xe3b903f0>
 3d0:	000b2f13 	0x000b2f13
 3d4:	002e1300 	0x002e1300
 3d8:	193c193f 	pcaddi	$r31,-401207(0x9e0c9)
 3dc:	0e030e6e 	0x0e030e6e
 3e0:	0b3b0b3a 	0x0b3b0b3a
 3e4:	00000b39 	0x00000b39
 3e8:	01110100 	fscaleb.d	$f0,$f8,$f0
 3ec:	0b130e25 	0x0b130e25
 3f0:	0e1b0e03 	0x0e1b0e03
 3f4:	06120111 	cacop	0x11,$r8,1152(0x480)
 3f8:	00001710 	clz.w	$r16,$r24
 3fc:	0b002402 	0x0b002402
 400:	030b3e0b 	lu52i.d	$r11,$r16,719(0x2cf)
 404:	0300000e 	lu52i.d	$r14,$r0,0
 408:	193f012e 	pcaddi	$r14,-395255(0x9f809)
 40c:	0b3a0e03 	0x0b3a0e03
 410:	0b390b3b 	0x0b390b3b
 414:	13491927 	addu16i.d	$r7,$r9,-11706(0xd246)
 418:	06120111 	cacop	0x11,$r8,1152(0x480)
 41c:	42971840 	beqz	$r2,169752(0x29718) # 29b34 <__stack_size+0x19b34>
 420:	00130119 	maskeqz	$r25,$r8,$r0
 424:	00050400 	alsl.w	$r0,$r0,$r1,0x3
 428:	0b3a0803 	0x0b3a0803
 42c:	0b390b3b 	0x0b390b3b
 430:	17021349 	lu32i.d	$r9,-520038(0x8109a)
 434:	001742b7 	sll.w	$r23,$r21,$r16
 438:	00240500 	crc.w.b.w	$r0,$r8,$r1
 43c:	0b3e0b0b 	0x0b3e0b0b
 440:	00000803 	0x00000803
 444:	0b000f06 	0x0b000f06
 448:	0013490b 	maskeqz	$r11,$r8,$r18
 44c:	00260700 	crcc.w.b.w	$r0,$r24,$r1
 450:	00001349 	clo.w	$r9,$r26
 454:	01110100 	fscaleb.d	$f0,$f8,$f0
 458:	0b130e25 	0x0b130e25
 45c:	0e1b0e03 	0x0e1b0e03
 460:	06120111 	cacop	0x11,$r8,1152(0x480)
 464:	00001710 	clz.w	$r16,$r24
 468:	0b002402 	0x0b002402
 46c:	030b3e0b 	lu52i.d	$r11,$r16,719(0x2cf)
 470:	0300000e 	lu52i.d	$r14,$r0,0
 474:	0e030016 	0x0e030016
 478:	0b3b0b3a 	0x0b3b0b3a
 47c:	13490b39 	addu16i.d	$r25,$r25,-11710(0xd242)
 480:	24040000 	ldptr.w	$r0,$r0,1024(0x400)
 484:	3e0b0b00 	0x3e0b0b00
 488:	0008030b 	bytepick.w	$r11,$r24,$r0,0x0
 48c:	01130500 	fcopysign.d	$f0,$f8,$f1
 490:	0b0b0e03 	0x0b0b0e03
 494:	0b3b0b3a 	0x0b3b0b3a
 498:	13010b39 	addu16i.d	$r25,$r25,-16318(0xc042)
 49c:	0d060000 	0x0d060000
 4a0:	3a0e0300 	0x3a0e0300
 4a4:	390b3b0b 	0x390b3b0b
 4a8:	3813490b 	0x3813490b
 4ac:	0700000b 	0x0700000b
 4b0:	193f012e 	pcaddi	$r14,-395255(0x9f809)
 4b4:	0b3a0e03 	0x0b3a0e03
 4b8:	0b390b3b 	0x0b390b3b
 4bc:	13491927 	addu16i.d	$r7,$r9,-11706(0xd246)
 4c0:	06120111 	cacop	0x11,$r8,1152(0x480)
 4c4:	42971840 	beqz	$r2,169752(0x29718) # 29bdc <__stack_size+0x19bdc>
 4c8:	00130119 	maskeqz	$r25,$r8,$r0
 4cc:	00340800 	0x00340800
 4d0:	0b3a0803 	0x0b3a0803
 4d4:	0b390b3b 	0x0b390b3b
 4d8:	17021349 	lu32i.d	$r9,-520038(0x8109a)
 4dc:	001742b7 	sll.w	$r23,$r21,$r16
 4e0:	011d0900 	0x011d0900
 4e4:	01521331 	0x01521331
 4e8:	550b42b8 	bl	-85914816(0xae10b40) # fae11028 <_stack+0xded1102c>
 4ec:	590b5817 	beq	$r0,$r23,68440(0x10b58) # 11044 <__stack_size+0x1044>
 4f0:	000b570b 	0x000b570b
 4f4:	010b0a00 	fmin.d	$f0,$f16,$f2
 4f8:	00001755 	clz.w	$r21,$r26
 4fc:	3100340b 	0x3100340b
 500:	b7170213 	0xb7170213
 504:	00001742 	clz.w	$r2,$r26
 508:	3f012e0c 	0x3f012e0c
 50c:	3a0e0319 	0x3a0e0319
 510:	390b3b0b 	0x390b3b0b
 514:	0113490b 	fcopysign.d	$f11,$f8,$f18
 518:	0d000013 	fsel	$f19,$f0,$f0,$fcc0
 51c:	08030034 	0x08030034
 520:	0b3b0b3a 	0x0b3b0b3a
 524:	13490b39 	addu16i.d	$r25,$r25,-11710(0xd242)
 528:	050e0000 	0x050e0000
 52c:	3a080300 	0x3a080300
 530:	390b3b0b 	0x390b3b0b
 534:	0213490b 	slti	$r11,$r8,1234(0x4d2)
 538:	1742b717 	lu32i.d	$r23,-387656(0xa15b8)
 53c:	050f0000 	0x050f0000
 540:	3a080300 	0x3a080300
 544:	390b3b0b 	0x390b3b0b
 548:	0213490b 	slti	$r11,$r8,1234(0x4d2)
 54c:	10000018 	addu16i.d	$r24,$r0,0
 550:	0b0b000f 	0x0b0b000f
 554:	00001349 	clo.w	$r9,$r26
 558:	3f012e11 	0x3f012e11
 55c:	3a0e0319 	0x3a0e0319
 560:	390b3b0b 	0x390b3b0b
 564:	1113490b 	addu16i.d	$r11,$r8,17618(0x44d2)
 568:	40061201 	beqz	$r16,263696(0x40610) # 40b78 <__stack_size+0x30b78>
 56c:	19429718 	pcaddi	$r24,-387912(0xa14b8)
 570:	00001301 	clo.w	$r1,$r24
 574:	3f012e12 	0x3f012e12
 578:	3a0e0319 	0x3a0e0319
 57c:	390b3b0b 	0x390b3b0b
 580:	2013490b 	ll.w	$r11,$r8,4936(0x1348)
 584:	1300000b 	addu16i.d	$r11,$r0,-16384(0xc000)
 588:	0e030034 	0x0e030034
 58c:	0b3b0b3a 	0x0b3b0b3a
 590:	13490b39 	addu16i.d	$r25,$r25,-11710(0xd242)
 594:	Address 0x0000000000000594 is out of bounds.


Disassembly of section .debug_loc:

00000000 <.debug_loc>:
	...
   c:	00000064 	0x00000064
  10:	64540001 	bge	$r0,$r1,21504(0x5400) # 5410 <__stack_size-0xabf0>
  14:	cc000000 	0xcc000000
  18:	01000000 	0x01000000
  1c:	00cc6900 	bstrpick.d	$r0,$r8,0xc,0x1a
  20:	00f80000 	bstrpick.d	$r0,$r0,0x38,0x0
  24:	00040000 	alsl.w	$r0,$r0,$r0,0x1
  28:	9f5401f3 	0x9f5401f3
  2c:	000000f8 	0x000000f8
  30:	0000023c 	0x0000023c
  34:	00690001 	bstrins.w	$r1,$r0,0x9,0x0
  38:	00000000 	0x00000000
  3c:	02000000 	slti	$r0,$r0,0
  40:	00000000 	0x00000000
  44:	00000101 	0x00000101
  48:	00000000 	0x00000000
  4c:	02020000 	slti	$r0,$r0,128(0x80)
  50:	02020000 	slti	$r0,$r0,128(0x80)
  54:	02020000 	slti	$r0,$r0,128(0x80)
  58:	02020000 	slti	$r0,$r0,128(0x80)
  5c:	02020000 	slti	$r0,$r0,128(0x80)
  60:	02020000 	slti	$r0,$r0,128(0x80)
  64:	02020000 	slti	$r0,$r0,128(0x80)
  68:	02020000 	slti	$r0,$r0,128(0x80)
  6c:	01010000 	fadd.d	$f0,$f0,$f0
  70:	00004800 	bitrev.4b	$r0,$r0
  74:	00006400 	rdtimeh.w	$r0,$r0
  78:	30000200 	0x30000200
  7c:	0000649f 	rdtimeh.w	$r31,$r4
  80:	0000cc00 	0x0000cc00
  84:	68000100 	bltu	$r8,$r0,0 # 84 <__stack_size-0xff7c>
  88:	000000f8 	0x000000f8
  8c:	000000f8 	0x000000f8
  90:	f8680001 	0xf8680001
  94:	04000000 	csrrd	$r0,0x0
  98:	03000001 	lu52i.d	$r1,$r0,0
  9c:	9f018800 	0x9f018800
  a0:	00000104 	0x00000104
  a4:	00000120 	0x00000120
  a8:	20680001 	ll.w	$r1,$r0,26624(0x6800)
  ac:	3c000001 	0x3c000001
  b0:	03000001 	lu52i.d	$r1,$r0,0
  b4:	9f7f8800 	0x9f7f8800
  b8:	0000013c 	0x0000013c
  bc:	00000158 	0x00000158
  c0:	58680001 	beq	$r0,$r1,26624(0x6800) # 68c0 <__stack_size-0x9740>
  c4:	5c000001 	bne	$r0,$r1,0 # c4 <__stack_size-0xff3c>
  c8:	03000001 	lu52i.d	$r1,$r0,0
  cc:	9f7f8800 	0x9f7f8800
  d0:	0000015c 	0x0000015c
  d4:	00000168 	0x00000168
  d8:	68680001 	bltu	$r0,$r1,26624(0x6800) # 68d8 <__stack_size-0x9728>
  dc:	70000001 	vseq.b	$vr1,$vr0,$vr0
  e0:	03000001 	lu52i.d	$r1,$r0,0
  e4:	9f7f8800 	0x9f7f8800
  e8:	00000170 	0x00000170
  ec:	00000188 	0x00000188
  f0:	88680001 	0x88680001
  f4:	8c000001 	0x8c000001
  f8:	03000001 	lu52i.d	$r1,$r0,0
  fc:	9f7f8800 	0x9f7f8800
 100:	0000018c 	0x0000018c
 104:	000001a4 	0x000001a4
 108:	a4680001 	0xa4680001
 10c:	a8000001 	0xa8000001
 110:	03000001 	lu52i.d	$r1,$r0,0
 114:	9f7e8800 	0x9f7e8800
 118:	000001a8 	0x000001a8
 11c:	000001c4 	0x000001c4
 120:	c4680001 	0xc4680001
 124:	c8000001 	0xc8000001
 128:	03000001 	lu52i.d	$r1,$r0,0
 12c:	9f7f8800 	0x9f7f8800
 130:	000001c8 	0x000001c8
 134:	000001e4 	0x000001e4
 138:	e4680001 	0xe4680001
 13c:	e8000001 	0xe8000001
 140:	03000001 	lu52i.d	$r1,$r0,0
 144:	9f7f8800 	0x9f7f8800
 148:	000001e8 	0x000001e8
 14c:	000001f8 	0x000001f8
 150:	f8680001 	0xf8680001
 154:	00000001 	0x00000001
 158:	03000002 	lu52i.d	$r2,$r0,0
 15c:	9f7f8800 	0x9f7f8800
 160:	00000200 	0x00000200
 164:	00000218 	0x00000218
 168:	18680001 	pcaddi	$r1,212992(0x34000)
 16c:	1c000002 	pcaddu12i	$r2,0
 170:	03000002 	lu52i.d	$r2,$r0,0
 174:	9f7f8800 	0x9f7f8800
 178:	0000021c 	0x0000021c
 17c:	00000228 	0x00000228
 180:	28680001 	ld.h	$r1,$r0,-1536(0xa00)
 184:	2c000002 	vld	$vr2,$r0,0
 188:	03000002 	lu52i.d	$r2,$r0,0
 18c:	9f7f8800 	0x9f7f8800
 190:	0000022c 	0x0000022c
 194:	0000023c 	0x0000023c
 198:	00680001 	bstrins.w	$r1,$r0,0x8,0x0
	...
 1a4:	00000100 	0x00000100
 1a8:	00006400 	rdtimeh.w	$r0,$r0
 1ac:	00007800 	0x00007800
 1b0:	67000100 	bge	$r8,$r0,-65536(0x30000) # ffff01b0 <_stack+0xe3ef01b4>
 1b4:	0000007c 	0x0000007c
 1b8:	000000cc 	0x000000cc
 1bc:	f8670001 	0xf8670001
 1c0:	3c000000 	0x3c000000
 1c4:	01000002 	0x01000002
 1c8:	00006700 	rdtimeh.w	$r0,$r24
 1cc:	00000000 	0x00000000
 1d0:	00010000 	asrtle.d	$r0,$r0
 1d4:	01000000 	0x01000000
 1d8:	01000001 	0x01000001
 1dc:	01000001 	0x01000001
 1e0:	01000001 	0x01000001
 1e4:	01000001 	0x01000001
 1e8:	01000001 	0x01000001
 1ec:	01000001 	0x01000001
 1f0:	01000001 	0x01000001
 1f4:	00480001 	0x00480001
 1f8:	00cc0000 	bstrpick.d	$r0,$r0,0xc,0x0
 1fc:	00010000 	asrtle.d	$r0,$r0
 200:	0000f86a 	0x0000f86a
 204:	00015400 	asrtle.d	$r0,$r21
 208:	6a000100 	bltu	$r8,$r0,-131072(0x20000) # fffe0208 <_stack+0xe3ee020c>
 20c:	00000154 	0x00000154
 210:	0000015c 	0x0000015c
 214:	7c8a0003 	0x7c8a0003
 218:	00015c9f 	0x00015c9f
 21c:	00016c00 	asrtle.d	$r0,$r27
 220:	6a000100 	bltu	$r8,$r0,-131072(0x20000) # fffe0220 <_stack+0xe3ee0224>
 224:	0000016c 	0x0000016c
 228:	00000170 	0x00000170
 22c:	7c8a0003 	0x7c8a0003
 230:	0001709f 	0x0001709f
 234:	00018400 	asrtgt.d	$r0,$r1
 238:	6a000100 	bltu	$r8,$r0,-131072(0x20000) # fffe0238 <_stack+0xe3ee023c>
 23c:	00000184 	0x00000184
 240:	0000018c 	0x0000018c
 244:	7c8a0003 	0x7c8a0003
 248:	00018c9f 	0x00018c9f
 24c:	0001a000 	asrtgt.d	$r0,$r8
 250:	6a000100 	bltu	$r8,$r0,-131072(0x20000) # fffe0250 <_stack+0xe3ee0254>
 254:	000001a0 	0x000001a0
 258:	000001a8 	0x000001a8
 25c:	7c8a0003 	0x7c8a0003
 260:	0001a89f 	0x0001a89f
 264:	0001c000 	asrtgt.d	$r0,$r16
 268:	6a000100 	bltu	$r8,$r0,-131072(0x20000) # fffe0268 <_stack+0xe3ee026c>
 26c:	000001c0 	0x000001c0
 270:	000001c8 	0x000001c8
 274:	7c8a0003 	0x7c8a0003
 278:	0001c89f 	0x0001c89f
 27c:	0001e000 	asrtgt.d	$r0,$r24
 280:	6a000100 	bltu	$r8,$r0,-131072(0x20000) # fffe0280 <_stack+0xe3ee0284>
 284:	000001e0 	0x000001e0
 288:	000001e8 	0x000001e8
 28c:	7c8a0003 	0x7c8a0003
 290:	0001e89f 	0x0001e89f
 294:	0001fc00 	asrtgt.d	$r0,$r31
 298:	6a000100 	bltu	$r8,$r0,-131072(0x20000) # fffe0298 <_stack+0xe3ee029c>
 29c:	000001fc 	0x000001fc
 2a0:	00000200 	0x00000200
 2a4:	7c8a0003 	0x7c8a0003
 2a8:	0002009f 	0x0002009f
 2ac:	00021400 	0x00021400
 2b0:	6a000100 	bltu	$r8,$r0,-131072(0x20000) # fffe02b0 <_stack+0xe3ee02b4>
 2b4:	00000214 	0x00000214
 2b8:	0000021c 	0x0000021c
 2bc:	7c8a0003 	0x7c8a0003
 2c0:	00021c9f 	0x00021c9f
 2c4:	00023c00 	0x00023c00
 2c8:	6a000100 	bltu	$r8,$r0,-131072(0x20000) # fffe02c8 <_stack+0xe3ee02cc>
	...
 2f0:	000000ac 	0x000000ac
 2f4:	000000cc 	0x000000cc
 2f8:	f8550001 	0xf8550001
 2fc:	04000000 	csrrd	$r0,0x0
 300:	01000001 	0x01000001
 304:	01045500 	0x01045500
 308:	01180000 	0x01180000
 30c:	00020000 	0x00020000
 310:	01189f30 	0x01189f30
 314:	011c0000 	0x011c0000
 318:	00010000 	asrtle.d	$r0,$r0
 31c:	00013c55 	0x00013c55
 320:	00015b00 	asrtle.d	$r24,$r22
 324:	55000100 	bl	67174400(0x4010000) # 4010324 <__stack_size+0x4000324>
 328:	00000160 	0x00000160
 32c:	0000016f 	0x0000016f
 330:	74550001 	xvhaddw.d.w	$xr1,$xr0,$xr0
 334:	8b000001 	0x8b000001
 338:	01000001 	0x01000001
 33c:	01905500 	0x01905500
 340:	01a70000 	0x01a70000
 344:	00010000 	asrtle.d	$r0,$r0
 348:	0001ac55 	0x0001ac55
 34c:	0001c700 	asrtgt.d	$r24,$r17
 350:	55000100 	bl	67174400(0x4010000) # 4010350 <__stack_size+0x4000350>
 354:	000001cc 	0x000001cc
 358:	000001e7 	0x000001e7
 35c:	ec550001 	0xec550001
 360:	ff000001 	0xff000001
 364:	01000001 	0x01000001
 368:	02045500 	slti	$r0,$r8,277(0x115)
 36c:	021b0000 	slti	$r0,$r0,1728(0x6c0)
 370:	00010000 	asrtle.d	$r0,$r0
 374:	00022055 	0x00022055
 378:	00022b00 	0x00022b00
 37c:	55000100 	bl	67174400(0x4010000) # 401037c <__stack_size+0x400037c>
 380:	00000230 	0x00000230
 384:	00000237 	0x00000237
 388:	00550001 	0x00550001
	...
 398:	1c000000 	pcaddu12i	$r0,0
 39c:	01000000 	0x01000000
 3a0:	001c5400 	mul.w	$r0,$r0,$r21
 3a4:	00280000 	0x00280000
 3a8:	00040000 	alsl.w	$r0,$r0,$r0,0x1
 3ac:	9f5401f3 	0x9f5401f3
	...
 3b8:	00000002 	0x00000002
 3bc:	00180000 	sra.w	$r0,$r0,$r0
 3c0:	00010000 	asrtle.d	$r0,$r0
 3c4:	00000054 	0x00000054
	...
 3d0:	00008000 	0x00008000
 3d4:	00008b00 	0x00008b00
 3d8:	54000100 	bl	67108864(0x4000000) # 40003d8 <__stack_size+0x3ff03d8>
 3dc:	0000008b 	0x0000008b
 3e0:	000000ac 	0x000000ac
 3e4:	01f30004 	0x01f30004
 3e8:	00009f54 	0x00009f54
	...
 3f4:	00010100 	asrtle.d	$r8,$r0
 3f8:	00010100 	asrtle.d	$r8,$r0
 3fc:	00000000 	0x00000000
 400:	00000028 	0x00000028
 404:	28540001 	ld.h	$r1,$r0,1280(0x500)
 408:	30000000 	0x30000000
 40c:	03000000 	lu52i.d	$r0,$r0,0
 410:	9f7f8800 	0x9f7f8800
 414:	00000030 	0x00000030
 418:	0000003c 	0x0000003c
 41c:	3c680001 	0x3c680001
 420:	50000000 	b	0 # 420 <__stack_size-0xfbe0>
 424:	03000000 	lu52i.d	$r0,$r0,0
 428:	9f7f8800 	0x9f7f8800
 42c:	00000050 	0x00000050
 430:	00000058 	0x00000058
 434:	00680001 	bstrins.w	$r1,$r0,0x8,0x0
	...
 440:	00001800 	cto.w	$r0,$r0
 444:	00006000 	rdtimel.w	$r0,$r0
 448:	67000100 	bge	$r8,$r0,-65536(0x30000) # ffff0448 <_stack+0xe3ef044c>
	...
 464:	00000024 	0x00000024
 468:	24540001 	ldptr.w	$r1,$r0,21504(0x5400)
 46c:	c0000000 	0xc0000000
 470:	04000000 	csrrd	$r0,0x0
 474:	5401f300 	bl	-67108368(0xc0001f0) # fc000664 <_stack+0xdff00668>
 478:	0000c09f 	0x0000c09f
 47c:	0000c400 	0x0000c400
 480:	54000100 	bl	67108864(0x4000000) # 4000480 <__stack_size+0x3ff0480>
 484:	000000c4 	0x000000c4
 488:	000000d4 	0x000000d4
 48c:	d4670001 	0xd4670001
 490:	e0000000 	0xe0000000
 494:	04000000 	csrrd	$r0,0x0
 498:	1f008700 	pcaddu18i	$r0,-523208(0x80438)
 49c:	0000e09f 	0x0000e09f
 4a0:	0000ec00 	0x0000ec00
 4a4:	54000100 	bl	67108864(0x4000000) # 40004a4 <__stack_size+0x3ff04a4>
	...
 4bc:	00240000 	crc.w.b.w	$r0,$r0,$r0
 4c0:	00010000 	asrtle.d	$r0,$r0
 4c4:	00002455 	clz.d	$r21,$r2
 4c8:	0000c000 	0x0000c000
 4cc:	f3000400 	0xf3000400
 4d0:	c09f5501 	0xc09f5501
 4d4:	cf000000 	0xcf000000
 4d8:	01000000 	0x01000000
 4dc:	00cf5500 	bstrpick.d	$r0,$r8,0xf,0x15
 4e0:	00e00000 	bstrpick.d	$r0,$r0,0x20,0x0
 4e4:	00030000 	0x00030000
 4e8:	e07fa891 	0xe07fa891
 4ec:	ec000000 	0xec000000
 4f0:	01000000 	0x01000000
 4f4:	00005500 	bitrev.d	$r0,$r8
	...
 50c:	00000024 	0x00000024
 510:	24560001 	ldptr.w	$r1,$r0,22016(0x5600)
 514:	c0000000 	0xc0000000
 518:	04000000 	csrrd	$r0,0x0
 51c:	5601f300 	bl	-66977296(0xc0201f0) # fc02070c <_stack+0xdff20710>
 520:	0000c09f 	0x0000c09f
 524:	0000cf00 	0x0000cf00
 528:	56000100 	bl	67239936(0x4020000) # 4020528 <__stack_size+0x4010528>
 52c:	000000cf 	0x000000cf
 530:	000000e0 	0x000000e0
 534:	ac910003 	0xac910003
 538:	0000e07f 	0x0000e07f
 53c:	0000ec00 	0x0000ec00
 540:	56000100 	bl	67239936(0x4020000) # 4020540 <__stack_size+0x4010540>
	...
 558:	00240000 	crc.w.b.w	$r0,$r0,$r0
 55c:	00010000 	asrtle.d	$r0,$r0
 560:	00002457 	clz.d	$r23,$r2
 564:	0000c000 	0x0000c000
 568:	f3000400 	0xf3000400
 56c:	c09f5701 	0xc09f5701
 570:	cf000000 	0xcf000000
 574:	01000000 	0x01000000
 578:	00cf5700 	bstrpick.d	$r0,$r24,0xf,0x15
 57c:	00e00000 	bstrpick.d	$r0,$r0,0x20,0x0
 580:	00040000 	alsl.w	$r0,$r0,$r0,0x1
 584:	9f5701f3 	0x9f5701f3
 588:	000000e0 	0x000000e0
 58c:	000000ec 	0x000000ec
 590:	00570001 	0x00570001
 594:	00000000 	0x00000000
 598:	01000000 	0x01000000
	...
 5a4:	20000100 	ll.w	$r0,$r8,0
 5a8:	34000000 	0x34000000
 5ac:	02000000 	slti	$r0,$r0,0
 5b0:	349f3000 	0x349f3000
 5b4:	38000000 	ldx.b	$r0,$r0,$r0
 5b8:	01000000 	0x01000000
 5bc:	00386800 	0x00386800
 5c0:	00580000 	0x00580000
 5c4:	00080000 	bytepick.w	$r0,$r0,$r0,0x0
 5c8:	0091007c 	bstrins.d	$r28,$r3,0x11,0x0
 5cc:	9f50231c 	0x9f50231c
 5d0:	00000058 	0x00000058
 5d4:	00000064 	0x00000064
 5d8:	b8680001 	0xb8680001
 5dc:	c0000000 	0xc0000000
 5e0:	01000000 	0x01000000
 5e4:	00d46800 	bstrpick.d	$r0,$r0,0x14,0x1a
 5e8:	00ec0000 	bstrpick.d	$r0,$r0,0x2c,0x0
 5ec:	00020000 	0x00020000
 5f0:	00009f30 	0x00009f30
	...
 600:	00020000 	0x00020000
 604:	00000070 	0x00000070
 608:	00000094 	0x00000094
 60c:	94670001 	0x94670001
 610:	98000000 	0x98000000
 614:	03000000 	lu52i.d	$r0,$r0,0
 618:	9f018700 	0x9f018700
 61c:	00000098 	0x00000098
 620:	0000009c 	0x0000009c
 624:	bc670001 	0xbc670001
 628:	c0000000 	0xc0000000
 62c:	01000000 	0x01000000
 630:	00e05500 	bstrpick.d	$r0,$r8,0x20,0x15
 634:	00ec0000 	bstrpick.d	$r0,$r0,0x2c,0x0
 638:	000d0000 	bytepick.d	$r0,$r0,$r0,0x2
 63c:	30120075 	vldrepl.d	$vr21,$r3,1024(0x400)
 640:	282b1416 	ld.b	$r22,$r0,-1339(0xac5)
 644:	13160001 	addu16i.d	$r1,$r0,-14976(0xc580)
 648:	0000009f 	0x0000009f
 64c:	00000000 	0x00000000
 650:	84000000 	0x84000000
 654:	90000000 	0x90000000
 658:	01000000 	0x01000000
 65c:	00005c00 	ext.w.b	$r0,$r0
 660:	00000000 	0x00000000
 664:	00010000 	asrtle.d	$r0,$r0
	...
 674:	00200000 	div.w	$r0,$r0,$r0
 678:	00240000 	crc.w.b.w	$r0,$r0,$r0
 67c:	00010000 	asrtle.d	$r0,$r0
 680:	00002454 	clz.d	$r20,$r2
 684:	00003400 	revb.4h	$r0,$r0
 688:	67000100 	bge	$r8,$r0,-65536(0x30000) # ffff0688 <_stack+0xe3ef068c>
 68c:	00000034 	0x00000034
 690:	00000038 	0x00000038
 694:	385d0001 	0x385d0001
 698:	58000000 	beq	$r0,$r0,0 # 698 <__stack_size-0xf968>
 69c:	01000000 	0x01000000
 6a0:	00586700 	0x00586700
 6a4:	00640000 	bstrins.w	$r0,$r0,0x4,0x0
 6a8:	00010000 	asrtle.d	$r0,$r0
 6ac:	0000b85d 	0x0000b85d
 6b0:	0000c000 	0x0000c000
 6b4:	5d000100 	bne	$r8,$r0,65536(0x10000) # 106b4 <__stack_size+0x6b4>
 6b8:	000000d4 	0x000000d4
 6bc:	000000e0 	0x000000e0
 6c0:	e0670001 	0xe0670001
 6c4:	ec000000 	0xec000000
 6c8:	01000000 	0x01000000
 6cc:	00005400 	bitrev.d	$r0,$r0
	...
 6e0:	00000018 	0x00000018
 6e4:	18540001 	pcaddi	$r1,172032(0x2a000)
 6e8:	30000000 	0x30000000
 6ec:	01000000 	0x01000000
 6f0:	003c5400 	0x003c5400
 6f4:	00440000 	0x00440000
 6f8:	00010000 	asrtle.d	$r0,$r0
 6fc:	00000054 	0x00000054
	...
 708:	04000000 	csrrd	$r0,0x0
 70c:	01000000 	0x01000000
 710:	00005500 	bitrev.d	$r0,$r8
 714:	00000000 	0x00000000
 718:	01020000 	0x01020000
 71c:	00030301 	0x00030301
 720:	01100000 	0x01100000
 724:	01200000 	0x01200000
 728:	00020000 	0x00020000
 72c:	01209f30 	0x01209f30
 730:	01200000 	0x01200000
 734:	00010000 	asrtle.d	$r0,$r0
 738:	00012054 	0x00012054
 73c:	00013400 	asrtle.d	$r0,$r13
 740:	74000c00 	xvseq.b	$xr0,$xr0,$xr3
 744:	0825f700 	fmadd.d	$f0,$f24,$f29,$f11
 748:	1b25f764 	pcalau12i	$r4,-446533(0x92fbb)
 74c:	349f00f7 	0x349f00f7
 750:	40000001 	beqz	$r0,262144(0x40000) # 40750 <__stack_size+0x30750>
 754:	01000001 	0x01000001
 758:	00005d00 	ext.w.b	$r0,$r8
 75c:	00000000 	0x00000000
 760:	01000000 	0x01000000
 764:	00000120 	0x00000120
 768:	00000120 	0x00000120
 76c:	00540001 	0x00540001
 770:	00000000 	0x00000000
 774:	02000000 	slti	$r0,$r0,0
 778:	03030101 	lu52i.d	$r1,$r8,192(0xc0)
 77c:	e0000000 	0xe0000000
 780:	f0000000 	0xf0000000
 784:	02000000 	slti	$r0,$r0,0
 788:	f09f3000 	0xf09f3000
 78c:	f0000000 	0xf0000000
 790:	01000000 	0x01000000
 794:	00f05400 	bstrpick.d	$r0,$r0,0x30,0x15
 798:	00fc0000 	bstrpick.d	$r0,$r0,0x3c,0x0
 79c:	00050000 	alsl.w	$r0,$r0,$r0,0x3
 7a0:	1e3a0074 	pcaddu18i	$r20,118787(0x1d003)
 7a4:	0000fc9f 	0x0000fc9f
 7a8:	00010400 	asrtle.d	$r0,$r1
 7ac:	54000100 	bl	67108864(0x4000000) # 40007ac <__stack_size+0x3ff07ac>
	...
 7b8:	00f00100 	bstrpick.d	$r0,$r8,0x30,0x0
 7bc:	00f00000 	bstrpick.d	$r0,$r0,0x30,0x0
 7c0:	00010000 	asrtle.d	$r0,$r0
 7c4:	00000054 	0x00000054
	...
 7d0:	00004000 	revh.2w	$r0,$r0
 7d4:	0000ac00 	0x0000ac00
 7d8:	54000100 	bl	67108864(0x4000000) # 40007d8 <__stack_size+0x3ff07d8>
 7dc:	000000ac 	0x000000ac
 7e0:	000000c4 	0x000000c4
 7e4:	01f30004 	0x01f30004
 7e8:	00009f54 	0x00009f54
 7ec:	00000000 	0x00000000
 7f0:	01020000 	0x01020000
 7f4:	00400001 	0x00400001
 7f8:	00500000 	0x00500000
 7fc:	00020000 	0x00020000
 800:	00509f30 	0x00509f30
 804:	00c40000 	bstrpick.d	$r0,$r0,0x4,0x0
 808:	00010000 	asrtle.d	$r0,$r0
 80c:	0000005f 	0x0000005f
 810:	00000000 	0x00000000
 814:	50010000 	b	256(0x100) # 914 <__stack_size-0xf6ec>
 818:	50000000 	b	0 # 818 <__stack_size-0xf7e8>
 81c:	01000000 	0x01000000
 820:	00005f00 	ext.w.b	$r0,$r24
	...
 82c:	00000034 	0x00000034
 830:	00000038 	0x00000038
 834:	00540001 	0x00540001
	...
 840:	00001001 	clo.w	$r1,$r0
 844:	00001000 	clo.w	$r0,$r0
 848:	54000100 	bl	67108864(0x4000000) # 4000848 <__stack_size+0x3ff0848>
	...

Disassembly of section .debug_aranges:

00000000 <.debug_aranges>:
   0:	0000001c 	0x0000001c
   4:	00000002 	0x00000002
   8:	00040000 	alsl.w	$r0,$r0,$r0,0x1
   c:	00000000 	0x00000000
  10:	1c001430 	pcaddu12i	$r16,161(0xa1)
  14:	0000023c 	0x0000023c
	...
  20:	0000001c 	0x0000001c
  24:	026c0002 	sltui	$r2,$r0,-1280(0xb00)
  28:	00040000 	alsl.w	$r0,$r0,$r0,0x1
  2c:	00000000 	0x00000000
  30:	1c001670 	pcaddu12i	$r16,179(0xb3)
  34:	00000054 	0x00000054
	...
  40:	0000001c 	0x0000001c
  44:	03340002 	lu52i.d	$r2,$r0,-768(0xd00)
  48:	00040000 	alsl.w	$r0,$r0,$r0,0x1
  4c:	00000000 	0x00000000
  50:	1c0016d0 	pcaddu12i	$r16,182(0xb6)
  54:	000000ac 	0x000000ac
	...
  60:	0000001c 	0x0000001c
  64:	04a80002 	csrrd	$r2,0x2a00
  68:	00040000 	alsl.w	$r0,$r0,$r0,0x1
  6c:	00000000 	0x00000000
  70:	1c001780 	pcaddu12i	$r0,188(0xbc)
  74:	000000ec 	0x000000ec
	...
  80:	0000001c 	0x0000001c
  84:	06230002 	cacop	0x2,$r0,-1856(0x8c0)
  88:	00040000 	alsl.w	$r0,$r0,$r0,0x1
  8c:	00000000 	0x00000000
  90:	1c001870 	pcaddu12i	$r16,195(0xc3)
  94:	00000048 	0x00000048
	...
  a0:	0000001c 	0x0000001c
  a4:	06b10002 	0x06b10002
  a8:	00040000 	alsl.w	$r0,$r0,$r0,0x1
  ac:	00000000 	0x00000000
  b0:	1c0018c0 	pcaddu12i	$r0,198(0xc6)
  b4:	00000140 	0x00000140
	...

Disassembly of section .debug_ranges:

00000000 <.debug_ranges>:
   0:	00000064 	0x00000064
   4:	0000006c 	0x0000006c
   8:	00000084 	0x00000084
   c:	000000a0 	0x000000a0
	...
  18:	000000a8 	0x000000a8
  1c:	000000ac 	0x000000ac
  20:	000000f8 	0x000000f8
  24:	0000023c 	0x0000023c
	...
  38:	00000008 	0x00000008
  3c:	00000018 	0x00000018
	...
  48:	00000020 	0x00000020
  4c:	00000030 	0x00000030
  50:	00000038 	0x00000038
  54:	00000050 	0x00000050
	...
  68:	00000008 	0x00000008
  6c:	00000010 	0x00000010
	...
  78:	00000040 	0x00000040
  7c:	00000040 	0x00000040
  80:	00000048 	0x00000048
  84:	00000050 	0x00000050
	...
  90:	000000e0 	0x000000e0
  94:	000000e0 	0x000000e0
  98:	000000e8 	0x000000e8
  9c:	000000f0 	0x000000f0
	...
  a8:	00000110 	0x00000110
  ac:	00000110 	0x00000110
  b0:	00000118 	0x00000118
  b4:	00000120 	0x00000120
	...

Disassembly of section .debug_line:

00000000 <.debug_line>:
   0:	000001a4 	0x000001a4
   4:	001f0002 	mulw.d.w	$r2,$r0,$r0
   8:	01010000 	fadd.d	$f0,$f0,$f0
   c:	000d0efb 	bytepick.d	$r27,$r23,$r3,0x2
  10:	01010101 	fadd.d	$f1,$f8,$f0
  14:	01000000 	0x01000000
  18:	00010000 	asrtle.d	$r0,$r0
  1c:	6e697270 	bgeu	$r19,$r16,-104080(0x26970) # fffe698c <_stack+0xe3ee6990>
  20:	632e6674 	blt	$r19,$r20,-53660(0x32e64) # ffff2e84 <_stack+0xe3ef2e88>
  24:	00000000 	0x00000000
  28:	00010500 	asrtle.d	$r8,$r1
  2c:	14300205 	lu12i.w	$r5,98320(0x18010)
  30:	13131c00 	addu16i.d	$r0,$r0,-15161(0xc4c7)
  34:	13131313 	addu16i.d	$r19,$r24,-15164(0xc4c4)
  38:	7a030613 	0x7a030613
  3c:	05e40801 	0x05e40801
  40:	01058a0c 	0x01058a0c
  44:	4a7a0348 	0x4a7a0348
  48:	4b064208 	0x4b064208
  4c:	05010613 	0x05010613
  50:	c6030603 	0xc6030603
  54:	06ac0800 	0x06ac0800
  58:	00110582 	sub.w	$r2,$r12,$r1
  5c:	03020402 	lu52i.d	$r2,$r0,129(0x81)
  60:	05017fba 	0x05017fba
  64:	0402000c 	csrrd	$r12,0x80
  68:	01054a02 	fmul.d	$f2,$f16,$f18
  6c:	02040200 	slti	$r0,$r16,256(0x100)
  70:	06020582 	cacop	0x2,$r12,129(0x81)
  74:	0405134c 	csrxchg	$r12,$r26,0x144
  78:	03050106 	lu52i.d	$r6,$r8,320(0x140)
  7c:	00c20306 	bstrpick.d	$r6,$r24,0x2,0x0
  80:	06050582 	cacop	0x2,$r12,321(0x141)
  84:	000f0501 	bytepick.d	$r1,$r8,$r1,0x6
  88:	06010402 	cacop	0x2,$r0,65(0x41)
  8c:	06040582 	cacop	0x2,$r12,257(0x101)
  90:	3c084003 	0x3c084003
  94:	054c0305 	0x054c0305
  98:	4a330309 	0x4a330309
  9c:	0603054a 	cacop	0xa,$r10,193(0xc1)
  a0:	06014d03 	cacop	0x3,$r8,83(0x53)
  a4:	030105f2 	lu52i.d	$r18,$r15,65(0x41)
  a8:	3c0800c3 	0x3c0800c3
  ac:	03060505 	lu52i.d	$r5,$r8,385(0x181)
  b0:	0128026d 	0x0128026d
  b4:	1a050106 	pcalau12i	$r6,10248(0x2808)
  b8:	01040200 	0x01040200
  bc:	000505bc 	alsl.w	$r28,$r13,$r1,0x3
  c0:	4a010402 	bceqz	$fcc0,655620(0xa0104) # a01c4 <__stack_size+0x901c4>
  c4:	02000605 	slti	$r5,$r16,1(0x1)
  c8:	f3060304 	0xf3060304
  cc:	02000905 	slti	$r5,$r8,2(0x2)
  d0:	01060304 	0x01060304
  d4:	02002c05 	slti	$r5,$r0,11(0xb)
  d8:	05490304 	0x05490304
  dc:	04020010 	csrrd	$r16,0x80
  e0:	16054a03 	lu32i.d	$r3,10832(0x2a50)
  e4:	03040200 	lu52i.d	$r0,$r16,256(0x100)
  e8:	0010054b 	add.w	$r11,$r10,$r1
  ec:	49030402 	bceqz	$fcc0,590596(0x90304) # 903f0 <__stack_size+0x803f0>
  f0:	02001a05 	slti	$r5,$r16,6(0x6)
  f4:	054a0304 	0x054a0304
  f8:	04020005 	csrrd	$r5,0x80
  fc:	07054a03 	0x07054a03
 100:	03040200 	lu52i.d	$r0,$r16,256(0x100)
 104:	00050583 	alsl.w	$r3,$r12,$r1,0x3
 108:	49030402 	bceqz	$fcc0,590596(0x90304) # 9040c <__stack_size+0x8040c>
 10c:	826f0306 	0x826f0306
 110:	bb060805 	0xbb060805
 114:	054b0605 	0x054b0605
 118:	4b064805 	bceqz	$fcc0,1508936(0x170648) # 170760 <__stack_size+0x160760>
 11c:	64031313 	bge	$r24,$r19,784(0x310) # 42c <__stack_size-0xfbd4>
 120:	0606054a 	cacop	0xa,$r10,385(0x181)
 124:	4908054c 	bcnez	$fcc2,3213316(0x310804) # 310928 <__stack_size+0x300928>
 128:	06490505 	0x06490505
 12c:	5113134b 	b	-47377648(0xd2d1310) # fd2d143c <_stack+0xe11d1440>
 130:	bb060805 	0xbb060805
 134:	054b0605 	0x054b0605
 138:	4b064805 	bceqz	$fcc0,1508936(0x170648) # 170780 <__stack_size+0x160780>
 13c:	11051313 	addu16i.d	$r19,$r24,16708(0x4144)
 140:	0614054c 	cacop	0xc,$r10,1281(0x501)
 144:	4b1205bb 	bcnez	$fcc5,-1109500(0x6f1204) # ffef1348 <_stack+0xe3df134c>
 148:	06481105 	iocsrwr.b	$r5,$r8
 14c:	0513134b 	0x0513134b
 150:	08058405 	0x08058405
 154:	0605bb06 	cacop	0x6,$r24,366(0x16e)
 158:	4805054b 	bcnez	$fcc2,2884868(0x2c0504) # 2c065c <__stack_size+0x2b065c>
 15c:	13134b06 	addu16i.d	$r6,$r24,-15150(0xc4d2)
 160:	0608058a 	cacop	0xa,$r12,513(0x201)
 164:	4b0605bb 	bcnez	$fcc5,-1112572(0x6f0604) # ffef0768 <_stack+0xe3df076c>
 168:	06480505 	iocsrrd.h	$r5,$r8
 16c:	0313134b 	lu52i.d	$r11,$r26,1220(0x4c4)
 170:	06058259 	cacop	0x19,$r18,352(0x160)
 174:	08054c06 	0x08054c06
 178:	49050549 	bcnez	$fcc2,2426116(0x250504) # 25067c <__stack_size+0x24067c>
 17c:	13134b06 	addu16i.d	$r6,$r24,-15150(0xc4d2)
 180:	06080551 	cacop	0x11,$r10,513(0x201)
 184:	4b0605bb 	bcnez	$fcc5,-1112572(0x6f0604) # ffef0788 <_stack+0xe3df078c>
 188:	06480505 	iocsrrd.h	$r5,$r8
 18c:	0313134b 	lu52i.d	$r11,$r26,1220(0x4c4)
 190:	06054a1c 	cacop	0x1c,$r16,338(0x152)
 194:	05054b06 	0x05054b06
 198:	134b0649 	addu16i.d	$r9,$r18,-11583(0xd2c1)
 19c:	05510605 	0x05510605
 1a0:	02831505 	addi.w	$r5,$r8,197(0xc5)
 1a4:	01010004 	fadd.d	$f4,$f0,$f0
 1a8:	0000005d 	0x0000005d
 1ac:	00200002 	div.w	$r2,$r0,$r0
 1b0:	01010000 	fadd.d	$f0,$f0,$f0
 1b4:	000d0efb 	bytepick.d	$r27,$r23,$r3,0x2
 1b8:	01010101 	fadd.d	$f1,$f8,$f0
 1bc:	01000000 	0x01000000
 1c0:	00010000 	asrtle.d	$r0,$r0
 1c4:	63747570 	blt	$r11,$r16,-35724(0x37474) # ffff7638 <_stack+0xe3ef763c>
 1c8:	2e726168 	0x2e726168
 1cc:	00000063 	0x00000063
 1d0:	01050000 	fmul.d	$f0,$f0,$f0
 1d4:	70020500 	vsle.b	$vr0,$vr8,$vr1
 1d8:	131c0016 	addu16i.d	$r22,$r0,-14592(0xc700)
 1dc:	16060513 	lu32i.d	$r19,12328(0x3028)
 1e0:	05140505 	0x05140505
 1e4:	79030601 	0x79030601
 1e8:	89050501 	0x89050501
 1ec:	060105f2 	cacop	0x12,$r15,65(0x41)
 1f0:	4a13060d 	0x4a13060d
 1f4:	053f0806 	0x053f0806
 1f8:	01051305 	fmul.d	$f5,$f24,$f4
 1fc:	05051106 	0x05051106
 200:	f9010583 	0xf9010583
 204:	01000c02 	0x01000c02
 208:	00009401 	0x00009401
 20c:	1d000200 	pcaddu12i	$r0,-524272(0x80010)
 210:	01000000 	0x01000000
 214:	0d0efb01 	0x0d0efb01
 218:	01010100 	fadd.d	$f0,$f8,$f0
 21c:	00000001 	0x00000001
 220:	01000001 	0x01000001
 224:	74757000 	xvmax.wu	$xr0,$xr0,$xr28
 228:	00632e73 	bstrins.w	$r19,$r19,0x3,0xb
 22c:	00000000 	0x00000000
 230:	05000105 	0x05000105
 234:	0016d002 	andn	$r2,$r0,$r20
 238:	1313131c 	addu16i.d	$r28,$r24,-15164(0xc4c4)
 23c:	09051006 	0x09051006
 240:	06053e08 	cacop	0x8,$r16,335(0x14f)
 244:	8404054a 	0x8404054a
 248:	83060205 	0x83060205
 24c:	05010683 	0x05010683
 250:	06050e09 	cacop	0x9,$r16,323(0x143)
 254:	0602054a 	cacop	0xa,$r10,129(0x81)
 258:	0603054c 	cacop	0xc,$r10,193(0xc1)
 25c:	48040514 	bcnez	$fcc0,-3144700(0x500404) # ffd00660 <_stack+0xe3c00664>
 260:	02001005 	slti	$r5,$r0,4(0x4)
 264:	4a060104 	bcnez	$fcc0,1181184(0x120600) # 120864 <__stack_size+0x110864>
 268:	02000205 	slti	$r5,$r16,0
 26c:	00830104 	bstrins.d	$r4,$r8,0x3,0x0
 270:	83010402 	0x83010402
 274:	01040200 	0x01040200
 278:	09050106 	0x09050106
 27c:	01040200 	0x01040200
 280:	0006050e 	alsl.wu	$r14,$r8,$r1,0x1
 284:	4a010402 	bceqz	$fcc0,655620(0xa0104) # a0388 <__stack_size+0x90388>
 288:	50060105 	b	68421120(0x4140600) # 4140888 <__stack_size+0x4130888>
 28c:	06821306 	0x06821306
 290:	0613e808 	cacop	0x8,$r0,1274(0x4fa)
 294:	4b068311 	0x4b068311
 298:	13068383 	addu16i.d	$r3,$r28,-15968(0xc1a0)
 29c:	01001002 	0x01001002
 2a0:	0000e801 	0x0000e801
 2a4:	22000200 	ll.d	$r0,$r16,0
 2a8:	01000000 	0x01000000
 2ac:	0d0efb01 	0x0d0efb01
 2b0:	01010100 	fadd.d	$f0,$f8,$f0
 2b4:	00000001 	0x00000001
 2b8:	01000001 	0x01000001
 2bc:	69727000 	bltu	$r0,$r0,94832(0x17270) # 1752c <__stack_size+0x752c>
 2c0:	6162746e 	blt	$r3,$r14,90740(0x16274) # 16534 <__stack_size+0x6534>
 2c4:	632e6573 	blt	$r11,$r19,-53660(0x32e64) # ffff3128 <_stack+0xe3ef312c>
 2c8:	00000000 	0x00000000
 2cc:	00010500 	asrtle.d	$r8,$r1
 2d0:	17800205 	lu32i.d	$r5,-262128(0xc0010)
 2d4:	05131c00 	0x05131c00
 2d8:	13131302 	addu16i.d	$r2,$r24,-15164(0xc4c4)
 2dc:	01051313 	fmul.d	$f19,$f24,$f4
 2e0:	3c080d06 	0x3c080d06
 2e4:	054f0405 	0x054f0405
 2e8:	0402000a 	csrrd	$r10,0x80
 2ec:	07054a01 	0x07054a01
 2f0:	02054f06 	slti	$r6,$r24,339(0x153)
 2f4:	054a1406 	0x054a1406
 2f8:	0205f507 	slti	$r7,$r8,381(0x17d)
 2fc:	03040200 	lu52i.d	$r0,$r16,256(0x100)
 300:	0e054906 	0x0e054906
 304:	03040200 	lu52i.d	$r0,$r16,256(0x100)
 308:	08050106 	0x08050106
 30c:	03040200 	lu52i.d	$r0,$r16,256(0x100)
 310:	000205ba 	0x000205ba
 314:	06030402 	cacop	0x2,$r0,193(0xc1)
 318:	0007054b 	alsl.wu	$r11,$r10,$r1,0x3
 31c:	06030402 	cacop	0x2,$r0,193(0xc1)
 320:	0402004a 	csrxchg	$r10,$r2,0x80
 324:	0205ba03 	slti	$r3,$r16,366(0x16e)
 328:	03040200 	lu52i.d	$r0,$r16,256(0x100)
 32c:	05520647 	0x05520647
 330:	4a010607 	0x4a010607
 334:	064d0305 	0x064d0305
 338:	060e0581 	cacop	0x1,$r12,897(0x381)
 33c:	ba0a0501 	0xba0a0501
 340:	01040200 	0x01040200
 344:	0003054a 	0x0003054a
 348:	06010402 	cacop	0x2,$r0,65(0x41)
 34c:	0402004b 	csrxchg	$r11,$r2,0x80
 350:	00ba0601 	bstrins.d	$r1,$r16,0x3a,0x1
 354:	4a040402 	bceqz	$fcc0,656388(0xa0404) # a0758 <__stack_size+0x90758>
 358:	04040200 	csrxchg	$r0,$r16,0x100
 35c:	0002054a 	0x0002054a
 360:	0f040402 	0x0f040402
 364:	05500105 	0x05500105
 368:	087a0307 	0x087a0307
 36c:	02054aac 	slti	$r12,$r21,338(0x152)
 370:	4a4a7403 	bceqz	$fcc0,936564(0xe4a74) # e4de4 <__stack_size+0xd4de4>
 374:	13068106 	addu16i.d	$r6,$r8,-15968(0xc1a0)
 378:	05490a05 	0x05490a05
 37c:	064b0602 	0x064b0602
 380:	0306ba01 	lu52i.d	$r1,$r16,430(0x1ae)
 384:	0106010c 	0x0106010c
 388:	01000c02 	0x01000c02
 38c:	00006f01 	cpucfg	$r1,$r24
 390:	1f000200 	pcaddu18i	$r0,-524272(0x80010)
 394:	01000000 	0x01000000
 398:	0d0efb01 	0x0d0efb01
 39c:	01010100 	fadd.d	$f0,$f8,$f0
 3a0:	00000001 	0x00000001
 3a4:	01000001 	0x01000001
 3a8:	72747300 	0x72747300
 3ac:	2e706d63 	0x2e706d63
 3b0:	00000063 	0x00000063
 3b4:	01050000 	fmul.d	$f0,$f0,$f0
 3b8:	70020500 	vsle.b	$vr0,$vr8,$vr1
 3bc:	171c0018 	lu32i.d	$r24,-466944(0x8e000)
 3c0:	05130205 	0x05130205
 3c4:	05010608 	0x05010608
 3c8:	03054b06 	lu52i.d	$r6,$r24,338(0x152)
 3cc:	13054a06 	addu16i.d	$r6,$r16,-16046(0xc152)
 3d0:	09051106 	0x09051106
 3d4:	4a10054a 	bcnez	$fcc2,2756612(0x2a1004) # 2a13d8 <__stack_size+0x2913d8>
 3d8:	054b0a05 	0x054b0a05
 3dc:	02054908 	slti	$r8,$r8,338(0x152)
 3e0:	01054d06 	fmul.d	$f6,$f8,$f19
 3e4:	0a050e06 	0x0a050e06
 3e8:	8227054e 	0x8227054e
 3ec:	05830105 	0x05830105
 3f0:	01054925 	fmul.d	$f5,$f9,$f18
 3f4:	800b054b 	0x800b054b
 3f8:	024c0105 	sltui	$r5,$r8,768(0x300)
 3fc:	01010004 	fadd.d	$f4,$f0,$f0
 400:	00000127 	0x00000127
 404:	00320002 	0x00320002
 408:	01010000 	fadd.d	$f0,$f0,$f0
 40c:	000d0efb 	bytepick.d	$r27,$r23,$r3,0x2
 410:	01010101 	fadd.d	$f1,$f8,$f0
 414:	01000000 	0x01000000
 418:	2e010000 	0x2e010000
 41c:	6e692f2e 	bgeu	$r25,$r14,-104148(0x2692c) # fffe6d48 <_stack+0xe3ee6d4c>
 420:	64756c63 	bge	$r3,$r3,30060(0x756c) # 798c <__stack_size-0x8674>
 424:	74000065 	xvseq.b	$xr5,$xr3,$xr0
 428:	2e656d69 	0x2e656d69
 42c:	00000063 	0x00000063
 430:	6d697400 	bgeu	$r0,$r0,92532(0x16974) # 16da4 <__stack_size+0x6da4>
 434:	00682e65 	bstrins.w	$r5,$r19,0x8,0xb
 438:	00000001 	0x00000001
 43c:	05000105 	0x05000105
 440:	0018c002 	sll.d	$r2,$r0,$r16
 444:	0111031c 	fscaleb.d	$f28,$f24,$f0
 448:	05130505 	0x05130505
 44c:	0171030f 	0x0171030f
 450:	13140505 	addu16i.d	$r5,$r8,-15103(0xc501)
 454:	03060105 	lu52i.d	$r5,$r8,384(0x180)
 458:	0505010b 	0x0505010b
 45c:	06827503 	0x06827503
 460:	05010689 	0x05010689
 464:	08061801 	0x08061801
 468:	130505e7 	addu16i.d	$r7,$r15,-16063(0xc141)
 46c:	01054e13 	fmul.d	$f19,$f16,$f19
 470:	bd061306 	0xbd061306
 474:	13130505 	addu16i.d	$r5,$r8,-15167(0xc4c1)
 478:	61030f05 	blt	$r24,$r5,66316(0x1030c) # 10784 <__stack_size+0x784>
 47c:	14050501 	lu12i.w	$r1,10280(0x2828)
 480:	06010513 	cacop	0x13,$r8,65(0x41)
 484:	05011a03 	0x05011a03
 488:	82660305 	0x82660305
 48c:	01068906 	fdiv.s	$f6,$f8,$f2
 490:	01160306 	0x01160306
 494:	01061505 	0x01061505
 498:	05831605 	0x05831605
 49c:	16054b27 	lu32i.d	$r7,10841(0x2a59)
 4a0:	b9360549 	0xb9360549
 4a4:	054c2705 	0x054c2705
 4a8:	27054928 	stptr.d	$r8,$r9,1352(0x548)
 4ac:	ba3605bb 	0xba3605bb
 4b0:	49bb1205 	0x49bb1205
 4b4:	4f010549 	jirl	$r9,$r10,-65276(0x30104)
 4b8:	7a033605 	0x7a033605
 4bc:	ba120582 	0xba120582
 4c0:	4b060505 	bcnez	$fcc0,1508868(0x170604) # 170ac4 <__stack_size+0x160ac4>
 4c4:	05141313 	0x05141313
 4c8:	06130601 	cacop	0x1,$r16,1217(0x4c1)
 4cc:	24020a03 	ldptr.w	$r3,$r16,520(0x208)
 4d0:	13050501 	addu16i.d	$r1,$r8,-16063(0xc141)
 4d4:	030f0513 	lu52i.d	$r19,$r8,961(0x3c1)
 4d8:	0505014e 	0x0505014e
 4dc:	01051314 	fmul.d	$f20,$f24,$f4
 4e0:	012d0306 	0x012d0306
 4e4:	53030505 	b	68616964(0x4170304) # 41707e8 <__stack_size+0x41607e8>
 4e8:	06890682 	0x06890682
 4ec:	29030601 	st.b	$r1,$r16,193(0xc1)
 4f0:	06051301 	cacop	0x1,$r24,324(0x144)
 4f4:	01051106 	fmul.d	$f6,$f8,$f4
 4f8:	0806824c 	0x0806824c
 4fc:	13050540 	addu16i.d	$r0,$r10,-16063(0xc141)
 500:	030f0513 	lu52i.d	$r19,$r8,961(0x3c1)
 504:	05050145 	0x05050145
 508:	01051314 	fmul.d	$f20,$f24,$f4
 50c:	01360306 	0x01360306
 510:	4a030505 	bcnez	$fcc0,1442564(0x160304) # 160814 <__stack_size+0x150814>
 514:	06890682 	0x06890682
 518:	32030601 	0x32030601
 51c:	06051301 	cacop	0x1,$r24,324(0x144)
 520:	01051106 	fmul.d	$f6,$f8,$f4
 524:	0c02f24c 	0x0c02f24c
 528:	Address 0x0000000000000528 is out of bounds.


Disassembly of section .debug_str:

00000000 <.debug_str>:
   0:	69616761 	bltu	$r27,$r1,90468(0x16164) # 16164 <__stack_size+0x6164>
   4:	6f6c006e 	bgeu	$r3,$r14,-37888(0x36c00) # ffff6c04 <_stack+0xe3ef6c08>
   8:	7520676e 	xvpickod.b	$xr14,$xr27,$xr25
   c:	6769736e 	bge	$r27,$r14,-38544(0x36970) # ffff697c <_stack+0xe3ef6980>
  10:	2064656e 	ll.w	$r14,$r11,25700(0x6464)
  14:	00746e69 	bstrins.w	$r9,$r19,0x14,0x1b
  18:	20554e47 	ll.w	$r7,$r18,21836(0x554c)
  1c:	20373143 	ll.w	$r3,$r10,14128(0x3730)
  20:	2e332e38 	0x2e332e38
  24:	6d2d2030 	bgeu	$r1,$r16,77088(0x12d20) # 12d44 <__stack_size+0x2d44>
  28:	3d696261 	0x3d696261
  2c:	33706c69 	xvstelm.h	$xr9,$r3,54(0x36),0xc
  30:	2d207332 	0x2d207332
  34:	6372616d 	blt	$r11,$r13,-36256(0x37260) # ffff7294 <_stack+0xe3ef7298>
  38:	6f6c3d68 	bgeu	$r11,$r8,-37828(0x36c3c) # ffff6c74 <_stack+0xe3ef6c78>
  3c:	61676e6f 	blt	$r19,$r15,92012(0x1676c) # 167a8 <__stack_size+0x67a8>
  40:	33686372 	xvstelm.h	$xr18,$r27,48(0x30),0xa
  44:	2d207232 	0x2d207232
  48:	7570666d 	0x7570666d
  4c:	6e6f6e3d 	bgeu	$r17,$r29,-102548(0x26f6c) # fffe6fb8 <_stack+0xe3ee6fbc>
  50:	6d2d2065 	bgeu	$r3,$r5,77088(0x12d20) # 12d70 <__stack_size+0x2d70>
  54:	646d6973 	bge	$r11,$r19,28008(0x6d68) # 6dbc <__stack_size-0x9244>
  58:	6e6f6e3d 	bgeu	$r17,$r29,-102548(0x26f6c) # fffe6fc4 <_stack+0xe3ee6fc8>
  5c:	6d2d2065 	bgeu	$r3,$r5,77088(0x12d20) # 12d7c <__stack_size+0x2d7c>
  60:	646f6d63 	bge	$r11,$r3,28524(0x6f6c) # 6fcc <__stack_size-0x9034>
  64:	6e3d6c65 	bgeu	$r3,$r5,-115348(0x23d6c) # fffe3dd0 <_stack+0xe3ee3dd4>
  68:	616d726f 	blt	$r19,$r15,93552(0x16d70) # 16dd8 <__stack_size+0x6dd8>
  6c:	6d2d206c 	bgeu	$r3,$r12,77088(0x12d20) # 12d8c <__stack_size+0x2d8c>
  70:	656e7574 	bge	$r11,$r20,93812(0x16e74) # 16ee4 <__stack_size+0x6ee4>
  74:	6f6f6c3d 	bgeu	$r1,$r29,-37012(0x36f6c) # ffff6fe0 <_stack+0xe3ef6fe4>
  78:	7261676e 	0x7261676e
  7c:	32336863 	0x32336863
  80:	672d2072 	bge	$r3,$r18,-53984(0x32d20) # ffff2da0 <_stack+0xe3ef2da4>
  84:	324f2d20 	xvldrepl.h	$xr0,$r9,1942(0x796)
  88:	6e662d20 	bgeu	$r9,$r0,-104916(0x2662c) # fffe66b4 <_stack+0xe3ee66b8>
  8c:	75622d6f 	0x75622d6f
  90:	69746c69 	bltu	$r3,$r9,95340(0x1746c) # 174fc <__stack_size+0x74fc>
  94:	662d206e 	bge	$r3,$r14,-119520(0x22d20) # fffe2db4 <_stack+0xe3ee2db8>
  98:	702d6f6e 	0x702d6f6e
  9c:	70006369 	vseq.b	$vr9,$vr27,$vr24
  a0:	746e6972 	0x746e6972
  a4:	65736162 	bge	$r11,$r2,95072(0x17360) # 17404 <__stack_size+0x7404>
  a8:	74757000 	xvmax.wu	$xr0,$xr0,$xr28
  ac:	69727473 	bltu	$r3,$r19,94836(0x17274) # 17320 <__stack_size+0x7320>
  b0:	7000676e 	vseq.b	$vr14,$vr27,$vr25
  b4:	746e6972 	0x746e6972
  b8:	00632e66 	bstrins.w	$r6,$r19,0x3,0xb
  bc:	6d6f682f 	bgeu	$r1,$r15,94056(0x16f68) # 17024 <__stack_size+0x7024>
  c0:	33312f65 	xvstelm.w	$xr5,$r27,300(0x12c),0x4
  c4:	69672f32 	bltu	$r25,$r18,91948(0x1672c) # 167f0 <__stack_size+0x67f0>
  c8:	65725f74 	bge	$r27,$r20,94812(0x1725c) # 17324 <__stack_size+0x7324>
  cc:	65702f70 	bge	$r27,$r16,94252(0x1702c) # 170f8 <__stack_size+0x70f8>
  d0:	732f6672 	0x732f6672
  d4:	2f74666f 	0x2f74666f
  d8:	66726570 	bge	$r11,$r16,-101788(0x27264) # fffe733c <_stack+0xe3ee7340>
  dc:	6e75665f 	bgeu	$r18,$r31,-101020(0x27564) # fffe7640 <_stack+0xe3ee7644>
  e0:	696c2f63 	bltu	$r27,$r3,93228(0x16c2c) # 16d0c <__stack_size+0x6d0c>
  e4:	72700062 	0x72700062
  e8:	66746e69 	bge	$r19,$r9,-101268(0x2746c) # fffe7554 <_stack+0xe3ee7558>
  ec:	74677400 	xvavg.wu	$xr0,$xr0,$xr29
  f0:	7475705f 	xvmax.wu	$xr31,$xr2,$xr28
  f4:	72616863 	0x72616863
  f8:	74757000 	xvmax.wu	$xr0,$xr0,$xr28
  fc:	72616863 	0x72616863
 100:	7000632e 	vseq.b	$vr14,$vr25,$vr24
 104:	2e737475 	0x2e737475
 108:	75700063 	0x75700063
 10c:	70007374 	vseq.b	$vr20,$vr27,$vr28
 110:	746e6972 	0x746e6972
 114:	65736162 	bge	$r11,$r2,95072(0x17360) # 17474 <__stack_size+0x7474>
 118:	7600632e 	0x7600632e
 11c:	65756c61 	bge	$r3,$r1,95596(0x1756c) # 17688 <__stack_size+0x7688>
 120:	67697300 	bge	$r24,$r0,-38544(0x36970) # ffff6a90 <_stack+0xe3ef6a94>
 124:	6f6c006e 	bgeu	$r3,$r14,-37888(0x36c00) # ffff6d24 <_stack+0xe3ef6d28>
 128:	6920676e 	bltu	$r27,$r14,73828(0x12064) # 1218c <__stack_size+0x218c>
 12c:	7300746e 	0x7300746e
 130:	6d637274 	bgeu	$r19,$r20,90992(0x16370) # 164a0 <__stack_size+0x64a0>
 134:	74730070 	xvmin.w	$xr16,$xr3,$xr0
 138:	706d6372 	0x706d6372
 13c:	6700632e 	bge	$r25,$r14,-65440(0x30060) # ffff019c <_stack+0xe3ef01a0>
 140:	635f7465 	blt	$r3,$r5,-41100(0x35f74) # ffff60b4 <_stack+0xe3ef60b8>
 144:	746e756f 	0x746e756f
 148:	00796d5f 	bstrins.w	$r31,$r10,0x19,0x1b
 14c:	7465675f 	xvavg.w	$xr31,$xr26,$xr25
 150:	756f635f 	0x756f635f
 154:	7400746e 	xvseq.b	$xr14,$xr3,$xr29
 158:	73656d69 	vssrani.wu.d	$vr9,$vr11,0x1b
 15c:	00636570 	bstrins.w	$r16,$r11,0x3,0x19
 160:	6f6c635f 	bgeu	$r26,$r31,-37792(0x36c60) # ffff6dc0 <_stack+0xe3ef6dc4>
 164:	745f6b63 	0x745f6b63
 168:	5f767400 	bne	$r0,$r0,-35212(0x37674) # ffff77dc <_stack+0xe3ef77e0>
 16c:	6365736d 	blt	$r27,$r13,-39568(0x36570) # ffff66dc <_stack+0xe3ef66e0>
 170:	6d697400 	bgeu	$r0,$r0,92532(0x16974) # 16ae4 <__stack_size+0x6ae4>
 174:	00632e65 	bstrins.w	$r5,$r19,0x3,0xb
 178:	5f746567 	bne	$r11,$r7,-35740(0x37464) # ffff75dc <_stack+0xe3ef75e0>
 17c:	67007375 	bge	$r27,$r21,-65424(0x30070) # ffff01ec <_stack+0xe3ef01f0>
 180:	635f7465 	blt	$r3,$r5,-41100(0x35f74) # ffff60f4 <_stack+0xe3ef60f8>
 184:	6b636f6c 	bltu	$r27,$r12,-40084(0x3636c) # ffff64f0 <_stack+0xe3ef64f4>
 188:	5f767400 	bne	$r0,$r0,-35212(0x37674) # ffff77fc <_stack+0xe3ef7800>
 18c:	63657375 	blt	$r27,$r21,-39568(0x36570) # ffff66fc <_stack+0xe3ef6700>
 190:	6f635f00 	bgeu	$r24,$r0,-40100(0x3635c) # ffff64ec <_stack+0xe3ef64f0>
 194:	6176746e 	blt	$r3,$r14,95860(0x17674) # 17808 <__stack_size+0x7808>
 198:	7674006c 	0x7674006c
 19c:	6365735f 	blt	$r26,$r31,-39568(0x36570) # ffff670c <_stack+0xe3ef6710>
 1a0:	74656700 	xvavg.w	$xr0,$xr24,$xr25
 1a4:	00736e5f 	bstrins.w	$r31,$r18,0x13,0x1b
 1a8:	6e5f7674 	bgeu	$r19,$r20,-106636(0x25f74) # fffe611c <_stack+0xe3ee6120>
 1ac:	00636573 	bstrins.w	$r19,$r11,0x3,0x19
 1b0:	636f6c63 	blt	$r3,$r3,-37012(0x36f6c) # ffff711c <_stack+0xe3ef7120>
 1b4:	65675f6b 	bge	$r27,$r11,91996(0x1675c) # 16910 <__stack_size+0x6910>
 1b8:	6d697474 	bgeu	$r3,$r20,92532(0x16974) # 16b2c <__stack_size+0x6b2c>
 1bc:	Address 0x00000000000001bc is out of bounds.


Disassembly of section .debug_frame:

00000000 <.debug_frame>:
   0:	0000000c 	0x0000000c
   4:	ffffffff 	0xffffffff
   8:	7c010001 	0x7c010001
   c:	00030d01 	0x00030d01
  10:	00000034 	0x00000034
  14:	00000000 	0x00000000
  18:	1c001430 	pcaddu12i	$r16,161(0xa1)
  1c:	0000023c 	0x0000023c
  20:	5c600e44 	bne	$r18,$r4,24588(0x600c) # 602c <__stack_size-0x9fd4>
  24:	09810d9a 	0x09810d9a
  28:	0b980a97 	0x0b980a97
  2c:	0e9b0c99 	0x0e9b0c99
  30:	b4020f9c 	0xb4020f9c
  34:	d744c10a 	0xd744c10a
  38:	d944d844 	0xd944d844
  3c:	db44da44 	0xdb44da44
  40:	0e48dc44 	0x0e48dc44
  44:	000b4400 	0x000b4400
  48:	0000000c 	0x0000000c
  4c:	ffffffff 	0xffffffff
  50:	7c010001 	0x7c010001
  54:	00030d01 	0x00030d01
  58:	00000018 	0x00000018
  5c:	00000048 	0x00000048
  60:	1c001670 	pcaddu12i	$r16,179(0xb3)
  64:	00000028 	0x00000028
  68:	44100e44 	bnez	$r18,1052684(0x10100c) # 101074 <__stack_size+0xf1074>
  6c:	d9580199 	0xd9580199
  70:	00000e44 	0x00000e44
  74:	00000018 	0x00000018
  78:	00000048 	0x00000048
  7c:	1c0016a0 	pcaddu12i	$r0,181(0xb5)
  80:	00000024 	0x00000024
  84:	44100e44 	bnez	$r18,1052684(0x10100c) # 101090 <__stack_size+0xf1090>
  88:	d9540199 	0xd9540199
  8c:	00000e44 	0x00000e44
  90:	0000000c 	0x0000000c
  94:	ffffffff 	0xffffffff
  98:	7c010001 	0x7c010001
  9c:	00030d01 	0x00030d01
  a0:	00000024 	0x00000024
  a4:	00000090 	0x00000090
  a8:	1c0016d0 	pcaddu12i	$r16,182(0xb6)
  ac:	00000074 	0x00000074
  b0:	50100e44 	b	-116387828(0x910100c) # f91010bc <_stack+0xdd0010c0>
  b4:	02970181 	addi.w	$r1,$r12,1472(0x5c0)
  b8:	04990398 	csrxchg	$r24,$r28,0x2640
  bc:	44c14802 	bnez	$r0,573768(0x8c148) # 8c204 <__stack_size+0x7c204>
  c0:	44d844d7 	bnez	$r6,-2303932(0x5cd844) # ffdcd904 <_stack+0xe3ccd908>
  c4:	000e48d9 	bytepick.d	$r25,$r6,$r18,0x4
  c8:	00000018 	0x00000018
  cc:	00000090 	0x00000090
  d0:	1c001750 	pcaddu12i	$r16,186(0xba)
  d4:	0000002c 	0x0000002c
  d8:	44100e44 	bnez	$r18,1052684(0x10100c) # 1010e4 <__stack_size+0xf10e4>
  dc:	c1580181 	0xc1580181
  e0:	00000e48 	0x00000e48
  e4:	0000000c 	0x0000000c
  e8:	ffffffff 	0xffffffff
  ec:	7c010001 	0x7c010001
  f0:	00030d01 	0x00030d01
  f4:	00000028 	0x00000028
  f8:	000000e4 	0x000000e4
  fc:	1c001780 	pcaddu12i	$r0,188(0xbc)
 100:	000000ec 	0x000000ec
 104:	50600e44 	b	-116367348(0x910600c) # f9106110 <_stack+0xdd006114>
 108:	01810297 	0x01810297
 10c:	04990398 	csrxchg	$r24,$r28,0x2640
 110:	c10a8c02 	0xc10a8c02
 114:	d844d744 	0xd844d744
 118:	0e48d944 	0x0e48d944
 11c:	000b4400 	0x000b4400
 120:	0000000c 	0x0000000c
 124:	ffffffff 	0xffffffff
 128:	7c010001 	0x7c010001
 12c:	00030d01 	0x00030d01
 130:	00000014 	0x00000014
 134:	00000120 	0x00000120
 138:	1c001870 	pcaddu12i	$r16,195(0xc3)
 13c:	00000048 	0x00000048
 140:	54100e60 	bl	-109047796(0x980100c) # f980114c <_stack+0xdd701150>
 144:	0000000e 	0x0000000e
 148:	0000000c 	0x0000000c
 14c:	ffffffff 	0xffffffff
 150:	7c010001 	0x7c010001
 154:	00030d01 	0x00030d01
 158:	00000018 	0x00000018
 15c:	00000148 	0x00000148
 160:	1c0018c0 	pcaddu12i	$r0,198(0xc6)
 164:	0000001c 	0x0000001c
 168:	44100e44 	bnez	$r18,1052684(0x10100c) # 101174 <__stack_size+0xf1174>
 16c:	d94c0199 	0xd94c0199
 170:	00000e44 	0x00000e44
 174:	0000000c 	0x0000000c
 178:	00000148 	0x00000148
 17c:	1c0018e0 	pcaddu12i	$r0,199(0xc7)
 180:	00000004 	0x00000004
 184:	0000000c 	0x0000000c
 188:	00000148 	0x00000148
 18c:	1c0018f0 	pcaddu12i	$r16,199(0xc7)
 190:	00000008 	0x00000008
 194:	00000018 	0x00000018
 198:	00000148 	0x00000148
 19c:	1c001900 	pcaddu12i	$r0,200(0xc8)
 1a0:	00000084 	0x00000084
 1a4:	44100e44 	bnez	$r18,1052684(0x10100c) # 1011b0 <__stack_size+0xf11b0>
 1a8:	60020199 	blt	$r12,$r25,512(0x200) # 3a8 <__stack_size-0xfc58>
 1ac:	000e58d9 	bytepick.d	$r25,$r6,$r22,0x4
 1b0:	0000000c 	0x0000000c
 1b4:	00000148 	0x00000148
 1b8:	1c001990 	pcaddu12i	$r16,204(0xcc)
 1bc:	00000004 	0x00000004
 1c0:	00000018 	0x00000018
 1c4:	00000148 	0x00000148
 1c8:	1c0019a0 	pcaddu12i	$r0,205(0xcd)
 1cc:	00000024 	0x00000024
 1d0:	44100e44 	bnez	$r18,1052684(0x10100c) # 1011dc <__stack_size+0xf11dc>
 1d4:	d9500199 	0xd9500199
 1d8:	00000e48 	0x00000e48
 1dc:	00000018 	0x00000018
 1e0:	00000148 	0x00000148
 1e4:	1c0019d0 	pcaddu12i	$r16,206(0xce)
 1e8:	00000030 	0x00000030
 1ec:	44100e44 	bnez	$r18,1052684(0x10100c) # 1011f8 <__stack_size+0xf11f8>
 1f0:	d9500199 	0xd9500199
 1f4:	00000e54 	0x00000e54
