
obj/coremark/main.elf:     file format elf32-loongarch
obj/coremark/main.elf


Disassembly of section .init:

1c000000 <_start>:
_start():
1c000000:	157f5f19 	lu12i.w	$r25,-263432(0xbfaf8)
1c000004:	03bff339 	ori	$r25,$r25,0xffc
1c000008:	29800320 	st.w	$r0,$r25,0
1c00000c:	157f5ff9 	lu12i.w	$r25,-263425(0xbfaff)
1c000010:	03bcc339 	ori	$r25,$r25,0xf30
1c000014:	29800320 	st.w	$r0,$r25,0
1c000018:	157f5f19 	lu12i.w	$r25,-263432(0xbfaf8)
1c00001c:	03bff339 	ori	$r25,$r25,0xffc
1c000020:	29800320 	st.w	$r0,$r25,0
1c000024:	157f5f19 	lu12i.w	$r25,-263432(0xbfaf8)
1c000028:	03bff339 	ori	$r25,$r25,0xffc
1c00002c:	29800320 	st.w	$r0,$r25,0
1c000030:	157f5ff9 	lu12i.w	$r25,-263425(0xbfaff)
1c000034:	03bd0339 	ori	$r25,$r25,0xf40
1c000038:	29800320 	st.w	$r0,$r25,0
1c00003c:	157f5f19 	lu12i.w	$r25,-263432(0xbfaf8)
1c000040:	03bff339 	ori	$r25,$r25,0xffc
1c000044:	29800320 	st.w	$r0,$r25,0
1c000048:	0380040c 	ori	$r12,$r0,0x1
1c00004c:	0404042c 	csrwr	$r12,0x101
1c000050:	1c00014c 	pcaddu12i	$r12,10(0xa)
1c000054:	02b5818c 	addi.w	$r12,$r12,-672(0xd60)
1c000058:	1c00100d 	pcaddu12i	$r13,128(0x80)
1c00005c:	02bea1ad 	addi.w	$r13,$r13,-88(0xfa8)
1c000060:	1c00100e 	pcaddu12i	$r14,128(0x80)
1c000064:	029f01ce 	addi.w	$r14,$r14,1984(0x7c0)
1c000068:	6c0019ae 	bgeu	$r13,$r14,24(0x18) # 1c000080 <_start+0x80>
1c00006c:	2880018f 	ld.w	$r15,$r12,0
1c000070:	298001af 	st.w	$r15,$r13,0
1c000074:	0280118c 	addi.w	$r12,$r12,4(0x4)
1c000078:	028011ad 	addi.w	$r13,$r13,4(0x4)
1c00007c:	6bfff1ae 	bltu	$r13,$r14,-16(0x3fff0) # 1c00006c <_start+0x6c>
1c000080:	1c00100c 	pcaddu12i	$r12,128(0x80)
1c000084:	029e818c 	addi.w	$r12,$r12,1952(0x7a0)
1c000088:	1c00100d 	pcaddu12i	$r13,128(0x80)
1c00008c:	029ee1ad 	addi.w	$r13,$r13,1976(0x7b8)
1c000090:	6c00118d 	bgeu	$r12,$r13,16(0x10) # 1c0000a0 <_start+0xa0>
1c000094:	29800180 	st.w	$r0,$r12,0
1c000098:	0280118c 	addi.w	$r12,$r12,4(0x4)
1c00009c:	6bfff98d 	bltu	$r12,$r13,-8(0x3fff8) # 1c000094 <_start+0x94>
1c0000a0:	04060020 	csrwr	$r0,0x180
1c0000a4:	04060420 	csrwr	$r0,0x181
1c0000a8:	0380640c 	ori	$r12,$r0,0x19
1c0000ac:	0406002c 	csrwr	$r12,0x180
1c0000b0:	1540000c 	lu12i.w	$r12,-393216(0xa0000)
1c0000b4:	0380258c 	ori	$r12,$r12,0x9
1c0000b8:	0406042c 	csrwr	$r12,0x181
1c0000bc:	0380400c 	ori	$r12,$r0,0x10
1c0000c0:	0380600d 	ori	$r13,$r0,0x18
1c0000c4:	040001ac 	csrxchg	$r12,$r13,0x0
1c0000c8:	1438000c 	lu12i.w	$r12,114688(0x1c000)
1c0000cc:	038e018c 	ori	$r12,$r12,0x380
1c0000d0:	0400302c 	csrwr	$r12,0xc
1c0000d4:	1c002003 	pcaddu12i	$r3,256(0x100)
1c0000d8:	02bca063 	addi.w	$r3,$r3,-216(0xf28)
1c0000dc:	5002b000 	b	688(0x2b0) # 1c00038c <run_test>
	...

1c000100 <test_finish>:
test_finish():
1c000100:	0280058c 	addi.w	$r12,$r12,1(0x1)
1c000104:	157f5fee 	lu12i.w	$r14,-263425(0xbfaff)
1c000108:	03bc41ce 	ori	$r14,$r14,0xf10
1c00010c:	298001c0 	st.w	$r0,$r14,0
1c000110:	157f5fec 	lu12i.w	$r12,-263425(0xbfaff)
1c000114:	0381818c 	ori	$r12,$r12,0x60
1c000118:	2880018c 	ld.w	$r12,$r12,0
1c00011c:	0342018c 	andi	$r12,$r12,0x80
1c000120:	5800180c 	beq	$r0,$r12,24(0x18) # 1c000138 <test_finish+0x38>
1c000124:	03400000 	andi	$r0,$r0,0x0
1c000128:	157f5f0c 	lu12i.w	$r12,-263432(0xbfaf8)
1c00012c:	2880018d 	ld.w	$r13,$r12,0
1c000130:	50001400 	b	20(0x14) # 1c000144 <test_finish+0x44>
1c000134:	03400000 	andi	$r0,$r0,0x0
1c000138:	157f5f0c 	lu12i.w	$r12,-263432(0xbfaf8)
1c00013c:	0380418c 	ori	$r12,$r12,0x10
1c000140:	2880018d 	ld.w	$r13,$r12,0
1c000144:	157f5fec 	lu12i.w	$r12,-263425(0xbfaff)
1c000148:	0381418c 	ori	$r12,$r12,0x50
1c00014c:	2980018d 	st.w	$r13,$r12,0
1c000150:	53ffc3ff 	b	-64(0xfffffc0) # 1c000110 <test_finish+0x10>
1c000154:	03400000 	andi	$r0,$r0,0x0
1c000158:	1500000c 	lu12i.w	$r12,-524288(0x80000)
1c00015c:	028005ad 	addi.w	$r13,$r13,1(0x1)
1c000160:	0015018e 	move	$r14,$r12
1c000164:	00104a2f 	add.w	$r15,$r17,$r18
1c000168:	28800190 	ld.w	$r16,$r12,0
	...
1c000380:	0280058c 	addi.w	$r12,$r12,1(0x1)
1c000384:	53ffffff 	b	-4(0xffffffc) # 1c000380 <test_finish+0x280>
1c000388:	03400000 	andi	$r0,$r0,0x0

1c00038c <run_test>:
run_test():
1c00038c:	54001400 	bl	20(0x14) # 1c0003a0 <shell3>
1c000390:	03400000 	andi	$r0,$r0,0x0

1c000394 <go_finish>:
go_finish():
1c000394:	53fd6fff 	b	-660(0xffffd6c) # 1c000100 <test_finish>

Disassembly of section .text:

1c0003a0 <shell3>:
shell3():
1c0003a0:	02bf8063 	addi.w	$r3,$r3,-32(0xfe0)
1c0003a4:	29807061 	st.w	$r1,$r3,28(0x1c)
1c0003a8:	157f5fcc 	lu12i.w	$r12,-263426(0xbfafe)
1c0003ac:	29806077 	st.w	$r23,$r3,24(0x18)
1c0003b0:	29805078 	st.w	$r24,$r3,20(0x14)
1c0003b4:	29804079 	st.w	$r25,$r3,16(0x10)
1c0003b8:	2980307a 	st.w	$r26,$r3,12(0xc)
1c0003bc:	29800180 	st.w	$r0,$r12,0
1c0003c0:	1c001004 	pcaddu12i	$r4,128(0x80)
1c0003c4:	02b10084 	addi.w	$r4,$r4,-960(0xc40)
1c0003c8:	5494a800 	bl	38056(0x94a8) # 1c009870 <puts>
1c0003cc:	5498a400 	bl	39076(0x98a4) # 1c009c70 <get_count>
1c0003d0:	00150099 	move	$r25,$r4
1c0003d4:	5498cc00 	bl	39116(0x98cc) # 1c009ca0 <get_count_my>
1c0003d8:	0015009a 	move	$r26,$r4
1c0003dc:	157f5fe4 	lu12i.w	$r4,-263425(0xbfaff)
1c0003e0:	03bc8085 	ori	$r5,$r4,0xf20
1c0003e4:	288000a6 	ld.w	$r6,$r5,0
1c0003e8:	02802817 	addi.w	$r23,$r0,10(0xa)
1c0003ec:	00150018 	move	$r24,$r0
1c0003f0:	5c0108c0 	bne	$r6,$r0,264(0x108) # 1c0004f8 <shell3+0x158>
1c0003f4:	029f400a 	addi.w	$r10,$r0,2000(0x7d0)
1c0003f8:	02800409 	addi.w	$r9,$r0,1(0x1)
1c0003fc:	02801c08 	addi.w	$r8,$r0,7(0x7)
1c000400:	02800407 	addi.w	$r7,$r0,1(0x1)
1c000404:	02819806 	addi.w	$r6,$r0,102(0x66)
1c000408:	00150005 	move	$r5,$r0
1c00040c:	00150004 	move	$r4,$r0
1c000410:	5401f000 	bl	496(0x1f0) # 1c000600 <core_mark>
1c000414:	02bffef7 	addi.w	$r23,$r23,-1(0xfff)
1c000418:	00101318 	add.w	$r24,$r24,$r4
1c00041c:	5fffdae0 	bne	$r23,$r0,-40(0x3ffd8) # 1c0003f4 <shell3+0x54>
1c000420:	54988000 	bl	39040(0x9880) # 1c009ca0 <get_count_my>
1c000424:	00150097 	move	$r23,$r4
1c000428:	54984800 	bl	38984(0x9848) # 1c009c70 <get_count>
1c00042c:	00116afa 	sub.w	$r26,$r23,$r26
1c000430:	00116499 	sub.w	$r25,$r4,$r25
1c000434:	58008f00 	beq	$r24,$r0,140(0x8c) # 1c0004c0 <shell3+0x120>
1c000438:	1c001004 	pcaddu12i	$r4,128(0x80)
1c00043c:	02afc084 	addi.w	$r4,$r4,-1040(0xbf0)
1c000440:	54943000 	bl	37936(0x9430) # 1c009870 <puts>
1c000444:	157f5fe7 	lu12i.w	$r7,-263425(0xbfaff)
1c000448:	02800410 	addi.w	$r16,$r0,1(0x1)
1c00044c:	038100ef 	ori	$r15,$r7,0x40
1c000450:	298001f0 	st.w	$r16,$r15,0
1c000454:	0280080e 	addi.w	$r14,$r0,2(0x2)
1c000458:	0380c0ed 	ori	$r13,$r7,0x30
1c00045c:	038080e8 	ori	$r8,$r7,0x20
1c000460:	298001ae 	st.w	$r14,$r13,0
1c000464:	29800100 	st.w	$r0,$r8,0
1c000468:	157f5fe1 	lu12i.w	$r1,-263425(0xbfaff)
1c00046c:	0381402c 	ori	$r12,$r1,0x50
1c000470:	2980019a 	st.w	$r26,$r12,0
1c000474:	157f5f06 	lu12i.w	$r6,-263432(0xbfaf8)
1c000478:	038040d8 	ori	$r24,$r6,0x10
1c00047c:	298000da 	st.w	$r26,$r6,0
1c000480:	00150325 	move	$r5,$r25
1c000484:	29800319 	st.w	$r25,$r24,0
1c000488:	1c001004 	pcaddu12i	$r4,128(0x80)
1c00048c:	02aed084 	addi.w	$r4,$r4,-1100(0xbb4)
1c000490:	5490c000 	bl	37056(0x90c0) # 1c009550 <printf>
1c000494:	28807061 	ld.w	$r1,$r3,28(0x1c)
1c000498:	28806077 	ld.w	$r23,$r3,24(0x18)
1c00049c:	28805078 	ld.w	$r24,$r3,20(0x14)
1c0004a0:	28804079 	ld.w	$r25,$r3,16(0x10)
1c0004a4:	00150345 	move	$r5,$r26
1c0004a8:	2880307a 	ld.w	$r26,$r3,12(0xc)
1c0004ac:	1c001004 	pcaddu12i	$r4,128(0x80)
1c0004b0:	02aef084 	addi.w	$r4,$r4,-1092(0xbbc)
1c0004b4:	02808063 	addi.w	$r3,$r3,32(0x20)
1c0004b8:	50909800 	b	37016(0x9098) # 1c009550 <printf>
1c0004bc:	03400000 	andi	$r0,$r0,0x0
1c0004c0:	1c001004 	pcaddu12i	$r4,128(0x80)
1c0004c4:	02ad6084 	addi.w	$r4,$r4,-1192(0xb58)
1c0004c8:	5493a800 	bl	37800(0x93a8) # 1c009870 <puts>
1c0004cc:	157f5fe9 	lu12i.w	$r9,-263425(0xbfaff)
1c0004d0:	0280040b 	addi.w	$r11,$r0,1(0x1)
1c0004d4:	03810131 	ori	$r17,$r9,0x40
1c0004d8:	2980022b 	st.w	$r11,$r17,0
1c0004dc:	140001ea 	lu12i.w	$r10,15(0xf)
1c0004e0:	0380c132 	ori	$r18,$r9,0x30
1c0004e4:	03808133 	ori	$r19,$r9,0x20
1c0004e8:	03bffd54 	ori	$r20,$r10,0xfff
1c0004ec:	2980024b 	st.w	$r11,$r18,0
1c0004f0:	29800274 	st.w	$r20,$r19,0
1c0004f4:	53ff77ff 	b	-140(0xfffff74) # 1c000468 <shell3+0xc8>
1c0004f8:	029f400a 	addi.w	$r10,$r0,2000(0x7d0)
1c0004fc:	02800409 	addi.w	$r9,$r0,1(0x1)
1c000500:	02801c08 	addi.w	$r8,$r0,7(0x7)
1c000504:	02800407 	addi.w	$r7,$r0,1(0x1)
1c000508:	02819806 	addi.w	$r6,$r0,102(0x66)
1c00050c:	00150005 	move	$r5,$r0
1c000510:	00150004 	move	$r4,$r0
1c000514:	5400ec00 	bl	236(0xec) # 1c000600 <core_mark>
1c000518:	00150098 	move	$r24,$r4
1c00051c:	54978400 	bl	38788(0x9784) # 1c009ca0 <get_count_my>
1c000520:	00150097 	move	$r23,$r4
1c000524:	54974c00 	bl	38732(0x974c) # 1c009c70 <get_count>
1c000528:	00116afa 	sub.w	$r26,$r23,$r26
1c00052c:	00116499 	sub.w	$r25,$r4,$r25
1c000530:	5fff0b00 	bne	$r24,$r0,-248(0x3ff08) # 1c000438 <shell3+0x98>
1c000534:	53ff8fff 	b	-116(0xfffff8c) # 1c0004c0 <shell3+0x120>
1c000538:	03400000 	andi	$r0,$r0,0x0
1c00053c:	03400000 	andi	$r0,$r0,0x0

1c000540 <iterate>:
iterate():
1c000540:	02bfc063 	addi.w	$r3,$r3,-16(0xff0)
1c000544:	29800079 	st.w	$r25,$r3,0
1c000548:	28807099 	ld.w	$r25,$r4,28(0x1c)
1c00054c:	29803061 	st.w	$r1,$r3,12(0xc)
1c000550:	29802077 	st.w	$r23,$r3,8(0x8)
1c000554:	29801078 	st.w	$r24,$r3,4(0x4)
1c000558:	2980e080 	st.w	$r0,$r4,56(0x38)
1c00055c:	2980f080 	st.w	$r0,$r4,60(0x3c)
1c000560:	58004f20 	beq	$r25,$r0,76(0x4c) # 1c0005ac <iterate+0x6c>
1c000564:	00150097 	move	$r23,$r4
1c000568:	00150018 	move	$r24,$r0
1c00056c:	03400000 	andi	$r0,$r0,0x0
1c000570:	02800405 	addi.w	$r5,$r0,1(0x1)
1c000574:	001502e4 	move	$r4,$r23
1c000578:	547b7800 	bl	31608(0x7b78) # 1c0080f0 <core_bench_list>
1c00057c:	2a40e2e5 	ld.hu	$r5,$r23,56(0x38)
1c000580:	546cf000 	bl	27888(0x6cf0) # 1c007270 <crcu16>
1c000584:	2940e2e4 	st.h	$r4,$r23,56(0x38)
1c000588:	02bffc05 	addi.w	$r5,$r0,-1(0xfff)
1c00058c:	001502e4 	move	$r4,$r23
1c000590:	547b6000 	bl	31584(0x7b60) # 1c0080f0 <core_bench_list>
1c000594:	2a40e2e5 	ld.hu	$r5,$r23,56(0x38)
1c000598:	546cd800 	bl	27864(0x6cd8) # 1c007270 <crcu16>
1c00059c:	2940e2e4 	st.h	$r4,$r23,56(0x38)
1c0005a0:	58002b00 	beq	$r24,$r0,40(0x28) # 1c0005c8 <iterate+0x88>
1c0005a4:	02800718 	addi.w	$r24,$r24,1(0x1)
1c0005a8:	5fffcb38 	bne	$r25,$r24,-56(0x3ffc8) # 1c000570 <iterate+0x30>
1c0005ac:	28803061 	ld.w	$r1,$r3,12(0xc)
1c0005b0:	28802077 	ld.w	$r23,$r3,8(0x8)
1c0005b4:	28801078 	ld.w	$r24,$r3,4(0x4)
1c0005b8:	28800079 	ld.w	$r25,$r3,0
1c0005bc:	00150004 	move	$r4,$r0
1c0005c0:	02804063 	addi.w	$r3,$r3,16(0x10)
1c0005c4:	4c000020 	jirl	$r0,$r1,0
1c0005c8:	2940eae4 	st.h	$r4,$r23,58(0x3a)
1c0005cc:	0280040c 	addi.w	$r12,$r0,1(0x1)
1c0005d0:	02800418 	addi.w	$r24,$r0,1(0x1)
1c0005d4:	5fff9f2c 	bne	$r25,$r12,-100(0x3ff9c) # 1c000570 <iterate+0x30>
1c0005d8:	28803061 	ld.w	$r1,$r3,12(0xc)
1c0005dc:	28802077 	ld.w	$r23,$r3,8(0x8)
1c0005e0:	28801078 	ld.w	$r24,$r3,4(0x4)
1c0005e4:	28800079 	ld.w	$r25,$r3,0
1c0005e8:	00150004 	move	$r4,$r0
1c0005ec:	02804063 	addi.w	$r3,$r3,16(0x10)
1c0005f0:	4c000020 	jirl	$r0,$r1,0
1c0005f4:	03400000 	andi	$r0,$r0,0x0
1c0005f8:	03400000 	andi	$r0,$r0,0x0
1c0005fc:	03400000 	andi	$r0,$r0,0x0

1c000600 <core_mark>:
core_mark():
1c000600:	02a04063 	addi.w	$r3,$r3,-2032(0x810)
1c000604:	299f9077 	st.w	$r23,$r3,2020(0x7e4)
1c000608:	299f8078 	st.w	$r24,$r3,2016(0x7e0)
1c00060c:	299f7079 	st.w	$r25,$r3,2012(0x7dc)
1c000610:	299fb061 	st.w	$r1,$r3,2028(0x7ec)
1c000614:	299fa076 	st.w	$r22,$r3,2024(0x7e8)
1c000618:	299f607a 	st.w	$r26,$r3,2008(0x7d8)
1c00061c:	299f507b 	st.w	$r27,$r3,2004(0x7d4)
1c000620:	299f407c 	st.w	$r28,$r3,2000(0x7d0)
1c000624:	299f307d 	st.w	$r29,$r3,1996(0x7cc)
1c000628:	299f207e 	st.w	$r30,$r3,1992(0x7c8)
1c00062c:	299f107f 	st.w	$r31,$r3,1988(0x7c4)
1c000630:	00150117 	move	$r23,$r8
1c000634:	02be4063 	addi.w	$r3,$r3,-112(0xf90)
1c000638:	001500e8 	move	$r8,$r7
1c00063c:	29801064 	st.w	$r4,$r3,4(0x4)
1c000640:	001500b9 	move	$r25,$r5
1c000644:	29802066 	st.w	$r6,$r3,8(0x8)
1c000648:	001500f8 	move	$r24,$r7
1c00064c:	0015014b 	move	$r11,$r10
1c000650:	001500c7 	move	$r7,$r6
1c000654:	0015012a 	move	$r10,$r9
1c000658:	001500a6 	move	$r6,$r5
1c00065c:	001502e9 	move	$r9,$r23
1c000660:	00150085 	move	$r5,$r4
1c000664:	1c001004 	pcaddu12i	$r4,128(0x80)
1c000668:	02a8c084 	addi.w	$r4,$r4,-1488(0xa30)
1c00066c:	548ee400 	bl	36580(0x8ee4) # 1c009550 <printf>
1c000670:	03a0800e 	ori	$r14,$r0,0x820
1c000674:	0280406f 	addi.w	$r15,$r3,16(0x10)
1c000678:	28401066 	ld.h	$r6,$r3,4(0x4)
1c00067c:	2840206c 	ld.h	$r12,$r3,8(0x8)
1c000680:	15ffffed 	lu12i.w	$r13,-1(0xfffff)
1c000684:	00103dc4 	add.w	$r4,$r14,$r15
1c000688:	0010348e 	add.w	$r14,$r4,$r13
1c00068c:	03a02007 	ori	$r7,$r0,0x808
1c000690:	001038e8 	add.w	$r8,$r7,$r14
1c000694:	2980106e 	st.w	$r14,$r3,4(0x4)
1c000698:	295fb9d9 	st.h	$r25,$r14,2030(0x7ee)
1c00069c:	29800118 	st.w	$r24,$r8,0
1c0006a0:	295fb1c6 	st.h	$r6,$r14,2028(0x7ec)
1c0006a4:	295fc1cc 	st.h	$r12,$r14,2032(0x7f0)
1c0006a8:	580c4ae0 	beq	$r23,$r0,3144(0xc48) # 1c0012f0 <core_mark+0xcf0>
1c0006ac:	03a03001 	ori	$r1,$r0,0x80c
1c0006b0:	03a0801a 	ori	$r26,$r0,0x820
1c0006b4:	0280407b 	addi.w	$r27,$r3,16(0x10)
1c0006b8:	00103829 	add.w	$r9,$r1,$r14
1c0006bc:	15fffff4 	lu12i.w	$r20,-1(0xfffff)
1c0006c0:	00106f5c 	add.w	$r28,$r26,$r27
1c0006c4:	0010539d 	add.w	$r29,$r28,$r20
1c0006c8:	29800137 	st.w	$r23,$r9,0
1c0006cc:	289fb3be 	ld.w	$r30,$r29,2028(0x7ec)
1c0006d0:	034006f0 	andi	$r16,$r23,0x1
1c0006d4:	2980107d 	st.w	$r29,$r3,4(0x4)
1c0006d8:	00150213 	move	$r19,$r16
1c0006dc:	5801fbc0 	beq	$r30,$r0,504(0x1f8) # 1c0008d4 <core_mark+0x2d4>
1c0006e0:	0280041f 	addi.w	$r31,$r0,1(0x1)
1c0006e4:	5c002fdf 	bne	$r30,$r31,44(0x2c) # 1c000710 <core_mark+0x110>
1c0006e8:	5c002980 	bne	$r12,$r0,40(0x28) # 1c000710 <core_mark+0x110>
1c0006ec:	2880106d 	ld.w	$r13,$r3,4(0x4)
1c0006f0:	14682a79 	lu12i.w	$r25,213331(0x34153)
1c0006f4:	02819818 	addi.w	$r24,$r0,102(0x66)
1c0006f8:	14000066 	lu12i.w	$r6,3(0x3)
1c0006fc:	0390572c 	ori	$r12,$r25,0x415
1c000700:	295fc1b8 	st.h	$r24,$r13,2032(0x7f0)
1c000704:	039054c6 	ori	$r6,$r6,0x415
1c000708:	2980706c 	st.w	$r12,$r3,28(0x1c)
1c00070c:	03400000 	andi	$r0,$r0,0x0
1c000710:	03400ae5 	andi	$r5,$r23,0x2
1c000714:	0281806e 	addi.w	$r14,$r3,96(0x60)
1c000718:	00129408 	sltu	$r8,$r0,$r5
1c00071c:	29417060 	st.h	$r0,$r3,92(0x5c)
1c000720:	2980906e 	st.w	$r14,$r3,36(0x24)
1c000724:	034012e1 	andi	$r1,$r23,0x4
1c000728:	00102209 	add.w	$r9,$r16,$r8
1c00072c:	58001020 	beq	$r1,$r0,16(0x10) # 1c00073c <core_mark+0x13c>
1c000730:	0280052a 	addi.w	$r10,$r9,1(0x1)
1c000734:	2980106a 	st.w	$r10,$r3,4(0x4)
1c000738:	2a401069 	ld.hu	$r9,$r3,4(0x4)
1c00073c:	03a08012 	ori	$r18,$r0,0x820
1c000740:	02804074 	addi.w	$r20,$r3,16(0x10)
1c000744:	15ffffeb 	lu12i.w	$r11,-1(0xfffff)
1c000748:	0010525a 	add.w	$r26,$r18,$r20
1c00074c:	00102f5b 	add.w	$r27,$r26,$r11
1c000750:	03a0101d 	ori	$r29,$r0,0x804
1c000754:	029f4011 	addi.w	$r17,$r0,2000(0x7d0)
1c000758:	00106fbe 	add.w	$r30,$r29,$r27
1c00075c:	00212624 	div.wu	$r4,$r17,$r9
1c000760:	5c000920 	bne	$r9,$r0,8(0x8) # 1c000768 <core_mark+0x168>
1c000764:	002a0007 	break	0x7
1c000768:	2980107b 	st.w	$r27,$r3,4(0x4)
1c00076c:	298003c4 	st.w	$r4,$r30,0
1c000770:	00150018 	move	$r24,$r0
1c000774:	5c0bf600 	bne	$r16,$r0,3060(0xbf4) # 1c001368 <core_mark+0xd68>
1c000778:	5c0c00a0 	bne	$r5,$r0,3072(0xc00) # 1c001378 <core_mark+0xd78>
1c00077c:	5c0c1c20 	bne	$r1,$r0,3100(0xc1c) # 1c001398 <core_mark+0xd98>
1c000780:	58004660 	beq	$r19,$r0,68(0x44) # 1c0007c4 <core_mark+0x1c4>
1c000784:	03a08017 	ori	$r23,$r0,0x820
1c000788:	02804065 	addi.w	$r5,$r3,16(0x10)
1c00078c:	001016ee 	add.w	$r14,$r23,$r5
1c000790:	15fffff3 	lu12i.w	$r19,-1(0xfffff)
1c000794:	00104dc1 	add.w	$r1,$r14,$r19
1c000798:	289fe025 	ld.w	$r5,$r1,2040(0x7f8)
1c00079c:	29801061 	st.w	$r1,$r3,4(0x4)
1c0007a0:	54840000 	bl	33792(0x8400) # 1c008ba0 <core_list_init>
1c0007a4:	28801066 	ld.w	$r6,$r3,4(0x4)
1c0007a8:	03a03009 	ori	$r9,$r0,0x80c
1c0007ac:	03a0400b 	ori	$r11,$r0,0x810
1c0007b0:	0010192a 	add.w	$r10,$r9,$r6
1c0007b4:	28800157 	ld.w	$r23,$r10,0
1c0007b8:	00101972 	add.w	$r18,$r11,$r6
1c0007bc:	29800244 	st.w	$r4,$r18,0
1c0007c0:	03400ae5 	andi	$r5,$r23,0x2
1c0007c4:	5c0a60a0 	bne	$r5,$r0,2656(0xa60) # 1c001224 <core_mark+0xc24>
1c0007c8:	034012ef 	andi	$r15,$r23,0x4
1c0007cc:	58003de0 	beq	$r15,$r0,60(0x3c) # 1c000808 <core_mark+0x208>
1c0007d0:	03a08008 	ori	$r8,$r0,0x820
1c0007d4:	02804073 	addi.w	$r19,$r3,16(0x10)
1c0007d8:	15ffffe7 	lu12i.w	$r7,-1(0xfffff)
1c0007dc:	00104d17 	add.w	$r23,$r8,$r19
1c0007e0:	00101eed 	add.w	$r13,$r23,$r7
1c0007e4:	03a00006 	ori	$r6,$r0,0x800
1c0007e8:	03a0100a 	ori	$r10,$r0,0x804
1c0007ec:	001034c9 	add.w	$r9,$r6,$r13
1c0007f0:	0010354b 	add.w	$r11,$r10,$r13
1c0007f4:	285fb1a5 	ld.h	$r5,$r13,2028(0x7ec)
1c0007f8:	28800126 	ld.w	$r6,$r9,0
1c0007fc:	28800164 	ld.w	$r4,$r11,0
1c000800:	2980106d 	st.w	$r13,$r3,4(0x4)
1c000804:	545ffc00 	bl	24572(0x5ffc) # 1c006800 <core_init_state>
1c000808:	03a08012 	ori	$r18,$r0,0x820
1c00080c:	02804064 	addi.w	$r4,$r3,16(0x10)
1c000810:	15ffffe5 	lu12i.w	$r5,-1(0xfffff)
1c000814:	00101254 	add.w	$r20,$r18,$r4
1c000818:	0010169a 	add.w	$r26,$r20,$r5
1c00081c:	03a0201b 	ori	$r27,$r0,0x808
1c000820:	00106b7c 	add.w	$r28,$r27,$r26
1c000824:	2880039d 	ld.w	$r29,$r28,0
1c000828:	5c0117a0 	bne	$r29,$r0,276(0x114) # 1c00093c <core_mark+0x33c>
1c00082c:	03a08011 	ori	$r17,$r0,0x820
1c000830:	0280406e 	addi.w	$r14,$r3,16(0x10)
1c000834:	039fb0be 	ori	$r30,$r5,0x7ec
1c000838:	00103a30 	add.w	$r16,$r17,$r14
1c00083c:	0280041d 	addi.w	$r29,$r0,1(0x1)
1c000840:	0280281f 	addi.w	$r31,$r0,10(0xa)
1c000844:	00107a18 	add.w	$r24,$r16,$r30
1c000848:	001c7fb9 	mul.w	$r25,$r29,$r31
1c00084c:	03a0200c 	ori	$r12,$r0,0x808
1c000850:	0010698f 	add.w	$r15,$r12,$r26
1c000854:	00150017 	move	$r23,$r0
1c000858:	298001f9 	st.w	$r25,$r15,0
1c00085c:	54532400 	bl	21284(0x5324) # 1c005b80 <start_time>
1c000860:	03a02007 	ori	$r7,$r0,0x808
1c000864:	001068e8 	add.w	$r8,$r7,$r26
1c000868:	2880011b 	ld.w	$r27,$r8,0
1c00086c:	29815060 	st.w	$r0,$r3,84(0x54)
1c000870:	29816060 	st.w	$r0,$r3,88(0x58)
1c000874:	58004360 	beq	$r27,$r0,64(0x40) # 1c0008b4 <core_mark+0x2b4>
1c000878:	02800405 	addi.w	$r5,$r0,1(0x1)
1c00087c:	00150304 	move	$r4,$r24
1c000880:	54787000 	bl	30832(0x7870) # 1c0080f0 <core_bench_list>
1c000884:	2a415065 	ld.hu	$r5,$r3,84(0x54)
1c000888:	5469e800 	bl	27112(0x69e8) # 1c007270 <crcu16>
1c00088c:	29415064 	st.h	$r4,$r3,84(0x54)
1c000890:	02bffc05 	addi.w	$r5,$r0,-1(0xfff)
1c000894:	00150304 	move	$r4,$r24
1c000898:	54785800 	bl	30808(0x7858) # 1c0080f0 <core_bench_list>
1c00089c:	2a415065 	ld.hu	$r5,$r3,84(0x54)
1c0008a0:	5469d000 	bl	27088(0x69d0) # 1c007270 <crcu16>
1c0008a4:	29415064 	st.h	$r4,$r3,84(0x54)
1c0008a8:	580a9ee0 	beq	$r23,$r0,2716(0xa9c) # 1c001344 <core_mark+0xd44>
1c0008ac:	028006f7 	addi.w	$r23,$r23,1(0x1)
1c0008b0:	5fffcb77 	bne	$r27,$r23,-56(0x3ffc8) # 1c000878 <core_mark+0x278>
1c0008b4:	5452dc00 	bl	21212(0x52dc) # 1c005b90 <stop_time>
1c0008b8:	5452e800 	bl	21224(0x52e8) # 1c005ba0 <get_time>
1c0008bc:	54533400 	bl	21300(0x5334) # 1c005bf0 <time_in_secs>
1c0008c0:	5c003080 	bne	$r4,$r0,48(0x30) # 1c0008f0 <core_mark+0x2f0>
1c0008c4:	03a02017 	ori	$r23,$r0,0x808
1c0008c8:	00106af9 	add.w	$r25,$r23,$r26
1c0008cc:	2880033d 	ld.w	$r29,$r25,0
1c0008d0:	53ff7bff 	b	-136(0xfffff78) # 1c000848 <core_mark+0x248>
1c0008d4:	5ffe3d80 	bne	$r12,$r0,-452(0x3fe3c) # 1c000710 <core_mark+0x110>
1c0008d8:	28801064 	ld.w	$r4,$r3,4(0x4)
1c0008dc:	0281980f 	addi.w	$r15,$r0,102(0x66)
1c0008e0:	29807060 	st.w	$r0,$r3,28(0x1c)
1c0008e4:	00150006 	move	$r6,$r0
1c0008e8:	295fc08f 	st.h	$r15,$r4,2032(0x7f0)
1c0008ec:	53fe27ff 	b	-476(0xffffe24) # 1c000710 <core_mark+0x110>
1c0008f0:	03a08006 	ori	$r6,$r0,0x820
1c0008f4:	02804069 	addi.w	$r9,$r3,16(0x10)
1c0008f8:	15ffffe1 	lu12i.w	$r1,-1(0xfffff)
1c0008fc:	001024ca 	add.w	$r10,$r6,$r9
1c000900:	0010054b 	add.w	$r11,$r10,$r1
1c000904:	0280280d 	addi.w	$r13,$r0,10(0xa)
1c000908:	2980106b 	st.w	$r11,$r3,4(0x4)
1c00090c:	002111a5 	div.wu	$r5,$r13,$r4
1c000910:	5c000880 	bne	$r4,$r0,8(0x8) # 1c000918 <core_mark+0x318>
1c000914:	002a0007 	break	0x7
1c000918:	28801064 	ld.w	$r4,$r3,4(0x4)
1c00091c:	03a02014 	ori	$r20,$r0,0x808
1c000920:	028004b2 	addi.w	$r18,$r5,1(0x1)
1c000924:	0010129a 	add.w	$r26,$r20,$r4
1c000928:	2880035c 	ld.w	$r28,$r26,0
1c00092c:	03a0201e 	ori	$r30,$r0,0x808
1c000930:	001013df 	add.w	$r31,$r30,$r4
1c000934:	001c725d 	mul.w	$r29,$r18,$r28
1c000938:	298003fd 	st.w	$r29,$r31,0
1c00093c:	02800411 	addi.w	$r17,$r0,1(0x1)
1c000940:	1c001017 	pcaddu12i	$r23,128(0x80)
1c000944:	28bb72f7 	ld.w	$r23,$r23,-292(0xedc)
1c000948:	1c000fe4 	pcaddu12i	$r4,127(0x7f)
1c00094c:	029de084 	addi.w	$r4,$r4,1912(0x778)
1c000950:	298002f1 	st.w	$r17,$r23,0
1c000954:	548f1c00 	bl	36636(0x8f1c) # 1c009870 <puts>
1c000958:	5493f800 	bl	37880(0x93f8) # 1c009d50 <get_ns>
1c00095c:	2880e07a 	ld.w	$r26,$r3,56(0x38)
1c000960:	15ffffee 	lu12i.w	$r14,-1(0xfffff)
1c000964:	03a08019 	ori	$r25,$r0,0x820
1c000968:	0280406c 	addi.w	$r12,$r3,16(0x10)
1c00096c:	039fb1d0 	ori	$r16,$r14,0x7ec
1c000970:	0010332f 	add.w	$r15,$r25,$r12
1c000974:	29815060 	st.w	$r0,$r3,84(0x54)
1c000978:	29816060 	st.w	$r0,$r3,88(0x58)
1c00097c:	00150018 	move	$r24,$r0
1c000980:	0015009b 	move	$r27,$r4
1c000984:	001041fc 	add.w	$r28,$r15,$r16
1c000988:	58004740 	beq	$r26,$r0,68(0x44) # 1c0009cc <core_mark+0x3cc>
1c00098c:	03400000 	andi	$r0,$r0,0x0
1c000990:	02800405 	addi.w	$r5,$r0,1(0x1)
1c000994:	00150384 	move	$r4,$r28
1c000998:	54775800 	bl	30552(0x7758) # 1c0080f0 <core_bench_list>
1c00099c:	2a415065 	ld.hu	$r5,$r3,84(0x54)
1c0009a0:	5468d000 	bl	26832(0x68d0) # 1c007270 <crcu16>
1c0009a4:	29415064 	st.h	$r4,$r3,84(0x54)
1c0009a8:	02bffc05 	addi.w	$r5,$r0,-1(0xfff)
1c0009ac:	00150384 	move	$r4,$r28
1c0009b0:	54774000 	bl	30528(0x7740) # 1c0080f0 <core_bench_list>
1c0009b4:	2a415065 	ld.hu	$r5,$r3,84(0x54)
1c0009b8:	5468b800 	bl	26808(0x68b8) # 1c007270 <crcu16>
1c0009bc:	29415064 	st.h	$r4,$r3,84(0x54)
1c0009c0:	5808c300 	beq	$r24,$r0,2240(0x8c0) # 1c001280 <core_mark+0xc80>
1c0009c4:	02800718 	addi.w	$r24,$r24,1(0x1)
1c0009c8:	5fffcb58 	bne	$r26,$r24,-56(0x3ffc8) # 1c000990 <core_mark+0x390>
1c0009cc:	54938400 	bl	37764(0x9384) # 1c009d50 <get_ns>
1c0009d0:	00116c9b 	sub.w	$r27,$r4,$r27
1c0009d4:	1c000fe4 	pcaddu12i	$r4,127(0x7f)
1c0009d8:	029be084 	addi.w	$r4,$r4,1784(0x6f8)
1c0009dc:	548e9400 	bl	36500(0x8e94) # 1c009870 <puts>
1c0009e0:	03a08013 	ori	$r19,$r0,0x820
1c0009e4:	0280406d 	addi.w	$r13,$r3,16(0x10)
1c0009e8:	15ffffe8 	lu12i.w	$r8,-1(0xfffff)
1c0009ec:	00103666 	add.w	$r6,$r19,$r13
1c0009f0:	001020c9 	add.w	$r9,$r6,$r8
1c0009f4:	285fb124 	ld.h	$r4,$r9,2028(0x7ec)
1c0009f8:	00150005 	move	$r5,$r0
1c0009fc:	29801069 	st.w	$r9,$r3,4(0x4)
1c000a00:	54702000 	bl	28704(0x7020) # 1c007a20 <crc16>
1c000a04:	2880106a 	ld.w	$r10,$r3,4(0x4)
1c000a08:	00150085 	move	$r5,$r4
1c000a0c:	285fb944 	ld.h	$r4,$r10,2030(0x7ee)
1c000a10:	54701000 	bl	28688(0x7010) # 1c007a20 <crc16>
1c000a14:	2880106b 	ld.w	$r11,$r3,4(0x4)
1c000a18:	00150085 	move	$r5,$r4
1c000a1c:	285fc164 	ld.h	$r4,$r11,2032(0x7f0)
1c000a20:	54700000 	bl	28672(0x7000) # 1c007a20 <crc16>
1c000a24:	28801065 	ld.w	$r5,$r3,4(0x4)
1c000a28:	03a01012 	ori	$r18,$r0,0x804
1c000a2c:	00101654 	add.w	$r20,$r18,$r5
1c000a30:	2880029d 	ld.w	$r29,$r20,0
1c000a34:	00150085 	move	$r5,$r4
1c000a38:	2980107d 	st.w	$r29,$r3,4(0x4)
1c000a3c:	28401064 	ld.h	$r4,$r3,4(0x4)
1c000a40:	546fe000 	bl	28640(0x6fe0) # 1c007a20 <crc16>
1c000a44:	0015009a 	move	$r26,$r4
1c000a48:	140000e4 	lu12i.w	$r4,7(0x7)
1c000a4c:	03ac149e 	ori	$r30,$r4,0xb05
1c000a50:	58099f5e 	beq	$r26,$r30,2460(0x99c) # 1c0013ec <core_mark+0xdec>
1c000a54:	6c078fda 	bgeu	$r30,$r26,1932(0x78c) # 1c0011e0 <core_mark+0xbe0>
1c000a58:	14000101 	lu12i.w	$r1,8(0x8)
1c000a5c:	03a80831 	ori	$r17,$r1,0xa02
1c000a60:	5809b751 	beq	$r26,$r17,2484(0x9b4) # 1c001414 <core_mark+0xe14>
1c000a64:	140001cf 	lu12i.w	$r15,14(0xe)
1c000a68:	03a7d5f9 	ori	$r25,$r15,0x9f5
1c000a6c:	5c085f59 	bne	$r26,$r25,2140(0x85c) # 1c0012c8 <core_mark+0xcc8>
1c000a70:	1400003c 	lu12i.w	$r28,1(0x1)
1c000a74:	1c000fe4 	pcaddu12i	$r4,127(0x7f)
1c000a78:	029bd084 	addi.w	$r4,$r4,1780(0x6f4)
1c000a7c:	03bf5f9d 	ori	$r29,$r28,0xfd7
1c000a80:	03b8e839 	ori	$r25,$r1,0xe3a
1c000a84:	039c51f8 	ori	$r24,$r15,0x714
1c000a88:	548de800 	bl	36328(0x8de8) # 1c009870 <puts>
1c000a8c:	2980307d 	st.w	$r29,$r3,12(0xc)
1c000a90:	288002f2 	ld.w	$r18,$r23,0
1c000a94:	0015001c 	move	$r28,$r0
1c000a98:	00150016 	move	$r22,$r0
1c000a9c:	5809d240 	beq	$r18,$r0,2512(0x9d0) # 1c00146c <core_mark+0xe6c>
1c000aa0:	03a08001 	ori	$r1,$r0,0x820
1c000aa4:	02804071 	addi.w	$r17,$r3,16(0x10)
1c000aa8:	15ffffe4 	lu12i.w	$r4,-1(0xfffff)
1c000aac:	0010442e 	add.w	$r14,$r1,$r17
1c000ab0:	001011d0 	add.w	$r16,$r14,$r4
1c000ab4:	0281101f 	addi.w	$r31,$r0,68(0x44)
1c000ab8:	1400003e 	lu12i.w	$r30,1(0x1)
1c000abc:	29801070 	st.w	$r16,$r3,4(0x4)
1c000ac0:	50004000 	b	64(0x40) # 1c000b00 <core_mark+0x500>
1c000ac4:	001c7ec7 	mul.w	$r7,$r22,$r31
1c000ac8:	2880106c 	ld.w	$r12,$r3,4(0x4)
1c000acc:	00101d88 	add.w	$r8,$r12,$r7
1c000ad0:	001023d3 	add.w	$r19,$r30,$r8
1c000ad4:	2a60b274 	ld.hu	$r20,$r19,-2004(0x82c)
1c000ad8:	0010729c 	add.w	$r28,$r20,$r28
1c000adc:	2980207c 	st.w	$r28,$r3,8(0x8)
1c000ae0:	028006d6 	addi.w	$r22,$r22,1(0x1)
1c000ae4:	2a402074 	ld.hu	$r20,$r3,8(0x8)
1c000ae8:	29802076 	st.w	$r22,$r3,8(0x8)
1c000aec:	2a402076 	ld.hu	$r22,$r3,8(0x8)
1c000af0:	288002e4 	ld.w	$r4,$r23,0
1c000af4:	29802074 	st.w	$r20,$r3,8(0x8)
1c000af8:	2840207c 	ld.h	$r28,$r3,8(0x8)
1c000afc:	6c00f6c4 	bgeu	$r22,$r4,244(0xf4) # 1c000bf0 <core_mark+0x5f0>
1c000b00:	001c7ecf 	mul.w	$r15,$r22,$r31
1c000b04:	2880106c 	ld.w	$r12,$r3,4(0x4)
1c000b08:	00103d87 	add.w	$r7,$r12,$r15
1c000b0c:	00101fc8 	add.w	$r8,$r30,$r7
1c000b10:	28a03113 	ld.w	$r19,$r8,-2036(0x80c)
1c000b14:	2960b100 	st.h	$r0,$r8,-2004(0x82c)
1c000b18:	0340066d 	andi	$r13,$r19,0x1
1c000b1c:	580035a0 	beq	$r13,$r0,52(0x34) # 1c000b50 <core_mark+0x550>
1c000b20:	2a609906 	ld.hu	$r6,$r8,-2010(0x826)
1c000b24:	29802068 	st.w	$r8,$r3,8(0x8)
1c000b28:	580028d8 	beq	$r6,$r24,40(0x28) # 1c000b50 <core_mark+0x550>
1c000b2c:	00150307 	move	$r7,$r24
1c000b30:	001502c5 	move	$r5,$r22
1c000b34:	1c000fe4 	pcaddu12i	$r4,127(0x7f)
1c000b38:	029a3084 	addi.w	$r4,$r4,1676(0x68c)
1c000b3c:	548a1400 	bl	35348(0x8a14) # 1c009550 <printf>
1c000b40:	28802066 	ld.w	$r6,$r3,8(0x8)
1c000b44:	2a60b0c9 	ld.hu	$r9,$r6,-2004(0x82c)
1c000b48:	0280052a 	addi.w	$r10,$r9,1(0x1)
1c000b4c:	2960b0ca 	st.h	$r10,$r6,-2004(0x82c)
1c000b50:	001c7ecb 	mul.w	$r11,$r22,$r31
1c000b54:	28801065 	ld.w	$r5,$r3,4(0x4)
1c000b58:	00102cb2 	add.w	$r18,$r5,$r11
1c000b5c:	00104bd4 	add.w	$r20,$r30,$r18
1c000b60:	28a03290 	ld.w	$r16,$r20,-2036(0x80c)
1c000b64:	03400a04 	andi	$r4,$r16,0x2
1c000b68:	58003880 	beq	$r4,$r0,56(0x38) # 1c000ba0 <core_mark+0x5a0>
1c000b6c:	2a60a286 	ld.hu	$r6,$r20,-2008(0x828)
1c000b70:	29802074 	st.w	$r20,$r3,8(0x8)
1c000b74:	58002cdd 	beq	$r6,$r29,44(0x2c) # 1c000ba0 <core_mark+0x5a0>
1c000b78:	28803067 	ld.w	$r7,$r3,12(0xc)
1c000b7c:	001502c5 	move	$r5,$r22
1c000b80:	1c000fe4 	pcaddu12i	$r4,127(0x7f)
1c000b84:	0299c084 	addi.w	$r4,$r4,1648(0x670)
1c000b88:	5489c800 	bl	35272(0x89c8) # 1c009550 <printf>
1c000b8c:	28802071 	ld.w	$r17,$r3,8(0x8)
1c000b90:	2a60b22e 	ld.hu	$r14,$r17,-2004(0x82c)
1c000b94:	28a03230 	ld.w	$r16,$r17,-2036(0x80c)
1c000b98:	028005cf 	addi.w	$r15,$r14,1(0x1)
1c000b9c:	2960b22f 	st.h	$r15,$r17,-2004(0x82c)
1c000ba0:	03401201 	andi	$r1,$r16,0x4
1c000ba4:	5bff2020 	beq	$r1,$r0,-224(0x3ff20) # 1c000ac4 <core_mark+0x4c4>
1c000ba8:	001c7ecd 	mul.w	$r13,$r22,$r31
1c000bac:	28801066 	ld.w	$r6,$r3,4(0x4)
1c000bb0:	001034c9 	add.w	$r9,$r6,$r13
1c000bb4:	001027ca 	add.w	$r10,$r30,$r9
1c000bb8:	2a60a946 	ld.hu	$r6,$r10,-2006(0x82a)
1c000bbc:	5c06d8d9 	bne	$r6,$r25,1752(0x6d8) # 1c001294 <core_mark+0xc94>
1c000bc0:	2a60b154 	ld.hu	$r20,$r10,-2004(0x82c)
1c000bc4:	028006d6 	addi.w	$r22,$r22,1(0x1)
1c000bc8:	288002e4 	ld.w	$r4,$r23,0
1c000bcc:	0010729c 	add.w	$r28,$r20,$r28
1c000bd0:	2980207c 	st.w	$r28,$r3,8(0x8)
1c000bd4:	2a402074 	ld.hu	$r20,$r3,8(0x8)
1c000bd8:	29802076 	st.w	$r22,$r3,8(0x8)
1c000bdc:	2a402076 	ld.hu	$r22,$r3,8(0x8)
1c000be0:	29802074 	st.w	$r20,$r3,8(0x8)
1c000be4:	2840207c 	ld.h	$r28,$r3,8(0x8)
1c000be8:	6bff1ac4 	bltu	$r22,$r4,-232(0x3ff18) # 1c000b00 <core_mark+0x500>
1c000bec:	03400000 	andi	$r0,$r0,0x0
1c000bf0:	29802074 	st.w	$r20,$r3,8(0x8)
1c000bf4:	03a0801f 	ori	$r31,$r0,0x820
1c000bf8:	5470c800 	bl	28872(0x70c8) # 1c007cc0 <check_data_types>
1c000bfc:	0280407e 	addi.w	$r30,$r3,16(0x10)
1c000c00:	00107bf1 	add.w	$r17,$r31,$r30
1c000c04:	15fffff9 	lu12i.w	$r25,-1(0xfffff)
1c000c08:	0010662e 	add.w	$r14,$r17,$r25
1c000c0c:	28802070 	ld.w	$r16,$r3,8(0x8)
1c000c10:	03a0100c 	ori	$r12,$r0,0x804
1c000c14:	00103988 	add.w	$r8,$r12,$r14
1c000c18:	28800105 	ld.w	$r5,$r8,0
1c000c1c:	0010120f 	add.w	$r15,$r16,$r4
1c000c20:	2980206f 	st.w	$r15,$r3,8(0x8)
1c000c24:	1c000fe4 	pcaddu12i	$r4,127(0x7f)
1c000c28:	0298c084 	addi.w	$r4,$r4,1584(0x630)
1c000c2c:	2980106e 	st.w	$r14,$r3,4(0x4)
1c000c30:	28402079 	ld.h	$r25,$r3,8(0x8)
1c000c34:	54891c00 	bl	35100(0x891c) # 1c009550 <printf>
1c000c38:	00150365 	move	$r5,$r27
1c000c3c:	1c000fe4 	pcaddu12i	$r4,127(0x7f)
1c000c40:	0298c084 	addi.w	$r4,$r4,1584(0x630)
1c000c44:	54890c00 	bl	35084(0x890c) # 1c009550 <printf>
1c000c48:	2880106d 	ld.w	$r13,$r3,4(0x4)
1c000c4c:	03a02006 	ori	$r6,$r0,0x808
1c000c50:	288002f3 	ld.w	$r19,$r23,0
1c000c54:	001034c9 	add.w	$r9,$r6,$r13
1c000c58:	2880012a 	ld.w	$r10,$r9,0
1c000c5c:	1477358b 	lu12i.w	$r11,244140(0x3b9ac)
1c000c60:	03a80172 	ori	$r18,$r11,0xa00
1c000c64:	001c4d45 	mul.w	$r5,$r10,$r19
1c000c68:	1c000fe4 	pcaddu12i	$r4,127(0x7f)
1c000c6c:	02985084 	addi.w	$r4,$r4,1556(0x614)
1c000c70:	03a0201c 	ori	$r28,$r0,0x808
1c000c74:	00150018 	move	$r24,$r0
1c000c78:	001c48b4 	mul.w	$r20,$r5,$r18
1c000c7c:	00216e85 	div.wu	$r5,$r20,$r27
1c000c80:	5c000b60 	bne	$r27,$r0,8(0x8) # 1c000c88 <core_mark+0x688>
1c000c84:	002a0007 	break	0x7
1c000c88:	5488c800 	bl	35016(0x88c8) # 1c009550 <printf>
1c000c8c:	1c000fe4 	pcaddu12i	$r4,127(0x7f)
1c000c90:	02982084 	addi.w	$r4,$r4,1544(0x608)
1c000c94:	548bdc00 	bl	35804(0x8bdc) # 1c009870 <puts>
1c000c98:	1c000fe4 	pcaddu12i	$r4,127(0x7f)
1c000c9c:	02996084 	addi.w	$r4,$r4,1624(0x658)
1c000ca0:	548bd000 	bl	35792(0x8bd0) # 1c009870 <puts>
1c000ca4:	00150366 	move	$r6,$r27
1c000ca8:	2880107b 	ld.w	$r27,$r3,4(0x4)
1c000cac:	00106f84 	add.w	$r4,$r28,$r27
1c000cb0:	28800085 	ld.w	$r5,$r4,0
1c000cb4:	1c000fe4 	pcaddu12i	$r4,127(0x7f)
1c000cb8:	0299a084 	addi.w	$r4,$r4,1640(0x668)
1c000cbc:	54889400 	bl	34964(0x8894) # 1c009550 <printf>
1c000cc0:	00150305 	move	$r5,$r24
1c000cc4:	1c000fe4 	pcaddu12i	$r4,127(0x7f)
1c000cc8:	029a1084 	addi.w	$r4,$r4,1668(0x684)
1c000ccc:	54888400 	bl	34948(0x8884) # 1c009550 <printf>
1c000cd0:	00150304 	move	$r4,$r24
1c000cd4:	544f1c00 	bl	20252(0x4f1c) # 1c005bf0 <time_in_secs>
1c000cd8:	00150085 	move	$r5,$r4
1c000cdc:	1c000fe4 	pcaddu12i	$r4,127(0x7f)
1c000ce0:	029a1084 	addi.w	$r4,$r4,1668(0x684)
1c000ce4:	54886c00 	bl	34924(0x886c) # 1c009550 <printf>
1c000ce8:	00150304 	move	$r4,$r24
1c000cec:	544f0400 	bl	20228(0x4f04) # 1c005bf0 <time_in_secs>
1c000cf0:	5c06c080 	bne	$r4,$r0,1728(0x6c0) # 1c0013b0 <core_mark+0xdb0>
1c000cf4:	0280406f 	addi.w	$r15,$r3,16(0x10)
1c000cf8:	03a0800e 	ori	$r14,$r0,0x820
1c000cfc:	15fffff0 	lu12i.w	$r16,-1(0xfffff)
1c000d00:	00103dc7 	add.w	$r7,$r14,$r15
1c000d04:	001040ee 	add.w	$r14,$r7,$r16
1c000d08:	03a02008 	ori	$r8,$r0,0x808
1c000d0c:	00103913 	add.w	$r19,$r8,$r14
1c000d10:	288002f1 	ld.w	$r17,$r23,0
1c000d14:	2880026d 	ld.w	$r13,$r19,0
1c000d18:	1c000fe4 	pcaddu12i	$r4,127(0x7f)
1c000d1c:	0299e084 	addi.w	$r4,$r4,1656(0x678)
1c000d20:	2980106e 	st.w	$r14,$r3,4(0x4)
1c000d24:	001c45a5 	mul.w	$r5,$r13,$r17
1c000d28:	54882800 	bl	34856(0x8828) # 1c009550 <printf>
1c000d2c:	1c000fe5 	pcaddu12i	$r5,127(0x7f)
1c000d30:	0299f0a5 	addi.w	$r5,$r5,1660(0x67c)
1c000d34:	1c000fe4 	pcaddu12i	$r4,127(0x7f)
1c000d38:	029a0084 	addi.w	$r4,$r4,1664(0x680)
1c000d3c:	54881400 	bl	34836(0x8814) # 1c009550 <printf>
1c000d40:	1c000fe5 	pcaddu12i	$r5,127(0x7f)
1c000d44:	029810a5 	addi.w	$r5,$r5,1540(0x604)
1c000d48:	1c000fe4 	pcaddu12i	$r4,127(0x7f)
1c000d4c:	029a1084 	addi.w	$r4,$r4,1668(0x684)
1c000d50:	54880000 	bl	34816(0x8800) # 1c009550 <printf>
1c000d54:	1c000fe5 	pcaddu12i	$r5,127(0x7f)
1c000d58:	029a40a5 	addi.w	$r5,$r5,1680(0x690)
1c000d5c:	1c000fe4 	pcaddu12i	$r4,127(0x7f)
1c000d60:	029b6084 	addi.w	$r4,$r4,1752(0x6d8)
1c000d64:	5487ec00 	bl	34796(0x87ec) # 1c009550 <printf>
1c000d68:	00150345 	move	$r5,$r26
1c000d6c:	1c000fe4 	pcaddu12i	$r4,127(0x7f)
1c000d70:	029b8084 	addi.w	$r4,$r4,1760(0x6e0)
1c000d74:	5487dc00 	bl	34780(0x87dc) # 1c009550 <printf>
1c000d78:	2880107a 	ld.w	$r26,$r3,4(0x4)
1c000d7c:	03a03006 	ori	$r6,$r0,0x80c
1c000d80:	001068c9 	add.w	$r9,$r6,$r26
1c000d84:	2880013a 	ld.w	$r26,$r9,0
1c000d88:	0340074a 	andi	$r10,$r26,0x1
1c000d8c:	58054940 	beq	$r10,$r0,1352(0x548) # 1c0012d4 <core_mark+0xcd4>
1c000d90:	288002eb 	ld.w	$r11,$r23,0
1c000d94:	0015001b 	move	$r27,$r0
1c000d98:	2880107f 	ld.w	$r31,$r3,4(0x4)
1c000d9c:	0281101d 	addi.w	$r29,$r0,68(0x44)
1c000da0:	1400003c 	lu12i.w	$r28,1(0x1)
1c000da4:	1c000ffe 	pcaddu12i	$r30,127(0x7f)
1c000da8:	029b13de 	addi.w	$r30,$r30,1732(0x6c4)
1c000dac:	5803dd60 	beq	$r11,$r0,988(0x3dc) # 1c001188 <core_mark+0xb88>
1c000db0:	001c7772 	mul.w	$r18,$r27,$r29
1c000db4:	00150365 	move	$r5,$r27
1c000db8:	001503c4 	move	$r4,$r30
1c000dbc:	00104bf4 	add.w	$r20,$r31,$r18
1c000dc0:	00105381 	add.w	$r1,$r28,$r20
1c000dc4:	2a609826 	ld.hu	$r6,$r1,-2010(0x826)
1c000dc8:	54878800 	bl	34696(0x8788) # 1c009550 <printf>
1c000dcc:	02800765 	addi.w	$r5,$r27,1(0x1)
1c000dd0:	29801065 	st.w	$r5,$r3,4(0x4)
1c000dd4:	2a401078 	ld.hu	$r24,$r3,4(0x4)
1c000dd8:	288002e9 	ld.w	$r9,$r23,0
1c000ddc:	001503c4 	move	$r4,$r30
1c000de0:	00150305 	move	$r5,$r24
1c000de4:	6c008f09 	bgeu	$r24,$r9,140(0x8c) # 1c000e70 <core_mark+0x870>
1c000de8:	001c771b 	mul.w	$r27,$r24,$r29
1c000dec:	00106ff1 	add.w	$r17,$r31,$r27
1c000df0:	00104790 	add.w	$r16,$r28,$r17
1c000df4:	2a609a06 	ld.hu	$r6,$r16,-2010(0x826)
1c000df8:	54875800 	bl	34648(0x8758) # 1c009550 <printf>
1c000dfc:	0280070f 	addi.w	$r15,$r24,1(0x1)
1c000e00:	2980106f 	st.w	$r15,$r3,4(0x4)
1c000e04:	2a40107a 	ld.hu	$r26,$r3,4(0x4)
1c000e08:	288002e9 	ld.w	$r9,$r23,0
1c000e0c:	001503c4 	move	$r4,$r30
1c000e10:	00150345 	move	$r5,$r26
1c000e14:	6c005f49 	bgeu	$r26,$r9,92(0x5c) # 1c000e70 <core_mark+0x870>
1c000e18:	001c7747 	mul.w	$r7,$r26,$r29
1c000e1c:	00101fee 	add.w	$r14,$r31,$r7
1c000e20:	00103b8c 	add.w	$r12,$r28,$r14
1c000e24:	2a609986 	ld.hu	$r6,$r12,-2010(0x826)
1c000e28:	54872800 	bl	34600(0x8728) # 1c009550 <printf>
1c000e2c:	02800748 	addi.w	$r8,$r26,1(0x1)
1c000e30:	29801068 	st.w	$r8,$r3,4(0x4)
1c000e34:	2a401078 	ld.hu	$r24,$r3,4(0x4)
1c000e38:	288002e9 	ld.w	$r9,$r23,0
1c000e3c:	001503c4 	move	$r4,$r30
1c000e40:	00150305 	move	$r5,$r24
1c000e44:	6c002f09 	bgeu	$r24,$r9,44(0x2c) # 1c000e70 <core_mark+0x870>
1c000e48:	001c7713 	mul.w	$r19,$r24,$r29
1c000e4c:	00104fed 	add.w	$r13,$r31,$r19
1c000e50:	00103786 	add.w	$r6,$r28,$r13
1c000e54:	2a6098c6 	ld.hu	$r6,$r6,-2010(0x826)
1c000e58:	5486f800 	bl	34552(0x86f8) # 1c009550 <printf>
1c000e5c:	02800704 	addi.w	$r4,$r24,1(0x1)
1c000e60:	29801064 	st.w	$r4,$r3,4(0x4)
1c000e64:	288002e9 	ld.w	$r9,$r23,0
1c000e68:	2a40107b 	ld.hu	$r27,$r3,4(0x4)
1c000e6c:	6bff4769 	bltu	$r27,$r9,-188(0x3ff44) # 1c000db0 <core_mark+0x7b0>
1c000e70:	03a0300a 	ori	$r10,$r0,0x80c
1c000e74:	00107d4b 	add.w	$r11,$r10,$r31
1c000e78:	2880017a 	ld.w	$r26,$r11,0
1c000e7c:	03400b5f 	andi	$r31,$r26,0x2
1c000e80:	580117e0 	beq	$r31,$r0,276(0x114) # 1c000f94 <core_mark+0x994>
1c000e84:	58030520 	beq	$r9,$r0,772(0x304) # 1c001188 <core_mark+0xb88>
1c000e88:	03a08012 	ori	$r18,$r0,0x820
1c000e8c:	02804074 	addi.w	$r20,$r3,16(0x10)
1c000e90:	15fffffd 	lu12i.w	$r29,-1(0xfffff)
1c000e94:	00105241 	add.w	$r1,$r18,$r20
1c000e98:	00107425 	add.w	$r5,$r1,$r29
1c000e9c:	0015001b 	move	$r27,$r0
1c000ea0:	0281101c 	addi.w	$r28,$r0,68(0x44)
1c000ea4:	1400003e 	lu12i.w	$r30,1(0x1)
1c000ea8:	29801065 	st.w	$r5,$r3,4(0x4)
1c000eac:	1c000ffa 	pcaddu12i	$r26,127(0x7f)
1c000eb0:	0297635a 	addi.w	$r26,$r26,1496(0x5d8)
1c000eb4:	001c7371 	mul.w	$r17,$r27,$r28
1c000eb8:	28801070 	ld.w	$r16,$r3,4(0x4)
1c000ebc:	00150365 	move	$r5,$r27
1c000ec0:	00150344 	move	$r4,$r26
1c000ec4:	0010460f 	add.w	$r15,$r16,$r17
1c000ec8:	00103fc7 	add.w	$r7,$r30,$r15
1c000ecc:	2a60a0e6 	ld.hu	$r6,$r7,-2008(0x828)
1c000ed0:	54868000 	bl	34432(0x8680) # 1c009550 <printf>
1c000ed4:	0280076e 	addi.w	$r14,$r27,1(0x1)
1c000ed8:	2980206e 	st.w	$r14,$r3,8(0x8)
1c000edc:	2a402078 	ld.hu	$r24,$r3,8(0x8)
1c000ee0:	288002e9 	ld.w	$r9,$r23,0
1c000ee4:	00150344 	move	$r4,$r26
1c000ee8:	00150305 	move	$r5,$r24
1c000eec:	6c009b09 	bgeu	$r24,$r9,152(0x98) # 1c000f84 <core_mark+0x984>
1c000ef0:	001c730c 	mul.w	$r12,$r24,$r28
1c000ef4:	28801068 	ld.w	$r8,$r3,4(0x4)
1c000ef8:	00103113 	add.w	$r19,$r8,$r12
1c000efc:	00104fcd 	add.w	$r13,$r30,$r19
1c000f00:	2a60a1a6 	ld.hu	$r6,$r13,-2008(0x828)
1c000f04:	54864c00 	bl	34380(0x864c) # 1c009550 <printf>
1c000f08:	02800706 	addi.w	$r6,$r24,1(0x1)
1c000f0c:	29802066 	st.w	$r6,$r3,8(0x8)
1c000f10:	2a40207b 	ld.hu	$r27,$r3,8(0x8)
1c000f14:	288002e9 	ld.w	$r9,$r23,0
1c000f18:	00150344 	move	$r4,$r26
1c000f1c:	00150365 	move	$r5,$r27
1c000f20:	6c006769 	bgeu	$r27,$r9,100(0x64) # 1c000f84 <core_mark+0x984>
1c000f24:	001c7369 	mul.w	$r9,$r27,$r28
1c000f28:	2880106a 	ld.w	$r10,$r3,4(0x4)
1c000f2c:	0280077d 	addi.w	$r29,$r27,1(0x1)
1c000f30:	0010254b 	add.w	$r11,$r10,$r9
1c000f34:	00102fdf 	add.w	$r31,$r30,$r11
1c000f38:	2a60a3e6 	ld.hu	$r6,$r31,-2008(0x828)
1c000f3c:	54861400 	bl	34324(0x8614) # 1c009550 <printf>
1c000f40:	2980207d 	st.w	$r29,$r3,8(0x8)
1c000f44:	2a402078 	ld.hu	$r24,$r3,8(0x8)
1c000f48:	288002e9 	ld.w	$r9,$r23,0
1c000f4c:	00150344 	move	$r4,$r26
1c000f50:	00150305 	move	$r5,$r24
1c000f54:	6c003309 	bgeu	$r24,$r9,48(0x30) # 1c000f84 <core_mark+0x984>
1c000f58:	001c7312 	mul.w	$r18,$r24,$r28
1c000f5c:	28801074 	ld.w	$r20,$r3,4(0x4)
1c000f60:	00104a81 	add.w	$r1,$r20,$r18
1c000f64:	001007d1 	add.w	$r17,$r30,$r1
1c000f68:	2a60a226 	ld.hu	$r6,$r17,-2008(0x828)
1c000f6c:	5485e400 	bl	34276(0x85e4) # 1c009550 <printf>
1c000f70:	02800704 	addi.w	$r4,$r24,1(0x1)
1c000f74:	29802064 	st.w	$r4,$r3,8(0x8)
1c000f78:	288002e9 	ld.w	$r9,$r23,0
1c000f7c:	2a40207b 	ld.hu	$r27,$r3,8(0x8)
1c000f80:	6bff3769 	bltu	$r27,$r9,-204(0x3ff34) # 1c000eb4 <core_mark+0x8b4>
1c000f84:	2880107c 	ld.w	$r28,$r3,4(0x4)
1c000f88:	03a0301e 	ori	$r30,$r0,0x80c
1c000f8c:	001073c5 	add.w	$r5,$r30,$r28
1c000f90:	288000ba 	ld.w	$r26,$r5,0
1c000f94:	03401350 	andi	$r16,$r26,0x4
1c000f98:	5800f200 	beq	$r16,$r0,240(0xf0) # 1c001088 <core_mark+0xa88>
1c000f9c:	03a08007 	ori	$r7,$r0,0x820
1c000fa0:	0280406e 	addi.w	$r14,$r3,16(0x10)
1c000fa4:	15ffffef 	lu12i.w	$r15,-1(0xfffff)
1c000fa8:	001038ec 	add.w	$r12,$r7,$r14
1c000fac:	00150018 	move	$r24,$r0
1c000fb0:	0281101f 	addi.w	$r31,$r0,68(0x44)
1c000fb4:	1400003d 	lu12i.w	$r29,1(0x1)
1c000fb8:	00103d9c 	add.w	$r28,$r12,$r15
1c000fbc:	1c000ffb 	pcaddu12i	$r27,127(0x7f)
1c000fc0:	0293937b 	addi.w	$r27,$r27,1252(0x4e4)
1c000fc4:	5801c520 	beq	$r9,$r0,452(0x1c4) # 1c001188 <core_mark+0xb88>
1c000fc8:	001c7f08 	mul.w	$r8,$r24,$r31
1c000fcc:	00150305 	move	$r5,$r24
1c000fd0:	00150364 	move	$r4,$r27
1c000fd4:	00102393 	add.w	$r19,$r28,$r8
1c000fd8:	00104fad 	add.w	$r13,$r29,$r19
1c000fdc:	2a60a9a6 	ld.hu	$r6,$r13,-2006(0x82a)
1c000fe0:	54857000 	bl	34160(0x8570) # 1c009550 <printf>
1c000fe4:	02800706 	addi.w	$r6,$r24,1(0x1)
1c000fe8:	29801066 	st.w	$r6,$r3,4(0x4)
1c000fec:	2a401078 	ld.hu	$r24,$r3,4(0x4)
1c000ff0:	288002e9 	ld.w	$r9,$r23,0
1c000ff4:	00150364 	move	$r4,$r27
1c000ff8:	00150305 	move	$r5,$r24
1c000ffc:	6c008f09 	bgeu	$r24,$r9,140(0x8c) # 1c001088 <core_mark+0xa88>
1c001000:	001c7f09 	mul.w	$r9,$r24,$r31
1c001004:	0010278a 	add.w	$r10,$r28,$r9
1c001008:	00102bab 	add.w	$r11,$r29,$r10
1c00100c:	2a60a966 	ld.hu	$r6,$r11,-2006(0x82a)
1c001010:	54854000 	bl	34112(0x8540) # 1c009550 <printf>
1c001014:	02800712 	addi.w	$r18,$r24,1(0x1)
1c001018:	29801072 	st.w	$r18,$r3,4(0x4)
1c00101c:	2a40107e 	ld.hu	$r30,$r3,4(0x4)
1c001020:	288002e9 	ld.w	$r9,$r23,0
1c001024:	00150364 	move	$r4,$r27
1c001028:	001503c5 	move	$r5,$r30
1c00102c:	6c005fc9 	bgeu	$r30,$r9,92(0x5c) # 1c001088 <core_mark+0xa88>
1c001030:	001c7fd4 	mul.w	$r20,$r30,$r31
1c001034:	00105381 	add.w	$r1,$r28,$r20
1c001038:	001007b1 	add.w	$r17,$r29,$r1
1c00103c:	2a60aa26 	ld.hu	$r6,$r17,-2006(0x82a)
1c001040:	54851000 	bl	34064(0x8510) # 1c009550 <printf>
1c001044:	028007c5 	addi.w	$r5,$r30,1(0x1)
1c001048:	29801065 	st.w	$r5,$r3,4(0x4)
1c00104c:	2a40107a 	ld.hu	$r26,$r3,4(0x4)
1c001050:	288002e9 	ld.w	$r9,$r23,0
1c001054:	00150364 	move	$r4,$r27
1c001058:	00150345 	move	$r5,$r26
1c00105c:	6c002f49 	bgeu	$r26,$r9,44(0x2c) # 1c001088 <core_mark+0xa88>
1c001060:	001c7f50 	mul.w	$r16,$r26,$r31
1c001064:	0010438f 	add.w	$r15,$r28,$r16
1c001068:	00103fa7 	add.w	$r7,$r29,$r15
1c00106c:	2a60a8e6 	ld.hu	$r6,$r7,-2006(0x82a)
1c001070:	5484e000 	bl	34016(0x84e0) # 1c009550 <printf>
1c001074:	02800744 	addi.w	$r4,$r26,1(0x1)
1c001078:	29801064 	st.w	$r4,$r3,4(0x4)
1c00107c:	288002e9 	ld.w	$r9,$r23,0
1c001080:	2a401078 	ld.hu	$r24,$r3,4(0x4)
1c001084:	6bff4709 	bltu	$r24,$r9,-188(0x3ff44) # 1c000fc8 <core_mark+0x9c8>
1c001088:	58010120 	beq	$r9,$r0,256(0x100) # 1c001188 <core_mark+0xb88>
1c00108c:	03a0800c 	ori	$r12,$r0,0x820
1c001090:	0280406e 	addi.w	$r14,$r3,16(0x10)
1c001094:	15ffffff 	lu12i.w	$r31,-1(0xfffff)
1c001098:	0010399b 	add.w	$r27,$r12,$r14
1c00109c:	00107f68 	add.w	$r8,$r27,$r31
1c0010a0:	00150018 	move	$r24,$r0
1c0010a4:	0281101d 	addi.w	$r29,$r0,68(0x44)
1c0010a8:	1400003c 	lu12i.w	$r28,1(0x1)
1c0010ac:	29801068 	st.w	$r8,$r3,4(0x4)
1c0010b0:	1c000ffe 	pcaddu12i	$r30,127(0x7f)
1c0010b4:	029033de 	addi.w	$r30,$r30,1036(0x40c)
1c0010b8:	001c7713 	mul.w	$r19,$r24,$r29
1c0010bc:	2880106d 	ld.w	$r13,$r3,4(0x4)
1c0010c0:	00150305 	move	$r5,$r24
1c0010c4:	001503c4 	move	$r4,$r30
1c0010c8:	00104da6 	add.w	$r6,$r13,$r19
1c0010cc:	00101b89 	add.w	$r9,$r28,$r6
1c0010d0:	2a609126 	ld.hu	$r6,$r9,-2012(0x824)
1c0010d4:	54847c00 	bl	33916(0x847c) # 1c009550 <printf>
1c0010d8:	0280070a 	addi.w	$r10,$r24,1(0x1)
1c0010dc:	2980206a 	st.w	$r10,$r3,8(0x8)
1c0010e0:	2a40207a 	ld.hu	$r26,$r3,8(0x8)
1c0010e4:	288002eb 	ld.w	$r11,$r23,0
1c0010e8:	001503c4 	move	$r4,$r30
1c0010ec:	00150345 	move	$r5,$r26
1c0010f0:	6c009b4b 	bgeu	$r26,$r11,152(0x98) # 1c001188 <core_mark+0xb88>
1c0010f4:	001c7752 	mul.w	$r18,$r26,$r29
1c0010f8:	28801074 	ld.w	$r20,$r3,4(0x4)
1c0010fc:	00104a81 	add.w	$r1,$r20,$r18
1c001100:	00100791 	add.w	$r17,$r28,$r1
1c001104:	2a609226 	ld.hu	$r6,$r17,-2012(0x824)
1c001108:	54844800 	bl	33864(0x8448) # 1c009550 <printf>
1c00110c:	02800745 	addi.w	$r5,$r26,1(0x1)
1c001110:	29802065 	st.w	$r5,$r3,8(0x8)
1c001114:	2a402078 	ld.hu	$r24,$r3,8(0x8)
1c001118:	288002f0 	ld.w	$r16,$r23,0
1c00111c:	001503c4 	move	$r4,$r30
1c001120:	00150305 	move	$r5,$r24
1c001124:	6c006710 	bgeu	$r24,$r16,100(0x64) # 1c001188 <core_mark+0xb88>
1c001128:	001c770f 	mul.w	$r15,$r24,$r29
1c00112c:	28801067 	ld.w	$r7,$r3,4(0x4)
1c001130:	00103cff 	add.w	$r31,$r7,$r15
1c001134:	00107f8c 	add.w	$r12,$r28,$r31
1c001138:	2a609186 	ld.hu	$r6,$r12,-2012(0x824)
1c00113c:	54841400 	bl	33812(0x8414) # 1c009550 <printf>
1c001140:	0280070e 	addi.w	$r14,$r24,1(0x1)
1c001144:	2980206e 	st.w	$r14,$r3,8(0x8)
1c001148:	2a40207a 	ld.hu	$r26,$r3,8(0x8)
1c00114c:	288002fb 	ld.w	$r27,$r23,0
1c001150:	001503c4 	move	$r4,$r30
1c001154:	00150345 	move	$r5,$r26
1c001158:	6c00335b 	bgeu	$r26,$r27,48(0x30) # 1c001188 <core_mark+0xb88>
1c00115c:	001c7748 	mul.w	$r8,$r26,$r29
1c001160:	28801073 	ld.w	$r19,$r3,4(0x4)
1c001164:	0010226d 	add.w	$r13,$r19,$r8
1c001168:	00103786 	add.w	$r6,$r28,$r13
1c00116c:	2a6090c6 	ld.hu	$r6,$r6,-2012(0x824)
1c001170:	5483e000 	bl	33760(0x83e0) # 1c009550 <printf>
1c001174:	02800744 	addi.w	$r4,$r26,1(0x1)
1c001178:	29802064 	st.w	$r4,$r3,8(0x8)
1c00117c:	288002e9 	ld.w	$r9,$r23,0
1c001180:	2a402078 	ld.hu	$r24,$r3,8(0x8)
1c001184:	6bff3709 	bltu	$r24,$r9,-204(0x3ff34) # 1c0010b8 <core_mark+0xab8>
1c001188:	5801d320 	beq	$r25,$r0,464(0x1d0) # 1c001358 <core_mark+0xd58>
1c00118c:	6401a819 	bge	$r0,$r25,424(0x1a8) # 1c001334 <core_mark+0xd34>
1c001190:	1c000fe4 	pcaddu12i	$r4,127(0x7f)
1c001194:	028e5084 	addi.w	$r4,$r4,916(0x394)
1c001198:	5486d800 	bl	34520(0x86d8) # 1c009870 <puts>
1c00119c:	02817864 	addi.w	$r4,$r3,94(0x5e)
1c0011a0:	544a8000 	bl	19072(0x4a80) # 1c005c20 <portable_fini>
1c0011a4:	0281c063 	addi.w	$r3,$r3,112(0x70)
1c0011a8:	289fb061 	ld.w	$r1,$r3,2028(0x7ec)
1c0011ac:	00150324 	move	$r4,$r25
1c0011b0:	289fa076 	ld.w	$r22,$r3,2024(0x7e8)
1c0011b4:	289f9077 	ld.w	$r23,$r3,2020(0x7e4)
1c0011b8:	289f8078 	ld.w	$r24,$r3,2016(0x7e0)
1c0011bc:	289f7079 	ld.w	$r25,$r3,2012(0x7dc)
1c0011c0:	289f607a 	ld.w	$r26,$r3,2008(0x7d8)
1c0011c4:	289f507b 	ld.w	$r27,$r3,2004(0x7d4)
1c0011c8:	289f407c 	ld.w	$r28,$r3,2000(0x7d0)
1c0011cc:	289f307d 	ld.w	$r29,$r3,1996(0x7cc)
1c0011d0:	289f207e 	ld.w	$r30,$r3,1992(0x7c8)
1c0011d4:	289f107f 	ld.w	$r31,$r3,1988(0x7c4)
1c0011d8:	029fc063 	addi.w	$r3,$r3,2032(0x7f0)
1c0011dc:	4c000020 	jirl	$r0,$r1,0
1c0011e0:	14000038 	lu12i.w	$r24,1(0x1)
1c0011e4:	03a3cb07 	ori	$r7,$r24,0x8f2
1c0011e8:	58025b47 	beq	$r26,$r7,600(0x258) # 1c001440 <core_mark+0xe40>
1c0011ec:	14000086 	lu12i.w	$r6,4(0x4)
1c0011f0:	03babcc9 	ori	$r9,$r6,0xeaf
1c0011f4:	5c00d749 	bne	$r26,$r9,212(0xd4) # 1c0012c8 <core_mark+0xcc8>
1c0011f8:	1c000fe4 	pcaddu12i	$r4,127(0x7f)
1c0011fc:	02bd0084 	addi.w	$r4,$r4,-192(0xf40)
1c001200:	54867000 	bl	34416(0x8670) # 1c009870 <puts>
1c001204:	140000aa 	lu12i.w	$r10,5(0x5)
1c001208:	140001cb 	lu12i.w	$r11,14(0xe)
1c00120c:	140000c5 	lu12i.w	$r5,6(0x6)
1c001210:	0398215d 	ori	$r29,$r10,0x608
1c001214:	2980307d 	st.w	$r29,$r3,12(0xc)
1c001218:	03969179 	ori	$r25,$r11,0x5a4
1c00121c:	03a9e4b8 	ori	$r24,$r5,0xa79
1c001220:	53f873ff 	b	-1936(0xffff870) # 1c000a90 <core_mark+0x490>
1c001224:	03a08014 	ori	$r20,$r0,0x820
1c001228:	0280407a 	addi.w	$r26,$r3,16(0x10)
1c00122c:	15ffffe4 	lu12i.w	$r4,-1(0xfffff)
1c001230:	00106a9b 	add.w	$r27,$r20,$r26
1c001234:	0010137c 	add.w	$r28,$r27,$r4
1c001238:	2980107c 	st.w	$r28,$r3,4(0x4)
1c00123c:	2880106e 	ld.w	$r14,$r3,4(0x4)
1c001240:	285fbb9d 	ld.h	$r29,$r28,2030(0x7ee)
1c001244:	03a01010 	ori	$r16,$r0,0x804
1c001248:	285fb1de 	ld.h	$r30,$r14,2028(0x7ec)
1c00124c:	00103a1f 	add.w	$r31,$r16,$r14
1c001250:	289ff1c5 	ld.w	$r5,$r14,2044(0x7fc)
1c001254:	288003e4 	ld.w	$r4,$r31,0
1c001258:	0040c3b9 	slli.w	$r25,$r29,0x10
1c00125c:	02811067 	addi.w	$r7,$r3,68(0x44)
1c001260:	00157b26 	or	$r6,$r25,$r30
1c001264:	54355c00 	bl	13660(0x355c) # 1c0047c0 <core_init_matrix>
1c001268:	28801078 	ld.w	$r24,$r3,4(0x4)
1c00126c:	03a0300c 	ori	$r12,$r0,0x80c
1c001270:	0010618d 	add.w	$r13,$r12,$r24
1c001274:	288001b7 	ld.w	$r23,$r13,0
1c001278:	53f553ff 	b	-2736(0xffff550) # 1c0007c8 <core_mark+0x1c8>
1c00127c:	03400000 	andi	$r0,$r0,0x0
1c001280:	29415864 	st.h	$r4,$r3,86(0x56)
1c001284:	02800407 	addi.w	$r7,$r0,1(0x1)
1c001288:	02800418 	addi.w	$r24,$r0,1(0x1)
1c00128c:	5ff70747 	bne	$r26,$r7,-2300(0x3f704) # 1c000990 <core_mark+0x390>
1c001290:	53f73fff 	b	-2244(0xffff73c) # 1c0009cc <core_mark+0x3cc>
1c001294:	001502c5 	move	$r5,$r22
1c001298:	00150327 	move	$r7,$r25
1c00129c:	1c000fe4 	pcaddu12i	$r4,127(0x7f)
1c0012a0:	02be2084 	addi.w	$r4,$r4,-120(0xf88)
1c0012a4:	2980206a 	st.w	$r10,$r3,8(0x8)
1c0012a8:	5482a800 	bl	33448(0x82a8) # 1c009550 <printf>
1c0012ac:	2880206b 	ld.w	$r11,$r3,8(0x8)
1c0012b0:	2a60b165 	ld.hu	$r5,$r11,-2004(0x82c)
1c0012b4:	028004b2 	addi.w	$r18,$r5,1(0x1)
1c0012b8:	29802072 	st.w	$r18,$r3,8(0x8)
1c0012bc:	2a402074 	ld.hu	$r20,$r3,8(0x8)
1c0012c0:	2960b174 	st.h	$r20,$r11,-2004(0x82c)
1c0012c4:	53f817ff 	b	-2028(0xffff814) # 1c000ad8 <core_mark+0x4d8>
1c0012c8:	140001fd 	lu12i.w	$r29,15(0xf)
1c0012cc:	03bfffb4 	ori	$r20,$r29,0xfff
1c0012d0:	53f923ff 	b	-1760(0xffff920) # 1c000bf0 <core_mark+0x5f0>
1c0012d4:	03400b5f 	andi	$r31,$r26,0x2
1c0012d8:	288002e9 	ld.w	$r9,$r23,0
1c0012dc:	5ffbabe0 	bne	$r31,$r0,-1112(0x3fba8) # 1c000e84 <core_mark+0x884>
1c0012e0:	03401350 	andi	$r16,$r26,0x4
1c0012e4:	5ffcba00 	bne	$r16,$r0,-840(0x3fcb8) # 1c000f9c <core_mark+0x99c>
1c0012e8:	53fda3ff 	b	-608(0xffffda0) # 1c001088 <core_mark+0xa88>
1c0012ec:	03400000 	andi	$r0,$r0,0x0
1c0012f0:	2880106b 	ld.w	$r11,$r3,4(0x4)
1c0012f4:	03a03011 	ori	$r17,$r0,0x80c
1c0012f8:	03a0801a 	ori	$r26,$r0,0x820
1c0012fc:	0280407b 	addi.w	$r27,$r3,16(0x10)
1c001300:	02801c0a 	addi.w	$r10,$r0,7(0x7)
1c001304:	00102e32 	add.w	$r18,$r17,$r11
1c001308:	15fffff4 	lu12i.w	$r20,-1(0xfffff)
1c00130c:	00106f5c 	add.w	$r28,$r26,$r27
1c001310:	0010539d 	add.w	$r29,$r28,$r20
1c001314:	2980024a 	st.w	$r10,$r18,0
1c001318:	289fb3be 	ld.w	$r30,$r29,2028(0x7ec)
1c00131c:	2980107d 	st.w	$r29,$r3,4(0x4)
1c001320:	02800413 	addi.w	$r19,$r0,1(0x1)
1c001324:	02801c17 	addi.w	$r23,$r0,7(0x7)
1c001328:	02800410 	addi.w	$r16,$r0,1(0x1)
1c00132c:	5ff3b7c0 	bne	$r30,$r0,-3148(0x3f3b4) # 1c0006e0 <core_mark+0xe0>
1c001330:	53f5a7ff 	b	-2652(0xffff5a4) # 1c0008d4 <core_mark+0x2d4>
1c001334:	1c000fe4 	pcaddu12i	$r4,127(0x7f)
1c001338:	02880084 	addi.w	$r4,$r4,512(0x200)
1c00133c:	54853400 	bl	34100(0x8534) # 1c009870 <puts>
1c001340:	53fe5fff 	b	-420(0xffffe5c) # 1c00119c <core_mark+0xb9c>
1c001344:	29415864 	st.h	$r4,$r3,86(0x56)
1c001348:	02800413 	addi.w	$r19,$r0,1(0x1)
1c00134c:	02800417 	addi.w	$r23,$r0,1(0x1)
1c001350:	5ff52b73 	bne	$r27,$r19,-2776(0x3f528) # 1c000878 <core_mark+0x278>
1c001354:	53f563ff 	b	-2720(0xffff560) # 1c0008b4 <core_mark+0x2b4>
1c001358:	1c000fe4 	pcaddu12i	$r4,127(0x7f)
1c00135c:	02860084 	addi.w	$r4,$r4,384(0x180)
1c001360:	54851000 	bl	34064(0x8510) # 1c009870 <puts>
1c001364:	53fe3bff 	b	-456(0xffffe38) # 1c00119c <core_mark+0xb9c>
1c001368:	02818070 	addi.w	$r16,$r3,96(0x60)
1c00136c:	299fe370 	st.w	$r16,$r27,2040(0x7f8)
1c001370:	02800418 	addi.w	$r24,$r0,1(0x1)
1c001374:	5bf408a0 	beq	$r5,$r0,-3064(0x3f408) # 1c00077c <core_mark+0x17c>
1c001378:	001c131f 	mul.w	$r31,$r24,$r4
1c00137c:	0281806c 	addi.w	$r12,$r3,96(0x60)
1c001380:	02800719 	addi.w	$r25,$r24,1(0x1)
1c001384:	29801079 	st.w	$r25,$r3,4(0x4)
1c001388:	2a401078 	ld.hu	$r24,$r3,4(0x4)
1c00138c:	00107d8d 	add.w	$r13,$r12,$r31
1c001390:	2980b06d 	st.w	$r13,$r3,44(0x2c)
1c001394:	5bf3ec20 	beq	$r1,$r0,-3092(0x3f3ec) # 1c000780 <core_mark+0x180>
1c001398:	001c130f 	mul.w	$r15,$r24,$r4
1c00139c:	02818067 	addi.w	$r7,$r3,96(0x60)
1c0013a0:	00103ce8 	add.w	$r8,$r7,$r15
1c0013a4:	2980c068 	st.w	$r8,$r3,48(0x30)
1c0013a8:	53f3dbff 	b	-3112(0xffff3d8) # 1c000780 <core_mark+0x180>
1c0013ac:	03400000 	andi	$r0,$r0,0x0
1c0013b0:	2880107d 	ld.w	$r29,$r3,4(0x4)
1c0013b4:	03a02018 	ori	$r24,$r0,0x808
1c0013b8:	288002e1 	ld.w	$r1,$r23,0
1c0013bc:	0010771f 	add.w	$r31,$r24,$r29
1c0013c0:	288003fe 	ld.w	$r30,$r31,0
1c0013c4:	00150004 	move	$r4,$r0
1c0013c8:	001c07db 	mul.w	$r27,$r30,$r1
1c0013cc:	54482400 	bl	18468(0x4824) # 1c005bf0 <time_in_secs>
1c0013d0:	00211365 	div.wu	$r5,$r27,$r4
1c0013d4:	5c000880 	bne	$r4,$r0,8(0x8) # 1c0013dc <core_mark+0xddc>
1c0013d8:	002a0007 	break	0x7
1c0013dc:	1c000fe4 	pcaddu12i	$r4,127(0x7f)
1c0013e0:	02be7084 	addi.w	$r4,$r4,-100(0xf9c)
1c0013e4:	54816c00 	bl	33132(0x816c) # 1c009550 <printf>
1c0013e8:	53f90fff 	b	-1780(0xffff90c) # 1c000cf4 <core_mark+0x6f4>
1c0013ec:	14000036 	lu12i.w	$r22,1(0x1)
1c0013f0:	1400007f 	lu12i.w	$r31,3(0x3)
1c0013f4:	1c000fe4 	pcaddu12i	$r4,127(0x7f)
1c0013f8:	02b46084 	addi.w	$r4,$r4,-744(0xd18)
1c0013fc:	038666dd 	ori	$r29,$r22,0x199
1c001400:	54847000 	bl	33904(0x8470) # 1c009870 <puts>
1c001404:	03a6fff9 	ori	$r25,$r31,0x9bf
1c001408:	2980307d 	st.w	$r29,$r3,12(0xc)
1c00140c:	038d03f8 	ori	$r24,$r31,0x340
1c001410:	53f683ff 	b	-2432(0xffff680) # 1c000a90 <core_mark+0x490>
1c001414:	1c000fe4 	pcaddu12i	$r4,127(0x7f)
1c001418:	02b33084 	addi.w	$r4,$r4,-820(0xccc)
1c00141c:	54845400 	bl	33876(0x8454) # 1c009870 <puts>
1c001420:	1400016e 	lu12i.w	$r14,11(0xb)
1c001424:	140000b0 	lu12i.w	$r16,5(0x5)
1c001428:	140001ac 	lu12i.w	$r12,13(0xd)
1c00142c:	03b949dd 	ori	$r29,$r14,0xe52
1c001430:	2980307d 	st.w	$r29,$r3,12(0xc)
1c001434:	03b91e19 	ori	$r25,$r16,0xe47
1c001438:	0392c198 	ori	$r24,$r12,0x4b0
1c00143c:	53f657ff 	b	-2476(0xffff654) # 1c000a90 <core_mark+0x490>
1c001440:	029d1c08 	addi.w	$r8,$r0,1863(0x747)
1c001444:	1c000fe4 	pcaddu12i	$r4,127(0x7f)
1c001448:	02b54084 	addi.w	$r4,$r4,-688(0xd50)
1c00144c:	29803068 	st.w	$r8,$r3,12(0xc)
1c001450:	54842000 	bl	33824(0x8420) # 1c009870 <puts>
1c001454:	14000113 	lu12i.w	$r19,8(0x8)
1c001458:	140001cd 	lu12i.w	$r13,14(0xe)
1c00145c:	029d1c1d 	addi.w	$r29,$r0,1863(0x747)
1c001460:	03b61279 	ori	$r25,$r19,0xd84
1c001464:	038f05b8 	ori	$r24,$r13,0x3c1
1c001468:	53f62bff 	b	-2520(0xffff628) # 1c000a90 <core_mark+0x490>
1c00146c:	00150014 	move	$r20,$r0
1c001470:	53f783ff 	b	-2176(0xffff780) # 1c000bf0 <core_mark+0x5f0>
1c001474:	03400000 	andi	$r0,$r0,0x0
1c001478:	03400000 	andi	$r0,$r0,0x0
1c00147c:	03400000 	andi	$r0,$r0,0x0

1c001480 <core_bench_matrix>:
core_bench_matrix():
1c001480:	28800090 	ld.w	$r16,$r4,0
1c001484:	02bec063 	addi.w	$r3,$r3,-80(0xfb0)
1c001488:	2980e07a 	st.w	$r26,$r3,56(0x38)
1c00148c:	2980d07b 	st.w	$r27,$r3,52(0x34)
1c001490:	2980c07c 	st.w	$r28,$r3,48(0x30)
1c001494:	2980a07e 	st.w	$r30,$r3,40(0x28)
1c001498:	15fffffc 	lu12i.w	$r28,-1(0xfffff)
1c00149c:	29813061 	st.w	$r1,$r3,76(0x4c)
1c0014a0:	29812076 	st.w	$r22,$r3,72(0x48)
1c0014a4:	29811077 	st.w	$r23,$r3,68(0x44)
1c0014a8:	29810078 	st.w	$r24,$r3,64(0x40)
1c0014ac:	2980f079 	st.w	$r25,$r3,60(0x3c)
1c0014b0:	2980b07d 	st.w	$r29,$r3,44(0x2c)
1c0014b4:	2980907f 	st.w	$r31,$r3,36(0x24)
1c0014b8:	29805066 	st.w	$r6,$r3,20(0x14)
1c0014bc:	2880309a 	ld.w	$r26,$r4,12(0xc)
1c0014c0:	2880109b 	ld.w	$r27,$r4,4(0x4)
1c0014c4:	2880209e 	ld.w	$r30,$r4,8(0x8)
1c0014c8:	001570bc 	or	$r28,$r5,$r28
1c0014cc:	5818ce00 	beq	$r16,$r0,6348(0x18cc) # 1c002d98 <core_bench_matrix+0x1918>
1c0014d0:	29803065 	st.w	$r5,$r3,12(0xc)
1c0014d4:	2a403079 	ld.hu	$r25,$r3,12(0xc)
1c0014d8:	00408616 	slli.w	$r22,$r16,0x1
1c0014dc:	00150378 	move	$r24,$r27
1c0014e0:	00150371 	move	$r17,$r27
1c0014e4:	00150013 	move	$r19,$r0
1c0014e8:	02bffacf 	addi.w	$r15,$r22,-2(0xffe)
1c0014ec:	004485e1 	srli.w	$r1,$r15,0x1
1c0014f0:	02800424 	addi.w	$r4,$r1,1(0x1)
1c0014f4:	03401c86 	andi	$r6,$r4,0x7
1c0014f8:	001046d2 	add.w	$r18,$r22,$r17
1c0014fc:	5800a8c0 	beq	$r6,$r0,168(0xa8) # 1c0015a4 <core_bench_matrix+0x124>
1c001500:	02800414 	addi.w	$r20,$r0,1(0x1)
1c001504:	58008cd4 	beq	$r6,$r20,140(0x8c) # 1c001590 <core_bench_matrix+0x110>
1c001508:	02800807 	addi.w	$r7,$r0,2(0x2)
1c00150c:	580074c7 	beq	$r6,$r7,116(0x74) # 1c001580 <core_bench_matrix+0x100>
1c001510:	02800c08 	addi.w	$r8,$r0,3(0x3)
1c001514:	58005cc8 	beq	$r6,$r8,92(0x5c) # 1c001570 <core_bench_matrix+0xf0>
1c001518:	02801009 	addi.w	$r9,$r0,4(0x4)
1c00151c:	580044c9 	beq	$r6,$r9,68(0x44) # 1c001560 <core_bench_matrix+0xe0>
1c001520:	0280140a 	addi.w	$r10,$r0,5(0x5)
1c001524:	58002cca 	beq	$r6,$r10,44(0x2c) # 1c001550 <core_bench_matrix+0xd0>
1c001528:	0280180b 	addi.w	$r11,$r0,6(0x6)
1c00152c:	580014cb 	beq	$r6,$r11,20(0x14) # 1c001540 <core_bench_matrix+0xc0>
1c001530:	2a40022c 	ld.hu	$r12,$r17,0
1c001534:	02800a31 	addi.w	$r17,$r17,2(0x2)
1c001538:	0010332d 	add.w	$r13,$r25,$r12
1c00153c:	297ffa2d 	st.h	$r13,$r17,-2(0xffe)
1c001540:	2a40022e 	ld.hu	$r14,$r17,0
1c001544:	02800a31 	addi.w	$r17,$r17,2(0x2)
1c001548:	00103b37 	add.w	$r23,$r25,$r14
1c00154c:	297ffa37 	st.h	$r23,$r17,-2(0xffe)
1c001550:	2a40023d 	ld.hu	$r29,$r17,0
1c001554:	02800a31 	addi.w	$r17,$r17,2(0x2)
1c001558:	0010773f 	add.w	$r31,$r25,$r29
1c00155c:	297ffa3f 	st.h	$r31,$r17,-2(0xffe)
1c001560:	2a40022f 	ld.hu	$r15,$r17,0
1c001564:	02800a31 	addi.w	$r17,$r17,2(0x2)
1c001568:	00103f21 	add.w	$r1,$r25,$r15
1c00156c:	297ffa21 	st.h	$r1,$r17,-2(0xffe)
1c001570:	2a400224 	ld.hu	$r4,$r17,0
1c001574:	02800a31 	addi.w	$r17,$r17,2(0x2)
1c001578:	00101326 	add.w	$r6,$r25,$r4
1c00157c:	297ffa26 	st.h	$r6,$r17,-2(0xffe)
1c001580:	2a400234 	ld.hu	$r20,$r17,0
1c001584:	02800a31 	addi.w	$r17,$r17,2(0x2)
1c001588:	00105327 	add.w	$r7,$r25,$r20
1c00158c:	297ffa27 	st.h	$r7,$r17,-2(0xffe)
1c001590:	2a400228 	ld.hu	$r8,$r17,0
1c001594:	02800a31 	addi.w	$r17,$r17,2(0x2)
1c001598:	00102329 	add.w	$r9,$r25,$r8
1c00159c:	297ffa29 	st.h	$r9,$r17,-2(0xffe)
1c0015a0:	58006e32 	beq	$r17,$r18,108(0x6c) # 1c00160c <core_bench_matrix+0x18c>
1c0015a4:	2a401a3d 	ld.hu	$r29,$r17,6(0x6)
1c0015a8:	2a40223f 	ld.hu	$r31,$r17,8(0x8)
1c0015ac:	2a402a24 	ld.hu	$r4,$r17,10(0xa)
1c0015b0:	2a403226 	ld.hu	$r6,$r17,12(0xc)
1c0015b4:	2a40022a 	ld.hu	$r10,$r17,0
1c0015b8:	2a400a2b 	ld.hu	$r11,$r17,2(0x2)
1c0015bc:	2a40122c 	ld.hu	$r12,$r17,4(0x4)
1c0015c0:	2a403a28 	ld.hu	$r8,$r17,14(0xe)
1c0015c4:	00102b2d 	add.w	$r13,$r25,$r10
1c0015c8:	00102f2e 	add.w	$r14,$r25,$r11
1c0015cc:	00103337 	add.w	$r23,$r25,$r12
1c0015d0:	0010772f 	add.w	$r15,$r25,$r29
1c0015d4:	00107f21 	add.w	$r1,$r25,$r31
1c0015d8:	00101327 	add.w	$r7,$r25,$r4
1c0015dc:	00101b34 	add.w	$r20,$r25,$r6
1c0015e0:	2940022d 	st.h	$r13,$r17,0
1c0015e4:	29400a2e 	st.h	$r14,$r17,2(0x2)
1c0015e8:	29401237 	st.h	$r23,$r17,4(0x4)
1c0015ec:	29401a2f 	st.h	$r15,$r17,6(0x6)
1c0015f0:	29402221 	st.h	$r1,$r17,8(0x8)
1c0015f4:	29402a27 	st.h	$r7,$r17,10(0xa)
1c0015f8:	29403234 	st.h	$r20,$r17,12(0xc)
1c0015fc:	00102329 	add.w	$r9,$r25,$r8
1c001600:	02804231 	addi.w	$r17,$r17,16(0x10)
1c001604:	297ffa29 	st.h	$r9,$r17,-2(0xffe)
1c001608:	5fff9e32 	bne	$r17,$r18,-100(0x3ff9c) # 1c0015a4 <core_bench_matrix+0x124>
1c00160c:	0280067d 	addi.w	$r29,$r19,1(0x1)
1c001610:	5800121d 	beq	$r16,$r29,16(0x10) # 1c001620 <core_bench_matrix+0x1a0>
1c001614:	001503b3 	move	$r19,$r29
1c001618:	53fed3ff 	b	-304(0xffffed0) # 1c0014e8 <core_bench_matrix+0x68>
1c00161c:	03400000 	andi	$r0,$r0,0x0
1c001620:	00408a17 	slli.w	$r23,$r16,0x2
1c001624:	2980307a 	st.w	$r26,$r3,12(0xc)
1c001628:	00150354 	move	$r20,$r26
1c00162c:	00150371 	move	$r17,$r27
1c001630:	00150006 	move	$r6,$r0
1c001634:	02bffad2 	addi.w	$r18,$r22,-2(0xffe)
1c001638:	0044864a 	srli.w	$r10,$r18,0x1
1c00163c:	0280054b 	addi.w	$r11,$r10,1(0x1)
1c001640:	03401d6c 	andi	$r12,$r11,0x7
1c001644:	00150292 	move	$r18,$r20
1c001648:	001046cd 	add.w	$r13,$r22,$r17
1c00164c:	5800c580 	beq	$r12,$r0,196(0xc4) # 1c001710 <core_bench_matrix+0x290>
1c001650:	0280040e 	addi.w	$r14,$r0,1(0x1)
1c001654:	5800a58e 	beq	$r12,$r14,164(0xa4) # 1c0016f8 <core_bench_matrix+0x278>
1c001658:	0280081f 	addi.w	$r31,$r0,2(0x2)
1c00165c:	5800899f 	beq	$r12,$r31,136(0x88) # 1c0016e4 <core_bench_matrix+0x264>
1c001660:	02800c0f 	addi.w	$r15,$r0,3(0x3)
1c001664:	58006d8f 	beq	$r12,$r15,108(0x6c) # 1c0016d0 <core_bench_matrix+0x250>
1c001668:	02801001 	addi.w	$r1,$r0,4(0x4)
1c00166c:	58005181 	beq	$r12,$r1,80(0x50) # 1c0016bc <core_bench_matrix+0x23c>
1c001670:	02801404 	addi.w	$r4,$r0,5(0x5)
1c001674:	58003584 	beq	$r12,$r4,52(0x34) # 1c0016a8 <core_bench_matrix+0x228>
1c001678:	02801807 	addi.w	$r7,$r0,6(0x6)
1c00167c:	58001987 	beq	$r12,$r7,24(0x18) # 1c001694 <core_bench_matrix+0x214>
1c001680:	28400228 	ld.h	$r8,$r17,0
1c001684:	02801292 	addi.w	$r18,$r20,4(0x4)
1c001688:	02800a31 	addi.w	$r17,$r17,2(0x2)
1c00168c:	001c1509 	mul.w	$r9,$r8,$r5
1c001690:	29800289 	st.w	$r9,$r20,0
1c001694:	2840022a 	ld.h	$r10,$r17,0
1c001698:	02801252 	addi.w	$r18,$r18,4(0x4)
1c00169c:	02800a31 	addi.w	$r17,$r17,2(0x2)
1c0016a0:	001c154b 	mul.w	$r11,$r10,$r5
1c0016a4:	29bff24b 	st.w	$r11,$r18,-4(0xffc)
1c0016a8:	2840022c 	ld.h	$r12,$r17,0
1c0016ac:	02801252 	addi.w	$r18,$r18,4(0x4)
1c0016b0:	02800a31 	addi.w	$r17,$r17,2(0x2)
1c0016b4:	001c158e 	mul.w	$r14,$r12,$r5
1c0016b8:	29bff24e 	st.w	$r14,$r18,-4(0xffc)
1c0016bc:	2840023f 	ld.h	$r31,$r17,0
1c0016c0:	02801252 	addi.w	$r18,$r18,4(0x4)
1c0016c4:	02800a31 	addi.w	$r17,$r17,2(0x2)
1c0016c8:	001c17ef 	mul.w	$r15,$r31,$r5
1c0016cc:	29bff24f 	st.w	$r15,$r18,-4(0xffc)
1c0016d0:	28400221 	ld.h	$r1,$r17,0
1c0016d4:	02801252 	addi.w	$r18,$r18,4(0x4)
1c0016d8:	02800a31 	addi.w	$r17,$r17,2(0x2)
1c0016dc:	001c1424 	mul.w	$r4,$r1,$r5
1c0016e0:	29bff244 	st.w	$r4,$r18,-4(0xffc)
1c0016e4:	28400227 	ld.h	$r7,$r17,0
1c0016e8:	02801252 	addi.w	$r18,$r18,4(0x4)
1c0016ec:	02800a31 	addi.w	$r17,$r17,2(0x2)
1c0016f0:	001c14e8 	mul.w	$r8,$r7,$r5
1c0016f4:	29bff248 	st.w	$r8,$r18,-4(0xffc)
1c0016f8:	28400229 	ld.h	$r9,$r17,0
1c0016fc:	02801252 	addi.w	$r18,$r18,4(0x4)
1c001700:	02800a31 	addi.w	$r17,$r17,2(0x2)
1c001704:	001c152a 	mul.w	$r10,$r9,$r5
1c001708:	29bff24a 	st.w	$r10,$r18,-4(0xffc)
1c00170c:	580071b1 	beq	$r13,$r17,112(0x70) # 1c00177c <core_bench_matrix+0x2fc>
1c001710:	2840022b 	ld.h	$r11,$r17,0
1c001714:	28400a2e 	ld.h	$r14,$r17,2(0x2)
1c001718:	2840122f 	ld.h	$r15,$r17,4(0x4)
1c00171c:	001c156c 	mul.w	$r12,$r11,$r5
1c001720:	28401a24 	ld.h	$r4,$r17,6(0x6)
1c001724:	28402228 	ld.h	$r8,$r17,8(0x8)
1c001728:	28402a2a 	ld.h	$r10,$r17,10(0xa)
1c00172c:	02804231 	addi.w	$r17,$r17,16(0x10)
1c001730:	001c15df 	mul.w	$r31,$r14,$r5
1c001734:	2980024c 	st.w	$r12,$r18,0
1c001738:	2980125f 	st.w	$r31,$r18,4(0x4)
1c00173c:	001c15e1 	mul.w	$r1,$r15,$r5
1c001740:	287ff22c 	ld.h	$r12,$r17,-4(0xffc)
1c001744:	287ffa3f 	ld.h	$r31,$r17,-2(0xffe)
1c001748:	001c1487 	mul.w	$r7,$r4,$r5
1c00174c:	001c1509 	mul.w	$r9,$r8,$r5
1c001750:	29802241 	st.w	$r1,$r18,8(0x8)
1c001754:	29803247 	st.w	$r7,$r18,12(0xc)
1c001758:	001c154b 	mul.w	$r11,$r10,$r5
1c00175c:	001c158e 	mul.w	$r14,$r12,$r5
1c001760:	29804249 	st.w	$r9,$r18,16(0x10)
1c001764:	2980524b 	st.w	$r11,$r18,20(0x14)
1c001768:	001c17ef 	mul.w	$r15,$r31,$r5
1c00176c:	2980624e 	st.w	$r14,$r18,24(0x18)
1c001770:	2980724f 	st.w	$r15,$r18,28(0x1c)
1c001774:	02808252 	addi.w	$r18,$r18,32(0x20)
1c001778:	5fff99b1 	bne	$r13,$r17,-104(0x3ff98) # 1c001710 <core_bench_matrix+0x290>
1c00177c:	001501b1 	move	$r17,$r13
1c001780:	00105e94 	add.w	$r20,$r20,$r23
1c001784:	028004cd 	addi.w	$r13,$r6,1(0x1)
1c001788:	58000e66 	beq	$r19,$r6,12(0xc) # 1c001794 <core_bench_matrix+0x314>
1c00178c:	001501a6 	move	$r6,$r13
1c001790:	53fea7ff 	b	-348(0xffffea4) # 1c001634 <core_bench_matrix+0x1b4>
1c001794:	02bff005 	addi.w	$r5,$r0,-4(0xffc)
1c001798:	02bfe011 	addi.w	$r17,$r0,-8(0xff8)
1c00179c:	001c17a6 	mul.w	$r6,$r29,$r5
1c0017a0:	00105f4c 	add.w	$r12,$r26,$r23
1c0017a4:	00150192 	move	$r18,$r12
1c0017a8:	00150004 	move	$r4,$r0
1c0017ac:	00150009 	move	$r9,$r0
1c0017b0:	00150007 	move	$r7,$r0
1c0017b4:	00150014 	move	$r20,$r0
1c0017b8:	001c47a5 	mul.w	$r5,$r29,$r17
1c0017bc:	03400000 	andi	$r0,$r0,0x0
1c0017c0:	00101a41 	add.w	$r1,$r18,$r6
1c0017c4:	00110648 	sub.w	$r8,$r18,$r1
1c0017c8:	02bff10a 	addi.w	$r10,$r8,-4(0xffc)
1c0017cc:	0044894b 	srli.w	$r11,$r10,0x2
1c0017d0:	0280056e 	addi.w	$r14,$r11,1(0x1)
1c0017d4:	03401ddf 	andi	$r31,$r14,0x7
1c0017d8:	0015002f 	move	$r15,$r1
1c0017dc:	58027be0 	beq	$r31,$r0,632(0x278) # 1c001a54 <core_bench_matrix+0x5d4>
1c0017e0:	0280040d 	addi.w	$r13,$r0,1(0x1)
1c0017e4:	580137ed 	beq	$r31,$r13,308(0x134) # 1c001918 <core_bench_matrix+0x498>
1c0017e8:	02800811 	addi.w	$r17,$r0,2(0x2)
1c0017ec:	580103f1 	beq	$r31,$r17,256(0x100) # 1c0018ec <core_bench_matrix+0x46c>
1c0017f0:	02800c08 	addi.w	$r8,$r0,3(0x3)
1c0017f4:	5800cfe8 	beq	$r31,$r8,204(0xcc) # 1c0018c0 <core_bench_matrix+0x440>
1c0017f8:	0280100a 	addi.w	$r10,$r0,4(0x4)
1c0017fc:	58009bea 	beq	$r31,$r10,152(0x98) # 1c001894 <core_bench_matrix+0x414>
1c001800:	0280140b 	addi.w	$r11,$r0,5(0x5)
1c001804:	580067eb 	beq	$r31,$r11,100(0x64) # 1c001868 <core_bench_matrix+0x3e8>
1c001808:	0280180e 	addi.w	$r14,$r0,6(0x6)
1c00180c:	580033ee 	beq	$r31,$r14,48(0x30) # 1c00183c <core_bench_matrix+0x3bc>
1c001810:	2880002f 	ld.w	$r15,$r1,0
1c001814:	29804064 	st.w	$r4,$r3,16(0x10)
1c001818:	2a404064 	ld.hu	$r4,$r3,16(0x10)
1c00181c:	00103ce7 	add.w	$r7,$r7,$r15
1c001820:	64154387 	bge	$r28,$r7,5440(0x1540) # 1c002d60 <core_bench_matrix+0x18e0>
1c001824:	02802887 	addi.w	$r7,$r4,10(0xa)
1c001828:	29804067 	st.w	$r7,$r3,16(0x10)
1c00182c:	28404064 	ld.h	$r4,$r3,16(0x10)
1c001830:	00150007 	move	$r7,$r0
1c001834:	001501e9 	move	$r9,$r15
1c001838:	0280102f 	addi.w	$r15,$r1,4(0x4)
1c00183c:	288001f1 	ld.w	$r17,$r15,0
1c001840:	29804064 	st.w	$r4,$r3,16(0x10)
1c001844:	2a40406d 	ld.hu	$r13,$r3,16(0x10)
1c001848:	001044e7 	add.w	$r7,$r7,$r17
1c00184c:	6403b787 	bge	$r28,$r7,948(0x3b4) # 1c001c00 <core_bench_matrix+0x780>
1c001850:	028029ab 	addi.w	$r11,$r13,10(0xa)
1c001854:	2980406b 	st.w	$r11,$r3,16(0x10)
1c001858:	28404064 	ld.h	$r4,$r3,16(0x10)
1c00185c:	00150007 	move	$r7,$r0
1c001860:	028011ef 	addi.w	$r15,$r15,4(0x4)
1c001864:	00150229 	move	$r9,$r17
1c001868:	288001ff 	ld.w	$r31,$r15,0
1c00186c:	29804064 	st.w	$r4,$r3,16(0x10)
1c001870:	2a40406e 	ld.hu	$r14,$r3,16(0x10)
1c001874:	00107ce7 	add.w	$r7,$r7,$r31
1c001878:	64034b87 	bge	$r28,$r7,840(0x348) # 1c001bc0 <core_bench_matrix+0x740>
1c00187c:	028029c7 	addi.w	$r7,$r14,10(0xa)
1c001880:	29804067 	st.w	$r7,$r3,16(0x10)
1c001884:	28404064 	ld.h	$r4,$r3,16(0x10)
1c001888:	00150007 	move	$r7,$r0
1c00188c:	028011ef 	addi.w	$r15,$r15,4(0x4)
1c001890:	001503e9 	move	$r9,$r31
1c001894:	288001f1 	ld.w	$r17,$r15,0
1c001898:	29804064 	st.w	$r4,$r3,16(0x10)
1c00189c:	2a40406d 	ld.hu	$r13,$r3,16(0x10)
1c0018a0:	001044e7 	add.w	$r7,$r7,$r17
1c0018a4:	64034787 	bge	$r28,$r7,836(0x344) # 1c001be8 <core_bench_matrix+0x768>
1c0018a8:	028029ab 	addi.w	$r11,$r13,10(0xa)
1c0018ac:	2980406b 	st.w	$r11,$r3,16(0x10)
1c0018b0:	28404064 	ld.h	$r4,$r3,16(0x10)
1c0018b4:	00150007 	move	$r7,$r0
1c0018b8:	028011ef 	addi.w	$r15,$r15,4(0x4)
1c0018bc:	00150229 	move	$r9,$r17
1c0018c0:	288001ff 	ld.w	$r31,$r15,0
1c0018c4:	29804064 	st.w	$r4,$r3,16(0x10)
1c0018c8:	2a40406e 	ld.hu	$r14,$r3,16(0x10)
1c0018cc:	00107ce7 	add.w	$r7,$r7,$r31
1c0018d0:	64030787 	bge	$r28,$r7,772(0x304) # 1c001bd4 <core_bench_matrix+0x754>
1c0018d4:	028029c7 	addi.w	$r7,$r14,10(0xa)
1c0018d8:	29804067 	st.w	$r7,$r3,16(0x10)
1c0018dc:	28404064 	ld.h	$r4,$r3,16(0x10)
1c0018e0:	00150007 	move	$r7,$r0
1c0018e4:	028011ef 	addi.w	$r15,$r15,4(0x4)
1c0018e8:	001503e9 	move	$r9,$r31
1c0018ec:	288001f1 	ld.w	$r17,$r15,0
1c0018f0:	29804064 	st.w	$r4,$r3,16(0x10)
1c0018f4:	2a40406d 	ld.hu	$r13,$r3,16(0x10)
1c0018f8:	001044e7 	add.w	$r7,$r7,$r17
1c0018fc:	64029b87 	bge	$r28,$r7,664(0x298) # 1c001b94 <core_bench_matrix+0x714>
1c001900:	028029ab 	addi.w	$r11,$r13,10(0xa)
1c001904:	2980406b 	st.w	$r11,$r3,16(0x10)
1c001908:	28404064 	ld.h	$r4,$r3,16(0x10)
1c00190c:	00150007 	move	$r7,$r0
1c001910:	028011ef 	addi.w	$r15,$r15,4(0x4)
1c001914:	00150229 	move	$r9,$r17
1c001918:	288001eb 	ld.w	$r11,$r15,0
1c00191c:	29804064 	st.w	$r4,$r3,16(0x10)
1c001920:	2a40406e 	ld.hu	$r14,$r3,16(0x10)
1c001924:	00102ce7 	add.w	$r7,$r7,$r11
1c001928:	64025b87 	bge	$r28,$r7,600(0x258) # 1c001b80 <core_bench_matrix+0x700>
1c00192c:	028029c9 	addi.w	$r9,$r14,10(0xa)
1c001930:	29804069 	st.w	$r9,$r3,16(0x10)
1c001934:	28404064 	ld.h	$r4,$r3,16(0x10)
1c001938:	00150007 	move	$r7,$r0
1c00193c:	028011ef 	addi.w	$r15,$r15,4(0x4)
1c001940:	00150169 	move	$r9,$r11
1c001944:	5c0111f2 	bne	$r15,$r18,272(0x110) # 1c001a54 <core_bench_matrix+0x5d4>
1c001948:	00111432 	sub.w	$r18,$r1,$r5
1c00194c:	00150169 	move	$r9,$r11
1c001950:	02800681 	addi.w	$r1,$r20,1(0x1)
1c001954:	5802c274 	beq	$r19,$r20,704(0x2c0) # 1c001c14 <core_bench_matrix+0x794>
1c001958:	00150034 	move	$r20,$r1
1c00195c:	53fe67ff 	b	-412(0xffffe64) # 1c0017c0 <core_bench_matrix+0x340>
1c001960:	02802bea 	addi.w	$r10,$r31,10(0xa)
1c001964:	2980406a 	st.w	$r10,$r3,16(0x10)
1c001968:	28404068 	ld.h	$r8,$r3,16(0x10)
1c00196c:	288011ee 	ld.w	$r14,$r15,4(0x4)
1c001970:	0015000d 	move	$r13,$r0
1c001974:	29804068 	st.w	$r8,$r3,16(0x10)
1c001978:	001039a7 	add.w	$r7,$r13,$r14
1c00197c:	2a40406b 	ld.hu	$r11,$r3,16(0x10)
1c001980:	64013787 	bge	$r28,$r7,308(0x134) # 1c001ab4 <core_bench_matrix+0x634>
1c001984:	02802964 	addi.w	$r4,$r11,10(0xa)
1c001988:	29804064 	st.w	$r4,$r3,16(0x10)
1c00198c:	2840406d 	ld.h	$r13,$r3,16(0x10)
1c001990:	288021e8 	ld.w	$r8,$r15,8(0x8)
1c001994:	00150007 	move	$r7,$r0
1c001998:	2980406d 	st.w	$r13,$r3,16(0x10)
1c00199c:	001020eb 	add.w	$r11,$r7,$r8
1c0019a0:	2a404071 	ld.hu	$r17,$r3,16(0x10)
1c0019a4:	6401378b 	bge	$r28,$r11,308(0x134) # 1c001ad8 <core_bench_matrix+0x658>
1c0019a8:	02802a3f 	addi.w	$r31,$r17,10(0xa)
1c0019ac:	2980407f 	st.w	$r31,$r3,16(0x10)
1c0019b0:	28404067 	ld.h	$r7,$r3,16(0x10)
1c0019b4:	288031e9 	ld.w	$r9,$r15,12(0xc)
1c0019b8:	0015000b 	move	$r11,$r0
1c0019bc:	29804067 	st.w	$r7,$r3,16(0x10)
1c0019c0:	00102571 	add.w	$r17,$r11,$r9
1c0019c4:	2a40406d 	ld.hu	$r13,$r3,16(0x10)
1c0019c8:	64013791 	bge	$r28,$r17,308(0x134) # 1c001afc <core_bench_matrix+0x67c>
1c0019cc:	028029aa 	addi.w	$r10,$r13,10(0xa)
1c0019d0:	2980406a 	st.w	$r10,$r3,16(0x10)
1c0019d4:	2840406b 	ld.h	$r11,$r3,16(0x10)
1c0019d8:	288041ff 	ld.w	$r31,$r15,16(0x10)
1c0019dc:	00150011 	move	$r17,$r0
1c0019e0:	2980406b 	st.w	$r11,$r3,16(0x10)
1c0019e4:	00107e27 	add.w	$r7,$r17,$r31
1c0019e8:	2a40406e 	ld.hu	$r14,$r3,16(0x10)
1c0019ec:	64013787 	bge	$r28,$r7,308(0x134) # 1c001b20 <core_bench_matrix+0x6a0>
1c0019f0:	028029c4 	addi.w	$r4,$r14,10(0xa)
1c0019f4:	29804064 	st.w	$r4,$r3,16(0x10)
1c0019f8:	28404071 	ld.h	$r17,$r3,16(0x10)
1c0019fc:	288051ea 	ld.w	$r10,$r15,20(0x14)
1c001a00:	00150007 	move	$r7,$r0
1c001a04:	29804071 	st.w	$r17,$r3,16(0x10)
1c001a08:	001028ee 	add.w	$r14,$r7,$r10
1c001a0c:	2a40406b 	ld.hu	$r11,$r3,16(0x10)
1c001a10:	6401378e 	bge	$r28,$r14,308(0x134) # 1c001b44 <core_bench_matrix+0x6c4>
1c001a14:	0280296d 	addi.w	$r13,$r11,10(0xa)
1c001a18:	2980406d 	st.w	$r13,$r3,16(0x10)
1c001a1c:	28404067 	ld.h	$r7,$r3,16(0x10)
1c001a20:	288061eb 	ld.w	$r11,$r15,24(0x18)
1c001a24:	0015000e 	move	$r14,$r0
1c001a28:	29804067 	st.w	$r7,$r3,16(0x10)
1c001a2c:	00102dc7 	add.w	$r7,$r14,$r11
1c001a30:	2a404071 	ld.hu	$r17,$r3,16(0x10)
1c001a34:	64013787 	bge	$r28,$r7,308(0x134) # 1c001b68 <core_bench_matrix+0x6e8>
1c001a38:	02802a2a 	addi.w	$r10,$r17,10(0xa)
1c001a3c:	2980406a 	st.w	$r10,$r3,16(0x10)
1c001a40:	28404064 	ld.h	$r4,$r3,16(0x10)
1c001a44:	00150007 	move	$r7,$r0
1c001a48:	028071ef 	addi.w	$r15,$r15,28(0x1c)
1c001a4c:	00150169 	move	$r9,$r11
1c001a50:	5bfef9f2 	beq	$r15,$r18,-264(0x3fef8) # 1c001948 <core_bench_matrix+0x4c8>
1c001a54:	288001f1 	ld.w	$r17,$r15,0
1c001a58:	29804064 	st.w	$r4,$r3,16(0x10)
1c001a5c:	2a40406d 	ld.hu	$r13,$r3,16(0x10)
1c001a60:	001044ee 	add.w	$r14,$r7,$r17
1c001a64:	6001478e 	blt	$r28,$r14,324(0x144) # 1c001ba8 <core_bench_matrix+0x728>
1c001a68:	00124528 	slt	$r8,$r9,$r17
1c001a6c:	001021aa 	add.w	$r10,$r13,$r8
1c001a70:	2980406a 	st.w	$r10,$r3,16(0x10)
1c001a74:	2840406b 	ld.h	$r11,$r3,16(0x10)
1c001a78:	288011e9 	ld.w	$r9,$r15,4(0x4)
1c001a7c:	2980406b 	st.w	$r11,$r3,16(0x10)
1c001a80:	2a40407f 	ld.hu	$r31,$r3,16(0x10)
1c001a84:	001025cd 	add.w	$r13,$r14,$r9
1c001a88:	028011ef 	addi.w	$r15,$r15,4(0x4)
1c001a8c:	63fed78d 	blt	$r28,$r13,-300(0x3fed4) # 1c001960 <core_bench_matrix+0x4e0>
1c001a90:	00122624 	slt	$r4,$r17,$r9
1c001a94:	001013f1 	add.w	$r17,$r31,$r4
1c001a98:	29804071 	st.w	$r17,$r3,16(0x10)
1c001a9c:	28404068 	ld.h	$r8,$r3,16(0x10)
1c001aa0:	288011ee 	ld.w	$r14,$r15,4(0x4)
1c001aa4:	29804068 	st.w	$r8,$r3,16(0x10)
1c001aa8:	001039a7 	add.w	$r7,$r13,$r14
1c001aac:	2a40406b 	ld.hu	$r11,$r3,16(0x10)
1c001ab0:	63fed787 	blt	$r28,$r7,-300(0x3fed4) # 1c001984 <core_bench_matrix+0x504>
1c001ab4:	0012393f 	slt	$r31,$r9,$r14
1c001ab8:	00107d69 	add.w	$r9,$r11,$r31
1c001abc:	29804069 	st.w	$r9,$r3,16(0x10)
1c001ac0:	2840406d 	ld.h	$r13,$r3,16(0x10)
1c001ac4:	288021e8 	ld.w	$r8,$r15,8(0x8)
1c001ac8:	2980406d 	st.w	$r13,$r3,16(0x10)
1c001acc:	001020eb 	add.w	$r11,$r7,$r8
1c001ad0:	2a404071 	ld.hu	$r17,$r3,16(0x10)
1c001ad4:	63fed78b 	blt	$r28,$r11,-300(0x3fed4) # 1c0019a8 <core_bench_matrix+0x528>
1c001ad8:	001221ca 	slt	$r10,$r14,$r8
1c001adc:	00102a2e 	add.w	$r14,$r17,$r10
1c001ae0:	2980406e 	st.w	$r14,$r3,16(0x10)
1c001ae4:	28404067 	ld.h	$r7,$r3,16(0x10)
1c001ae8:	288031e9 	ld.w	$r9,$r15,12(0xc)
1c001aec:	29804067 	st.w	$r7,$r3,16(0x10)
1c001af0:	00102571 	add.w	$r17,$r11,$r9
1c001af4:	2a40406d 	ld.hu	$r13,$r3,16(0x10)
1c001af8:	63fed791 	blt	$r28,$r17,-300(0x3fed4) # 1c0019cc <core_bench_matrix+0x54c>
1c001afc:	00122504 	slt	$r4,$r8,$r9
1c001b00:	001011a8 	add.w	$r8,$r13,$r4
1c001b04:	29804068 	st.w	$r8,$r3,16(0x10)
1c001b08:	2840406b 	ld.h	$r11,$r3,16(0x10)
1c001b0c:	288041ff 	ld.w	$r31,$r15,16(0x10)
1c001b10:	2980406b 	st.w	$r11,$r3,16(0x10)
1c001b14:	00107e27 	add.w	$r7,$r17,$r31
1c001b18:	2a40406e 	ld.hu	$r14,$r3,16(0x10)
1c001b1c:	63fed787 	blt	$r28,$r7,-300(0x3fed4) # 1c0019f0 <core_bench_matrix+0x570>
1c001b20:	00127d2d 	slt	$r13,$r9,$r31
1c001b24:	001035c9 	add.w	$r9,$r14,$r13
1c001b28:	29804069 	st.w	$r9,$r3,16(0x10)
1c001b2c:	28404071 	ld.h	$r17,$r3,16(0x10)
1c001b30:	288051ea 	ld.w	$r10,$r15,20(0x14)
1c001b34:	29804071 	st.w	$r17,$r3,16(0x10)
1c001b38:	001028ee 	add.w	$r14,$r7,$r10
1c001b3c:	2a40406b 	ld.hu	$r11,$r3,16(0x10)
1c001b40:	63fed78e 	blt	$r28,$r14,-300(0x3fed4) # 1c001a14 <core_bench_matrix+0x594>
1c001b44:	00122be8 	slt	$r8,$r31,$r10
1c001b48:	0010217f 	add.w	$r31,$r11,$r8
1c001b4c:	2980407f 	st.w	$r31,$r3,16(0x10)
1c001b50:	28404067 	ld.h	$r7,$r3,16(0x10)
1c001b54:	288061eb 	ld.w	$r11,$r15,24(0x18)
1c001b58:	29804067 	st.w	$r7,$r3,16(0x10)
1c001b5c:	00102dc7 	add.w	$r7,$r14,$r11
1c001b60:	2a404071 	ld.hu	$r17,$r3,16(0x10)
1c001b64:	63fed787 	blt	$r28,$r7,-300(0x3fed4) # 1c001a38 <core_bench_matrix+0x5b8>
1c001b68:	00122d49 	slt	$r9,$r10,$r11
1c001b6c:	00102624 	add.w	$r4,$r17,$r9
1c001b70:	29804064 	st.w	$r4,$r3,16(0x10)
1c001b74:	28404064 	ld.h	$r4,$r3,16(0x10)
1c001b78:	53fed3ff 	b	-304(0xffffed0) # 1c001a48 <core_bench_matrix+0x5c8>
1c001b7c:	03400000 	andi	$r0,$r0,0x0
1c001b80:	00122d3f 	slt	$r31,$r9,$r11
1c001b84:	00107dc4 	add.w	$r4,$r14,$r31
1c001b88:	29804064 	st.w	$r4,$r3,16(0x10)
1c001b8c:	28404064 	ld.h	$r4,$r3,16(0x10)
1c001b90:	53fdafff 	b	-596(0xffffdac) # 1c00193c <core_bench_matrix+0x4bc>
1c001b94:	00124528 	slt	$r8,$r9,$r17
1c001b98:	001021aa 	add.w	$r10,$r13,$r8
1c001b9c:	2980406a 	st.w	$r10,$r3,16(0x10)
1c001ba0:	28404064 	ld.h	$r4,$r3,16(0x10)
1c001ba4:	53fd6fff 	b	-660(0xffffd6c) # 1c001910 <core_bench_matrix+0x490>
1c001ba8:	028029a7 	addi.w	$r7,$r13,10(0xa)
1c001bac:	29804067 	st.w	$r7,$r3,16(0x10)
1c001bb0:	2840406b 	ld.h	$r11,$r3,16(0x10)
1c001bb4:	0015000e 	move	$r14,$r0
1c001bb8:	53fec3ff 	b	-320(0xffffec0) # 1c001a78 <core_bench_matrix+0x5f8>
1c001bbc:	03400000 	andi	$r0,$r0,0x0
1c001bc0:	00127d24 	slt	$r4,$r9,$r31
1c001bc4:	001011c9 	add.w	$r9,$r14,$r4
1c001bc8:	29804069 	st.w	$r9,$r3,16(0x10)
1c001bcc:	28404064 	ld.h	$r4,$r3,16(0x10)
1c001bd0:	53fcbfff 	b	-836(0xffffcbc) # 1c00188c <core_bench_matrix+0x40c>
1c001bd4:	00127d24 	slt	$r4,$r9,$r31
1c001bd8:	001011c9 	add.w	$r9,$r14,$r4
1c001bdc:	29804069 	st.w	$r9,$r3,16(0x10)
1c001be0:	28404064 	ld.h	$r4,$r3,16(0x10)
1c001be4:	53fd03ff 	b	-768(0xffffd00) # 1c0018e4 <core_bench_matrix+0x464>
1c001be8:	00124528 	slt	$r8,$r9,$r17
1c001bec:	001021aa 	add.w	$r10,$r13,$r8
1c001bf0:	2980406a 	st.w	$r10,$r3,16(0x10)
1c001bf4:	28404064 	ld.h	$r4,$r3,16(0x10)
1c001bf8:	53fcc3ff 	b	-832(0xffffcc0) # 1c0018b8 <core_bench_matrix+0x438>
1c001bfc:	03400000 	andi	$r0,$r0,0x0
1c001c00:	00124528 	slt	$r8,$r9,$r17
1c001c04:	001021aa 	add.w	$r10,$r13,$r8
1c001c08:	2980406a 	st.w	$r10,$r3,16(0x10)
1c001c0c:	28404064 	ld.h	$r4,$r3,16(0x10)
1c001c10:	53fc53ff 	b	-944(0xffffc50) # 1c001860 <core_bench_matrix+0x3e0>
1c001c14:	00150005 	move	$r5,$r0
1c001c18:	2980606c 	st.w	$r12,$r3,24(0x18)
1c001c1c:	29804070 	st.w	$r16,$r3,16(0x10)
1c001c20:	545e0000 	bl	24064(0x5e00) # 1c007a20 <crc16>
1c001c24:	0015009f 	move	$r31,$r4
1c001c28:	001502e6 	move	$r6,$r23
1c001c2c:	00150005 	move	$r5,$r0
1c001c30:	00150344 	move	$r4,$r26
1c001c34:	547f0c00 	bl	32524(0x7f0c) # 1c009b40 <memset>
1c001c38:	2880406d 	ld.w	$r13,$r3,16(0x10)
1c001c3c:	28806068 	ld.w	$r8,$r3,24(0x18)
1c001c40:	0015036f 	move	$r15,$r27
1c001c44:	0015034e 	move	$r14,$r26
1c001c48:	02bffad4 	addi.w	$r20,$r22,-2(0xffe)
1c001c4c:	00448691 	srli.w	$r17,$r20,0x1
1c001c50:	0280062b 	addi.w	$r11,$r17,1(0x1)
1c001c54:	03401d67 	andi	$r7,$r11,0x7
1c001c58:	001503d4 	move	$r20,$r30
1c001c5c:	00150005 	move	$r5,$r0
1c001c60:	00103ec4 	add.w	$r4,$r22,$r15
1c001c64:	5800dce0 	beq	$r7,$r0,220(0xdc) # 1c001d40 <core_bench_matrix+0x8c0>
1c001c68:	0280040a 	addi.w	$r10,$r0,1(0x1)
1c001c6c:	5800b8ea 	beq	$r7,$r10,184(0xb8) # 1c001d24 <core_bench_matrix+0x8a4>
1c001c70:	02800809 	addi.w	$r9,$r0,2(0x2)
1c001c74:	580098e9 	beq	$r7,$r9,152(0x98) # 1c001d0c <core_bench_matrix+0x88c>
1c001c78:	02800c06 	addi.w	$r6,$r0,3(0x3)
1c001c7c:	580078e6 	beq	$r7,$r6,120(0x78) # 1c001cf4 <core_bench_matrix+0x874>
1c001c80:	0280100c 	addi.w	$r12,$r0,4(0x4)
1c001c84:	580058ec 	beq	$r7,$r12,88(0x58) # 1c001cdc <core_bench_matrix+0x85c>
1c001c88:	02801410 	addi.w	$r16,$r0,5(0x5)
1c001c8c:	580038f0 	beq	$r7,$r16,56(0x38) # 1c001cc4 <core_bench_matrix+0x844>
1c001c90:	02801813 	addi.w	$r19,$r0,6(0x6)
1c001c94:	580018f3 	beq	$r7,$r19,24(0x18) # 1c001cac <core_bench_matrix+0x82c>
1c001c98:	284001e5 	ld.h	$r5,$r15,0
1c001c9c:	284003d2 	ld.h	$r18,$r30,0
1c001ca0:	028009ef 	addi.w	$r15,$r15,2(0x2)
1c001ca4:	02800bd4 	addi.w	$r20,$r30,2(0x2)
1c001ca8:	001c48a5 	mul.w	$r5,$r5,$r18
1c001cac:	284001e1 	ld.h	$r1,$r15,0
1c001cb0:	28400291 	ld.h	$r17,$r20,0
1c001cb4:	028009ef 	addi.w	$r15,$r15,2(0x2)
1c001cb8:	02800a94 	addi.w	$r20,$r20,2(0x2)
1c001cbc:	001c442b 	mul.w	$r11,$r1,$r17
1c001cc0:	00102ca5 	add.w	$r5,$r5,$r11
1c001cc4:	284001e7 	ld.h	$r7,$r15,0
1c001cc8:	2840028a 	ld.h	$r10,$r20,0
1c001ccc:	028009ef 	addi.w	$r15,$r15,2(0x2)
1c001cd0:	02800a94 	addi.w	$r20,$r20,2(0x2)
1c001cd4:	001c28e9 	mul.w	$r9,$r7,$r10
1c001cd8:	001024a5 	add.w	$r5,$r5,$r9
1c001cdc:	284001e6 	ld.h	$r6,$r15,0
1c001ce0:	2840028c 	ld.h	$r12,$r20,0
1c001ce4:	028009ef 	addi.w	$r15,$r15,2(0x2)
1c001ce8:	02800a94 	addi.w	$r20,$r20,2(0x2)
1c001cec:	001c30d0 	mul.w	$r16,$r6,$r12
1c001cf0:	001040a5 	add.w	$r5,$r5,$r16
1c001cf4:	284001f3 	ld.h	$r19,$r15,0
1c001cf8:	28400292 	ld.h	$r18,$r20,0
1c001cfc:	028009ef 	addi.w	$r15,$r15,2(0x2)
1c001d00:	02800a94 	addi.w	$r20,$r20,2(0x2)
1c001d04:	001c4a61 	mul.w	$r1,$r19,$r18
1c001d08:	001004a5 	add.w	$r5,$r5,$r1
1c001d0c:	284001f1 	ld.h	$r17,$r15,0
1c001d10:	2840028b 	ld.h	$r11,$r20,0
1c001d14:	028009ef 	addi.w	$r15,$r15,2(0x2)
1c001d18:	02800a94 	addi.w	$r20,$r20,2(0x2)
1c001d1c:	001c2e27 	mul.w	$r7,$r17,$r11
1c001d20:	00101ca5 	add.w	$r5,$r5,$r7
1c001d24:	284001ea 	ld.h	$r10,$r15,0
1c001d28:	28400289 	ld.h	$r9,$r20,0
1c001d2c:	028009ef 	addi.w	$r15,$r15,2(0x2)
1c001d30:	02800a94 	addi.w	$r20,$r20,2(0x2)
1c001d34:	001c2546 	mul.w	$r6,$r10,$r9
1c001d38:	001018a5 	add.w	$r5,$r5,$r6
1c001d3c:	5800908f 	beq	$r4,$r15,144(0x90) # 1c001dcc <core_bench_matrix+0x94c>
1c001d40:	284001ec 	ld.h	$r12,$r15,0
1c001d44:	28400290 	ld.h	$r16,$r20,0
1c001d48:	284009f2 	ld.h	$r18,$r15,2(0x2)
1c001d4c:	28400a81 	ld.h	$r1,$r20,2(0x2)
1c001d50:	001c4193 	mul.w	$r19,$r12,$r16
1c001d54:	284011ea 	ld.h	$r10,$r15,4(0x4)
1c001d58:	28401289 	ld.h	$r9,$r20,4(0x4)
1c001d5c:	284019ec 	ld.h	$r12,$r15,6(0x6)
1c001d60:	28401a86 	ld.h	$r6,$r20,6(0x6)
1c001d64:	028041ef 	addi.w	$r15,$r15,16(0x10)
1c001d68:	02804294 	addi.w	$r20,$r20,16(0x10)
1c001d6c:	001c064b 	mul.w	$r11,$r18,$r1
1c001d70:	00104cb1 	add.w	$r17,$r5,$r19
1c001d74:	287fe292 	ld.h	$r18,$r20,-8(0xff8)
1c001d78:	00102e27 	add.w	$r7,$r17,$r11
1c001d7c:	001c2545 	mul.w	$r5,$r10,$r9
1c001d80:	287fe1eb 	ld.h	$r11,$r15,-8(0xff8)
1c001d84:	287fea8a 	ld.h	$r10,$r20,-6(0xffa)
1c001d88:	001c1990 	mul.w	$r16,$r12,$r6
1c001d8c:	001014f3 	add.w	$r19,$r7,$r5
1c001d90:	287fe9e7 	ld.h	$r7,$r15,-6(0xffa)
1c001d94:	287ff1e6 	ld.h	$r6,$r15,-4(0xffc)
1c001d98:	001c4971 	mul.w	$r17,$r11,$r18
1c001d9c:	00104261 	add.w	$r1,$r19,$r16
1c001da0:	287ff290 	ld.h	$r16,$r20,-4(0xffc)
1c001da4:	287ffa8b 	ld.h	$r11,$r20,-2(0xffe)
1c001da8:	00104425 	add.w	$r5,$r1,$r17
1c001dac:	001c28e9 	mul.w	$r9,$r7,$r10
1c001db0:	287ff9e1 	ld.h	$r1,$r15,-2(0xffe)
1c001db4:	001c40d3 	mul.w	$r19,$r6,$r16
1c001db8:	001024ac 	add.w	$r12,$r5,$r9
1c001dbc:	001c2c32 	mul.w	$r18,$r1,$r11
1c001dc0:	00104d91 	add.w	$r17,$r12,$r19
1c001dc4:	00104a25 	add.w	$r5,$r17,$r18
1c001dc8:	5fff788f 	bne	$r4,$r15,-136(0x3ff78) # 1c001d40 <core_bench_matrix+0x8c0>
1c001dcc:	298001c5 	st.w	$r5,$r14,0
1c001dd0:	028011ce 	addi.w	$r14,$r14,4(0x4)
1c001dd4:	0015008f 	move	$r15,$r4
1c001dd8:	5ffe71c8 	bne	$r14,$r8,-400(0x3fe70) # 1c001c48 <core_bench_matrix+0x7c8>
1c001ddc:	0015034f 	move	$r15,$r26
1c001de0:	00150004 	move	$r4,$r0
1c001de4:	00150010 	move	$r16,$r0
1c001de8:	00150014 	move	$r20,$r0
1c001dec:	00150011 	move	$r17,$r0
1c001df0:	288001e5 	ld.w	$r5,$r15,0
1c001df4:	29804064 	st.w	$r4,$r3,16(0x10)
1c001df8:	02bfffa8 	addi.w	$r8,$r29,-1(0xfff)
1c001dfc:	00101694 	add.w	$r20,$r20,$r5
1c001e00:	2a40406e 	ld.hu	$r14,$r3,16(0x10)
1c001e04:	03400d07 	andi	$r7,$r8,0x3
1c001e08:	640f0394 	bge	$r28,$r20,3840(0xf00) # 1c002d08 <core_bench_matrix+0x1888>
1c001e0c:	028029d4 	addi.w	$r20,$r14,10(0xa)
1c001e10:	29804074 	st.w	$r20,$r3,16(0x10)
1c001e14:	28404064 	ld.h	$r4,$r3,16(0x10)
1c001e18:	00150014 	move	$r20,$r0
1c001e1c:	02800412 	addi.w	$r18,$r0,1(0x1)
1c001e20:	028011f3 	addi.w	$r19,$r15,4(0x4)
1c001e24:	001500aa 	move	$r10,$r5
1c001e28:	6c00a25d 	bgeu	$r18,$r29,160(0xa0) # 1c001ec8 <core_bench_matrix+0xa48>
1c001e2c:	5809c8e0 	beq	$r7,$r0,2504(0x9c8) # 1c0027f4 <core_bench_matrix+0x1374>
1c001e30:	580068f2 	beq	$r7,$r18,104(0x68) # 1c001e98 <core_bench_matrix+0xa18>
1c001e34:	02800809 	addi.w	$r9,$r0,2(0x2)
1c001e38:	580030e9 	beq	$r7,$r9,48(0x30) # 1c001e68 <core_bench_matrix+0x9e8>
1c001e3c:	2880026a 	ld.w	$r10,$r19,0
1c001e40:	29804064 	st.w	$r4,$r3,16(0x10)
1c001e44:	2a40406c 	ld.hu	$r12,$r3,16(0x10)
1c001e48:	00102a94 	add.w	$r20,$r20,$r10
1c001e4c:	640eeb94 	bge	$r28,$r20,3816(0xee8) # 1c002d34 <core_bench_matrix+0x18b4>
1c001e50:	02802981 	addi.w	$r1,$r12,10(0xa)
1c001e54:	29804061 	st.w	$r1,$r3,16(0x10)
1c001e58:	28404064 	ld.h	$r4,$r3,16(0x10)
1c001e5c:	00150014 	move	$r20,$r0
1c001e60:	02800652 	addi.w	$r18,$r18,1(0x1)
1c001e64:	02801273 	addi.w	$r19,$r19,4(0x4)
1c001e68:	2880026e 	ld.w	$r14,$r19,0
1c001e6c:	29804064 	st.w	$r4,$r3,16(0x10)
1c001e70:	2a40406b 	ld.hu	$r11,$r3,16(0x10)
1c001e74:	00103a94 	add.w	$r20,$r20,$r14
1c001e78:	640e2b94 	bge	$r28,$r20,3624(0xe28) # 1c002ca0 <core_bench_matrix+0x1820>
1c001e7c:	02802967 	addi.w	$r7,$r11,10(0xa)
1c001e80:	29804067 	st.w	$r7,$r3,16(0x10)
1c001e84:	28404064 	ld.h	$r4,$r3,16(0x10)
1c001e88:	00150014 	move	$r20,$r0
1c001e8c:	02800652 	addi.w	$r18,$r18,1(0x1)
1c001e90:	02801273 	addi.w	$r19,$r19,4(0x4)
1c001e94:	001501ca 	move	$r10,$r14
1c001e98:	28800265 	ld.w	$r5,$r19,0
1c001e9c:	29804064 	st.w	$r4,$r3,16(0x10)
1c001ea0:	2a404064 	ld.hu	$r4,$r3,16(0x10)
1c001ea4:	00101694 	add.w	$r20,$r20,$r5
1c001ea8:	640c4f94 	bge	$r28,$r20,3148(0xc4c) # 1c002af4 <core_bench_matrix+0x1674>
1c001eac:	02802894 	addi.w	$r20,$r4,10(0xa)
1c001eb0:	29804074 	st.w	$r20,$r3,16(0x10)
1c001eb4:	28404064 	ld.h	$r4,$r3,16(0x10)
1c001eb8:	00150014 	move	$r20,$r0
1c001ebc:	02800652 	addi.w	$r18,$r18,1(0x1)
1c001ec0:	02801273 	addi.w	$r19,$r19,4(0x4)
1c001ec4:	6809325d 	bltu	$r18,$r29,2352(0x930) # 1c0027f4 <core_bench_matrix+0x1374>
1c001ec8:	02800631 	addi.w	$r17,$r17,1(0x1)
1c001ecc:	00105def 	add.w	$r15,$r15,$r23
1c001ed0:	001500b0 	move	$r16,$r5
1c001ed4:	6bff1e3d 	bltu	$r17,$r29,-228(0x3ff1c) # 1c001df0 <core_bench_matrix+0x970>
1c001ed8:	001503e5 	move	$r5,$r31
1c001edc:	0280101f 	addi.w	$r31,$r0,4(0x4)
1c001ee0:	2980606d 	st.w	$r13,$r3,24(0x18)
1c001ee4:	2980407f 	st.w	$r31,$r3,16(0x10)
1c001ee8:	545b3800 	bl	23352(0x5b38) # 1c007a20 <crc16>
1c001eec:	2880606d 	ld.w	$r13,$r3,24(0x18)
1c001ef0:	0015009f 	move	$r31,$r4
1c001ef4:	5c0e9da0 	bne	$r13,$r0,3740(0xe9c) # 1c002d90 <core_bench_matrix+0x1910>
1c001ef8:	00150361 	move	$r1,$r27
1c001efc:	0015034b 	move	$r11,$r26
1c001f00:	0015000e 	move	$r14,$r0
1c001f04:	28804066 	ld.w	$r6,$r3,16(0x10)
1c001f08:	00150005 	move	$r5,$r0
1c001f0c:	00150164 	move	$r4,$r11
1c001f10:	2980706e 	st.w	$r14,$r3,28(0x1c)
1c001f14:	29806061 	st.w	$r1,$r3,24(0x18)
1c001f18:	547c2800 	bl	31784(0x7c28) # 1c009b40 <memset>
1c001f1c:	28806074 	ld.w	$r20,$r3,24(0x18)
1c001f20:	28807068 	ld.w	$r8,$r3,28(0x1c)
1c001f24:	00150087 	move	$r7,$r4
1c001f28:	001500e6 	move	$r6,$r7
1c001f2c:	001503c4 	move	$r4,$r30
1c001f30:	00150005 	move	$r5,$r0
1c001f34:	2840028a 	ld.h	$r10,$r20,0
1c001f38:	28400089 	ld.h	$r9,$r4,0
1c001f3c:	02bfffac 	addi.w	$r12,$r29,-1(0xfff)
1c001f40:	02800412 	addi.w	$r18,$r0,1(0x1)
1c001f44:	001c2551 	mul.w	$r17,$r10,$r9
1c001f48:	03401d93 	andi	$r19,$r12,0x7
1c001f4c:	02800a8f 	addi.w	$r15,$r20,2(0x2)
1c001f50:	00105890 	add.w	$r16,$r4,$r22
1c001f54:	6c01ae5d 	bgeu	$r18,$r29,428(0x1ac) # 1c002100 <core_bench_matrix+0xc80>
1c001f58:	5800fa60 	beq	$r19,$r0,248(0xf8) # 1c002050 <core_bench_matrix+0xbd0>
1c001f5c:	5800d672 	beq	$r19,$r18,212(0xd4) # 1c002030 <core_bench_matrix+0xbb0>
1c001f60:	0280080d 	addi.w	$r13,$r0,2(0x2)
1c001f64:	5800b26d 	beq	$r19,$r13,176(0xb0) # 1c002014 <core_bench_matrix+0xb94>
1c001f68:	02800c01 	addi.w	$r1,$r0,3(0x3)
1c001f6c:	58008e61 	beq	$r19,$r1,140(0x8c) # 1c001ff8 <core_bench_matrix+0xb78>
1c001f70:	0280100b 	addi.w	$r11,$r0,4(0x4)
1c001f74:	58006a6b 	beq	$r19,$r11,104(0x68) # 1c001fdc <core_bench_matrix+0xb5c>
1c001f78:	0280140e 	addi.w	$r14,$r0,5(0x5)
1c001f7c:	5800466e 	beq	$r19,$r14,68(0x44) # 1c001fc0 <core_bench_matrix+0xb40>
1c001f80:	0280180a 	addi.w	$r10,$r0,6(0x6)
1c001f84:	5800226a 	beq	$r19,$r10,32(0x20) # 1c001fa4 <core_bench_matrix+0xb24>
1c001f88:	284001f2 	ld.h	$r18,$r15,0
1c001f8c:	2840020f 	ld.h	$r15,$r16,0
1c001f90:	00105a10 	add.w	$r16,$r16,$r22
1c001f94:	001c3e49 	mul.w	$r9,$r18,$r15
1c001f98:	02800812 	addi.w	$r18,$r0,2(0x2)
1c001f9c:	0280128f 	addi.w	$r15,$r20,4(0x4)
1c001fa0:	00102631 	add.w	$r17,$r17,$r9
1c001fa4:	284001ec 	ld.h	$r12,$r15,0
1c001fa8:	28400213 	ld.h	$r19,$r16,0
1c001fac:	02800652 	addi.w	$r18,$r18,1(0x1)
1c001fb0:	028009ef 	addi.w	$r15,$r15,2(0x2)
1c001fb4:	001c4d8d 	mul.w	$r13,$r12,$r19
1c001fb8:	00105a10 	add.w	$r16,$r16,$r22
1c001fbc:	00103631 	add.w	$r17,$r17,$r13
1c001fc0:	284001e1 	ld.h	$r1,$r15,0
1c001fc4:	2840020b 	ld.h	$r11,$r16,0
1c001fc8:	02800652 	addi.w	$r18,$r18,1(0x1)
1c001fcc:	028009ef 	addi.w	$r15,$r15,2(0x2)
1c001fd0:	001c2c2e 	mul.w	$r14,$r1,$r11
1c001fd4:	00105a10 	add.w	$r16,$r16,$r22
1c001fd8:	00103a31 	add.w	$r17,$r17,$r14
1c001fdc:	284001ea 	ld.h	$r10,$r15,0
1c001fe0:	28400209 	ld.h	$r9,$r16,0
1c001fe4:	02800652 	addi.w	$r18,$r18,1(0x1)
1c001fe8:	028009ef 	addi.w	$r15,$r15,2(0x2)
1c001fec:	001c254c 	mul.w	$r12,$r10,$r9
1c001ff0:	00105a10 	add.w	$r16,$r16,$r22
1c001ff4:	00103231 	add.w	$r17,$r17,$r12
1c001ff8:	284001f3 	ld.h	$r19,$r15,0
1c001ffc:	2840020d 	ld.h	$r13,$r16,0
1c002000:	02800652 	addi.w	$r18,$r18,1(0x1)
1c002004:	028009ef 	addi.w	$r15,$r15,2(0x2)
1c002008:	001c3661 	mul.w	$r1,$r19,$r13
1c00200c:	00105a10 	add.w	$r16,$r16,$r22
1c002010:	00100631 	add.w	$r17,$r17,$r1
1c002014:	284001eb 	ld.h	$r11,$r15,0
1c002018:	2840020e 	ld.h	$r14,$r16,0
1c00201c:	02800652 	addi.w	$r18,$r18,1(0x1)
1c002020:	028009ef 	addi.w	$r15,$r15,2(0x2)
1c002024:	001c396a 	mul.w	$r10,$r11,$r14
1c002028:	00105a10 	add.w	$r16,$r16,$r22
1c00202c:	00102a31 	add.w	$r17,$r17,$r10
1c002030:	284001ec 	ld.h	$r12,$r15,0
1c002034:	28400209 	ld.h	$r9,$r16,0
1c002038:	02800652 	addi.w	$r18,$r18,1(0x1)
1c00203c:	028009ef 	addi.w	$r15,$r15,2(0x2)
1c002040:	001c2593 	mul.w	$r19,$r12,$r9
1c002044:	00105a10 	add.w	$r16,$r16,$r22
1c002048:	00104e31 	add.w	$r17,$r17,$r19
1c00204c:	6c00b65d 	bgeu	$r18,$r29,180(0xb4) # 1c002100 <core_bench_matrix+0xc80>
1c002050:	28400201 	ld.h	$r1,$r16,0
1c002054:	284001eb 	ld.h	$r11,$r15,0
1c002058:	00105a0d 	add.w	$r13,$r16,$r22
1c00205c:	001059a9 	add.w	$r9,$r13,$r22
1c002060:	001c056e 	mul.w	$r14,$r11,$r1
1c002064:	284009ec 	ld.h	$r12,$r15,2(0x2)
1c002068:	284001aa 	ld.h	$r10,$r13,0
1c00206c:	2840012b 	ld.h	$r11,$r9,0
1c002070:	284011ed 	ld.h	$r13,$r15,4(0x4)
1c002074:	00105921 	add.w	$r1,$r9,$r22
1c002078:	00105829 	add.w	$r9,$r1,$r22
1c00207c:	02802252 	addi.w	$r18,$r18,8(0x8)
1c002080:	028041ef 	addi.w	$r15,$r15,16(0x10)
1c002084:	001c2993 	mul.w	$r19,$r12,$r10
1c002088:	00103a30 	add.w	$r16,$r17,$r14
1c00208c:	287fd9ec 	ld.h	$r12,$r15,-10(0xff6)
1c002090:	2840002a 	ld.h	$r10,$r1,0
1c002094:	00105921 	add.w	$r1,$r9,$r22
1c002098:	001c2dae 	mul.w	$r14,$r13,$r11
1c00209c:	00104e11 	add.w	$r17,$r16,$r19
1c0020a0:	2840012b 	ld.h	$r11,$r9,0
1c0020a4:	28400029 	ld.h	$r9,$r1,0
1c0020a8:	00103a33 	add.w	$r19,$r17,$r14
1c0020ac:	001c2990 	mul.w	$r16,$r12,$r10
1c0020b0:	287fe1f1 	ld.h	$r17,$r15,-8(0xff8)
1c0020b4:	287fe9ec 	ld.h	$r12,$r15,-6(0xffa)
1c0020b8:	0010582a 	add.w	$r10,$r1,$r22
1c0020bc:	287ff1e1 	ld.h	$r1,$r15,-4(0xffc)
1c0020c0:	001c2e2e 	mul.w	$r14,$r17,$r11
1c0020c4:	28400151 	ld.h	$r17,$r10,0
1c0020c8:	0010594b 	add.w	$r11,$r10,$r22
1c0020cc:	0010426d 	add.w	$r13,$r19,$r16
1c0020d0:	2840016a 	ld.h	$r10,$r11,0
1c0020d4:	001c2590 	mul.w	$r16,$r12,$r9
1c0020d8:	287ff9ec 	ld.h	$r12,$r15,-2(0xffe)
1c0020dc:	001039b3 	add.w	$r19,$r13,$r14
1c0020e0:	001c442e 	mul.w	$r14,$r1,$r17
1c0020e4:	0010426d 	add.w	$r13,$r19,$r16
1c0020e8:	00105970 	add.w	$r16,$r11,$r22
1c0020ec:	001c2989 	mul.w	$r9,$r12,$r10
1c0020f0:	001039b3 	add.w	$r19,$r13,$r14
1c0020f4:	00102671 	add.w	$r17,$r19,$r9
1c0020f8:	6bff5a5d 	bltu	$r18,$r29,-168(0x3ff58) # 1c002050 <core_bench_matrix+0xbd0>
1c0020fc:	03400000 	andi	$r0,$r0,0x0
1c002100:	298000d1 	st.w	$r17,$r6,0
1c002104:	028004a5 	addi.w	$r5,$r5,1(0x1)
1c002108:	028010c6 	addi.w	$r6,$r6,4(0x4)
1c00210c:	02800884 	addi.w	$r4,$r4,2(0x2)
1c002110:	6bfe24bd 	bltu	$r5,$r29,-476(0x3fe24) # 1c001f34 <core_bench_matrix+0xab4>
1c002114:	0280050e 	addi.w	$r14,$r8,1(0x1)
1c002118:	00105ceb 	add.w	$r11,$r7,$r23
1c00211c:	00105a81 	add.w	$r1,$r20,$r22
1c002120:	6bfde5dd 	bltu	$r14,$r29,-540(0x3fde4) # 1c001f04 <core_bench_matrix+0xa84>
1c002124:	00150351 	move	$r17,$r26
1c002128:	00150004 	move	$r4,$r0
1c00212c:	00150008 	move	$r8,$r0
1c002130:	00150013 	move	$r19,$r0
1c002134:	00150012 	move	$r18,$r0
1c002138:	28800225 	ld.w	$r5,$r17,0
1c00213c:	29806064 	st.w	$r4,$r3,24(0x18)
1c002140:	02bfffa4 	addi.w	$r4,$r29,-1(0xfff)
1c002144:	00101673 	add.w	$r19,$r19,$r5
1c002148:	2a406067 	ld.hu	$r7,$r3,24(0x18)
1c00214c:	03401c86 	andi	$r6,$r4,0x7
1c002150:	64099393 	bge	$r28,$r19,2448(0x990) # 1c002ae0 <core_bench_matrix+0x1660>
1c002154:	028028ef 	addi.w	$r15,$r7,10(0xa)
1c002158:	2980606f 	st.w	$r15,$r3,24(0x18)
1c00215c:	28406064 	ld.h	$r4,$r3,24(0x18)
1c002160:	00150013 	move	$r19,$r0
1c002164:	02800410 	addi.w	$r16,$r0,1(0x1)
1c002168:	0280122f 	addi.w	$r15,$r17,4(0x4)
1c00216c:	001500b4 	move	$r20,$r5
1c002170:	6c01821d 	bgeu	$r16,$r29,384(0x180) # 1c0022f0 <core_bench_matrix+0xe70>
1c002174:	58083cc0 	beq	$r6,$r0,2108(0x83c) # 1c0029b0 <core_bench_matrix+0x1530>
1c002178:	580148d0 	beq	$r6,$r16,328(0x148) # 1c0022c0 <core_bench_matrix+0xe40>
1c00217c:	0280080d 	addi.w	$r13,$r0,2(0x2)
1c002180:	580110cd 	beq	$r6,$r13,272(0x110) # 1c002290 <core_bench_matrix+0xe10>
1c002184:	02800c01 	addi.w	$r1,$r0,3(0x3)
1c002188:	5800d8c1 	beq	$r6,$r1,216(0xd8) # 1c002260 <core_bench_matrix+0xde0>
1c00218c:	0280100b 	addi.w	$r11,$r0,4(0x4)
1c002190:	5800a0cb 	beq	$r6,$r11,160(0xa0) # 1c002230 <core_bench_matrix+0xdb0>
1c002194:	0280140e 	addi.w	$r14,$r0,5(0x5)
1c002198:	580068ce 	beq	$r6,$r14,104(0x68) # 1c002200 <core_bench_matrix+0xd80>
1c00219c:	0280180c 	addi.w	$r12,$r0,6(0x6)
1c0021a0:	580030cc 	beq	$r6,$r12,48(0x30) # 1c0021d0 <core_bench_matrix+0xd50>
1c0021a4:	288001f4 	ld.w	$r20,$r15,0
1c0021a8:	29806064 	st.w	$r4,$r3,24(0x18)
1c0021ac:	2a40606a 	ld.hu	$r10,$r3,24(0x18)
1c0021b0:	00105273 	add.w	$r19,$r19,$r20
1c0021b4:	640bc393 	bge	$r28,$r19,3008(0xbc0) # 1c002d74 <core_bench_matrix+0x18f4>
1c0021b8:	02802953 	addi.w	$r19,$r10,10(0xa)
1c0021bc:	29806073 	st.w	$r19,$r3,24(0x18)
1c0021c0:	28406064 	ld.h	$r4,$r3,24(0x18)
1c0021c4:	00150013 	move	$r19,$r0
1c0021c8:	02800610 	addi.w	$r16,$r16,1(0x1)
1c0021cc:	028011ef 	addi.w	$r15,$r15,4(0x4)
1c0021d0:	288001e6 	ld.w	$r6,$r15,0
1c0021d4:	29806064 	st.w	$r4,$r3,24(0x18)
1c0021d8:	2a406067 	ld.hu	$r7,$r3,24(0x18)
1c0021dc:	00101a73 	add.w	$r19,$r19,$r6
1c0021e0:	640b6b93 	bge	$r28,$r19,2920(0xb68) # 1c002d48 <core_bench_matrix+0x18c8>
1c0021e4:	028028e8 	addi.w	$r8,$r7,10(0xa)
1c0021e8:	29806068 	st.w	$r8,$r3,24(0x18)
1c0021ec:	28406064 	ld.h	$r4,$r3,24(0x18)
1c0021f0:	00150013 	move	$r19,$r0
1c0021f4:	02800610 	addi.w	$r16,$r16,1(0x1)
1c0021f8:	028011ef 	addi.w	$r15,$r15,4(0x4)
1c0021fc:	001500d4 	move	$r20,$r6
1c002200:	288001e1 	ld.w	$r1,$r15,0
1c002204:	29806064 	st.w	$r4,$r3,24(0x18)
1c002208:	2a40606d 	ld.hu	$r13,$r3,24(0x18)
1c00220c:	00100673 	add.w	$r19,$r19,$r1
1c002210:	640ad393 	bge	$r28,$r19,2768(0xad0) # 1c002ce0 <core_bench_matrix+0x1860>
1c002214:	028029ac 	addi.w	$r12,$r13,10(0xa)
1c002218:	2980606c 	st.w	$r12,$r3,24(0x18)
1c00221c:	28406064 	ld.h	$r4,$r3,24(0x18)
1c002220:	00150013 	move	$r19,$r0
1c002224:	02800610 	addi.w	$r16,$r16,1(0x1)
1c002228:	028011ef 	addi.w	$r15,$r15,4(0x4)
1c00222c:	00150034 	move	$r20,$r1
1c002230:	288001e5 	ld.w	$r5,$r15,0
1c002234:	29806064 	st.w	$r4,$r3,24(0x18)
1c002238:	2a40606a 	ld.hu	$r10,$r3,24(0x18)
1c00223c:	00101673 	add.w	$r19,$r19,$r5
1c002240:	640a8b93 	bge	$r28,$r19,2696(0xa88) # 1c002cc8 <core_bench_matrix+0x1848>
1c002244:	02802953 	addi.w	$r19,$r10,10(0xa)
1c002248:	29806073 	st.w	$r19,$r3,24(0x18)
1c00224c:	28406064 	ld.h	$r4,$r3,24(0x18)
1c002250:	00150013 	move	$r19,$r0
1c002254:	02800610 	addi.w	$r16,$r16,1(0x1)
1c002258:	028011ef 	addi.w	$r15,$r15,4(0x4)
1c00225c:	001500b4 	move	$r20,$r5
1c002260:	288001e8 	ld.w	$r8,$r15,0
1c002264:	29806064 	st.w	$r4,$r3,24(0x18)
1c002268:	2a406066 	ld.hu	$r6,$r3,24(0x18)
1c00226c:	00102273 	add.w	$r19,$r19,$r8
1c002270:	640a8793 	bge	$r28,$r19,2692(0xa84) # 1c002cf4 <core_bench_matrix+0x1874>
1c002274:	028028cd 	addi.w	$r13,$r6,10(0xa)
1c002278:	2980606d 	st.w	$r13,$r3,24(0x18)
1c00227c:	28406064 	ld.h	$r4,$r3,24(0x18)
1c002280:	00150013 	move	$r19,$r0
1c002284:	02800610 	addi.w	$r16,$r16,1(0x1)
1c002288:	028011ef 	addi.w	$r15,$r15,4(0x4)
1c00228c:	00150114 	move	$r20,$r8
1c002290:	288001eb 	ld.w	$r11,$r15,0
1c002294:	29806064 	st.w	$r4,$r3,24(0x18)
1c002298:	2a406061 	ld.hu	$r1,$r3,24(0x18)
1c00229c:	00102e73 	add.w	$r19,$r19,$r11
1c0022a0:	640a1793 	bge	$r28,$r19,2580(0xa14) # 1c002cb4 <core_bench_matrix+0x1834>
1c0022a4:	0280282a 	addi.w	$r10,$r1,10(0xa)
1c0022a8:	2980606a 	st.w	$r10,$r3,24(0x18)
1c0022ac:	28406064 	ld.h	$r4,$r3,24(0x18)
1c0022b0:	00150013 	move	$r19,$r0
1c0022b4:	02800610 	addi.w	$r16,$r16,1(0x1)
1c0022b8:	028011ef 	addi.w	$r15,$r15,4(0x4)
1c0022bc:	00150174 	move	$r20,$r11
1c0022c0:	288001e5 	ld.w	$r5,$r15,0
1c0022c4:	29806064 	st.w	$r4,$r3,24(0x18)
1c0022c8:	2a406069 	ld.hu	$r9,$r3,24(0x18)
1c0022cc:	00101673 	add.w	$r19,$r19,$r5
1c0022d0:	64099393 	bge	$r28,$r19,2448(0x990) # 1c002c60 <core_bench_matrix+0x17e0>
1c0022d4:	02802933 	addi.w	$r19,$r9,10(0xa)
1c0022d8:	29806073 	st.w	$r19,$r3,24(0x18)
1c0022dc:	28406064 	ld.h	$r4,$r3,24(0x18)
1c0022e0:	00150013 	move	$r19,$r0
1c0022e4:	02800610 	addi.w	$r16,$r16,1(0x1)
1c0022e8:	028011ef 	addi.w	$r15,$r15,4(0x4)
1c0022ec:	6806c61d 	bltu	$r16,$r29,1732(0x6c4) # 1c0029b0 <core_bench_matrix+0x1530>
1c0022f0:	02800652 	addi.w	$r18,$r18,1(0x1)
1c0022f4:	00105e31 	add.w	$r17,$r17,$r23
1c0022f8:	001500a8 	move	$r8,$r5
1c0022fc:	6bfe3e5d 	bltu	$r18,$r29,-452(0x3fe3c) # 1c002138 <core_bench_matrix+0xcb8>
1c002300:	001503e5 	move	$r5,$r31
1c002304:	54571c00 	bl	22300(0x571c) # 1c007a20 <crc16>
1c002308:	0015037f 	move	$r31,$r27
1c00230c:	29806064 	st.w	$r4,$r3,24(0x18)
1c002310:	0015035b 	move	$r27,$r26
1c002314:	0015001a 	move	$r26,$r0
1c002318:	28804066 	ld.w	$r6,$r3,16(0x10)
1c00231c:	00150005 	move	$r5,$r0
1c002320:	00150364 	move	$r4,$r27
1c002324:	54781c00 	bl	30748(0x781c) # 1c009b40 <memset>
1c002328:	001503cd 	move	$r13,$r30
1c00232c:	00150366 	move	$r6,$r27
1c002330:	00150004 	move	$r4,$r0
1c002334:	284003e7 	ld.h	$r7,$r31,0
1c002338:	284001a1 	ld.h	$r1,$r13,0
1c00233c:	02bfffae 	addi.w	$r14,$r29,-1(0xfff)
1c002340:	02800412 	addi.w	$r18,$r0,1(0x1)
1c002344:	001c04eb 	mul.w	$r11,$r7,$r1
1c002348:	03400dcc 	andi	$r12,$r14,0x3
1c00234c:	02800bf1 	addi.w	$r17,$r31,2(0x2)
1c002350:	001059b0 	add.w	$r16,$r13,$r22
1c002354:	00488965 	srai.w	$r5,$r11,0x2
1c002358:	00489573 	srai.w	$r19,$r11,0x5
1c00235c:	03403caa 	andi	$r10,$r5,0xf
1c002360:	0341fe69 	andi	$r9,$r19,0x7f
1c002364:	001c254f 	mul.w	$r15,$r10,$r9
1c002368:	6c015a5d 	bgeu	$r18,$r29,344(0x158) # 1c0024c0 <core_bench_matrix+0x1040>
1c00236c:	5800a580 	beq	$r12,$r0,164(0xa4) # 1c002410 <core_bench_matrix+0xf90>
1c002370:	58006d92 	beq	$r12,$r18,108(0x6c) # 1c0023dc <core_bench_matrix+0xf5c>
1c002374:	02800814 	addi.w	$r20,$r0,2(0x2)
1c002378:	58003594 	beq	$r12,$r20,52(0x34) # 1c0023ac <core_bench_matrix+0xf2c>
1c00237c:	28400232 	ld.h	$r18,$r17,0
1c002380:	28400211 	ld.h	$r17,$r16,0
1c002384:	00105a10 	add.w	$r16,$r16,$r22
1c002388:	001c4648 	mul.w	$r8,$r18,$r17
1c00238c:	02800812 	addi.w	$r18,$r0,2(0x2)
1c002390:	028013f1 	addi.w	$r17,$r31,4(0x4)
1c002394:	00488907 	srai.w	$r7,$r8,0x2
1c002398:	00489501 	srai.w	$r1,$r8,0x5
1c00239c:	03403ceb 	andi	$r11,$r7,0xf
1c0023a0:	0341fc2e 	andi	$r14,$r1,0x7f
1c0023a4:	001c396c 	mul.w	$r12,$r11,$r14
1c0023a8:	001031ef 	add.w	$r15,$r15,$r12
1c0023ac:	28400225 	ld.h	$r5,$r17,0
1c0023b0:	28400213 	ld.h	$r19,$r16,0
1c0023b4:	02800652 	addi.w	$r18,$r18,1(0x1)
1c0023b8:	02800a31 	addi.w	$r17,$r17,2(0x2)
1c0023bc:	001c4caa 	mul.w	$r10,$r5,$r19
1c0023c0:	00105a10 	add.w	$r16,$r16,$r22
1c0023c4:	00488949 	srai.w	$r9,$r10,0x2
1c0023c8:	00489554 	srai.w	$r20,$r10,0x5
1c0023cc:	03403d28 	andi	$r8,$r9,0xf
1c0023d0:	0341fe87 	andi	$r7,$r20,0x7f
1c0023d4:	001c1d01 	mul.w	$r1,$r8,$r7
1c0023d8:	001005ef 	add.w	$r15,$r15,$r1
1c0023dc:	2840022b 	ld.h	$r11,$r17,0
1c0023e0:	2840020e 	ld.h	$r14,$r16,0
1c0023e4:	02800652 	addi.w	$r18,$r18,1(0x1)
1c0023e8:	02800a31 	addi.w	$r17,$r17,2(0x2)
1c0023ec:	001c396c 	mul.w	$r12,$r11,$r14
1c0023f0:	00105a10 	add.w	$r16,$r16,$r22
1c0023f4:	00488985 	srai.w	$r5,$r12,0x2
1c0023f8:	00489593 	srai.w	$r19,$r12,0x5
1c0023fc:	03403caa 	andi	$r10,$r5,0xf
1c002400:	0341fe69 	andi	$r9,$r19,0x7f
1c002404:	001c2554 	mul.w	$r20,$r10,$r9
1c002408:	001051ef 	add.w	$r15,$r15,$r20
1c00240c:	6c00b65d 	bgeu	$r18,$r29,180(0xb4) # 1c0024c0 <core_bench_matrix+0x1040>
1c002410:	28400208 	ld.h	$r8,$r16,0
1c002414:	28400221 	ld.h	$r1,$r17,0
1c002418:	00105a07 	add.w	$r7,$r16,$r22
1c00241c:	28400a2e 	ld.h	$r14,$r17,2(0x2)
1c002420:	284000f0 	ld.h	$r16,$r7,0
1c002424:	001c202b 	mul.w	$r11,$r1,$r8
1c002428:	001058ec 	add.w	$r12,$r7,$r22
1c00242c:	00105989 	add.w	$r9,$r12,$r22
1c002430:	2840122a 	ld.h	$r10,$r17,4(0x4)
1c002434:	28400193 	ld.h	$r19,$r12,0
1c002438:	28401a27 	ld.h	$r7,$r17,6(0x6)
1c00243c:	28400128 	ld.h	$r8,$r9,0
1c002440:	02801252 	addi.w	$r18,$r18,4(0x4)
1c002444:	02802231 	addi.w	$r17,$r17,8(0x8)
1c002448:	001c41c5 	mul.w	$r5,$r14,$r16
1c00244c:	0048896e 	srai.w	$r14,$r11,0x2
1c002450:	0048956b 	srai.w	$r11,$r11,0x5
1c002454:	03403dcc 	andi	$r12,$r14,0xf
1c002458:	00105930 	add.w	$r16,$r9,$r22
1c00245c:	001c4d54 	mul.w	$r20,$r10,$r19
1c002460:	0341fd6a 	andi	$r10,$r11,0x7f
1c002464:	004888b3 	srai.w	$r19,$r5,0x2
1c002468:	004894a5 	srai.w	$r5,$r5,0x5
1c00246c:	001c20e1 	mul.w	$r1,$r7,$r8
1c002470:	03403e67 	andi	$r7,$r19,0xf
1c002474:	0341fca8 	andi	$r8,$r5,0x7f
1c002478:	001c2989 	mul.w	$r9,$r12,$r10
1c00247c:	00488a8c 	srai.w	$r12,$r20,0x2
1c002480:	00489694 	srai.w	$r20,$r20,0x5
1c002484:	03403d8a 	andi	$r10,$r12,0xf
1c002488:	001c20ee 	mul.w	$r14,$r7,$r8
1c00248c:	001025ef 	add.w	$r15,$r15,$r9
1c002490:	00488827 	srai.w	$r7,$r1,0x2
1c002494:	0341fe89 	andi	$r9,$r20,0x7f
1c002498:	00489421 	srai.w	$r1,$r1,0x5
1c00249c:	03403ce8 	andi	$r8,$r7,0xf
1c0024a0:	0341fc33 	andi	$r19,$r1,0x7f
1c0024a4:	001c2545 	mul.w	$r5,$r10,$r9
1c0024a8:	001039eb 	add.w	$r11,$r15,$r14
1c0024ac:	001c4d0e 	mul.w	$r14,$r8,$r19
1c0024b0:	0010156f 	add.w	$r15,$r11,$r5
1c0024b4:	001039ef 	add.w	$r15,$r15,$r14
1c0024b8:	6bff5a5d 	bltu	$r18,$r29,-168(0x3ff58) # 1c002410 <core_bench_matrix+0xf90>
1c0024bc:	03400000 	andi	$r0,$r0,0x0
1c0024c0:	298000cf 	st.w	$r15,$r6,0
1c0024c4:	02800484 	addi.w	$r4,$r4,1(0x1)
1c0024c8:	028010c6 	addi.w	$r6,$r6,4(0x4)
1c0024cc:	028009ad 	addi.w	$r13,$r13,2(0x2)
1c0024d0:	6bfe649d 	bltu	$r4,$r29,-412(0x3fe64) # 1c002334 <core_bench_matrix+0xeb4>
1c0024d4:	0280075a 	addi.w	$r26,$r26,1(0x1)
1c0024d8:	00105f7b 	add.w	$r27,$r27,$r23
1c0024dc:	00105bff 	add.w	$r31,$r31,$r22
1c0024e0:	6bfe3b5d 	bltu	$r26,$r29,-456(0x3fe38) # 1c002318 <core_bench_matrix+0xe98>
1c0024e4:	00150004 	move	$r4,$r0
1c0024e8:	00150007 	move	$r7,$r0
1c0024ec:	0015000e 	move	$r14,$r0
1c0024f0:	0015000d 	move	$r13,$r0
1c0024f4:	2880307e 	ld.w	$r30,$r3,12(0xc)
1c0024f8:	02bfffbf 	addi.w	$r31,$r29,-1(0xfff)
1c0024fc:	29804064 	st.w	$r4,$r3,16(0x10)
1c002500:	288003cf 	ld.w	$r15,$r30,0
1c002504:	2a40407b 	ld.hu	$r27,$r3,16(0x10)
1c002508:	03400ffa 	andi	$r26,$r31,0x3
1c00250c:	00103dce 	add.w	$r14,$r14,$r15
1c002510:	64073b8e 	bge	$r28,$r14,1848(0x738) # 1c002c48 <core_bench_matrix+0x17c8>
1c002514:	02802b72 	addi.w	$r18,$r27,10(0xa)
1c002518:	29804072 	st.w	$r18,$r3,16(0x10)
1c00251c:	28404064 	ld.h	$r4,$r3,16(0x10)
1c002520:	0015000e 	move	$r14,$r0
1c002524:	02800410 	addi.w	$r16,$r0,1(0x1)
1c002528:	028013d1 	addi.w	$r17,$r30,4(0x4)
1c00252c:	001501fe 	move	$r30,$r15
1c002530:	6c00a21d 	bgeu	$r16,$r29,160(0xa0) # 1c0025d0 <core_bench_matrix+0x1150>
1c002534:	58066740 	beq	$r26,$r0,1636(0x664) # 1c002b98 <core_bench_matrix+0x1718>
1c002538:	58006b50 	beq	$r26,$r16,104(0x68) # 1c0025a0 <core_bench_matrix+0x1120>
1c00253c:	0280080b 	addi.w	$r11,$r0,2(0x2)
1c002540:	5800334b 	beq	$r26,$r11,48(0x30) # 1c002570 <core_bench_matrix+0x10f0>
1c002544:	2880023e 	ld.w	$r30,$r17,0
1c002548:	29804064 	st.w	$r4,$r3,16(0x10)
1c00254c:	2a40406c 	ld.hu	$r12,$r3,16(0x10)
1c002550:	001079ce 	add.w	$r14,$r14,$r30
1c002554:	6407cf8e 	bge	$r28,$r14,1996(0x7cc) # 1c002d20 <core_bench_matrix+0x18a0>
1c002558:	02802989 	addi.w	$r9,$r12,10(0xa)
1c00255c:	29804069 	st.w	$r9,$r3,16(0x10)
1c002560:	28404064 	ld.h	$r4,$r3,16(0x10)
1c002564:	0015000e 	move	$r14,$r0
1c002568:	02800610 	addi.w	$r16,$r16,1(0x1)
1c00256c:	02801231 	addi.w	$r17,$r17,4(0x4)
1c002570:	28800225 	ld.w	$r5,$r17,0
1c002574:	29804064 	st.w	$r4,$r3,16(0x10)
1c002578:	2a404067 	ld.hu	$r7,$r3,16(0x10)
1c00257c:	001015ce 	add.w	$r14,$r14,$r5
1c002580:	6406f78e 	bge	$r28,$r14,1780(0x6f4) # 1c002c74 <core_bench_matrix+0x17f4>
1c002584:	028028f3 	addi.w	$r19,$r7,10(0xa)
1c002588:	29804073 	st.w	$r19,$r3,16(0x10)
1c00258c:	28404064 	ld.h	$r4,$r3,16(0x10)
1c002590:	0015000e 	move	$r14,$r0
1c002594:	02800610 	addi.w	$r16,$r16,1(0x1)
1c002598:	02801231 	addi.w	$r17,$r17,4(0x4)
1c00259c:	001500be 	move	$r30,$r5
1c0025a0:	2880022f 	ld.w	$r15,$r17,0
1c0025a4:	29804064 	st.w	$r4,$r3,16(0x10)
1c0025a8:	2a40407f 	ld.hu	$r31,$r3,16(0x10)
1c0025ac:	00103dce 	add.w	$r14,$r14,$r15
1c0025b0:	6406878e 	bge	$r28,$r14,1668(0x684) # 1c002c34 <core_bench_matrix+0x17b4>
1c0025b4:	02802be6 	addi.w	$r6,$r31,10(0xa)
1c0025b8:	29804066 	st.w	$r6,$r3,16(0x10)
1c0025bc:	28404064 	ld.h	$r4,$r3,16(0x10)
1c0025c0:	0015000e 	move	$r14,$r0
1c0025c4:	02800610 	addi.w	$r16,$r16,1(0x1)
1c0025c8:	02801231 	addi.w	$r17,$r17,4(0x4)
1c0025cc:	6805ce1d 	bltu	$r16,$r29,1484(0x5cc) # 1c002b98 <core_bench_matrix+0x1718>
1c0025d0:	2880306a 	ld.w	$r10,$r3,12(0xc)
1c0025d4:	028005ad 	addi.w	$r13,$r13,1(0x1)
1c0025d8:	001501e7 	move	$r7,$r15
1c0025dc:	00105d45 	add.w	$r5,$r10,$r23
1c0025e0:	29803065 	st.w	$r5,$r3,12(0xc)
1c0025e4:	6bff11bd 	bltu	$r13,$r29,-240(0x3ff10) # 1c0024f4 <core_bench_matrix+0x1074>
1c0025e8:	28806065 	ld.w	$r5,$r3,24(0x18)
1c0025ec:	00150017 	move	$r23,$r0
1c0025f0:	54543000 	bl	21552(0x5430) # 1c007a20 <crc16>
1c0025f4:	29803064 	st.w	$r4,$r3,12(0xc)
1c0025f8:	2a40031c 	ld.hu	$r28,$r24,0
1c0025fc:	02bfffa1 	addi.w	$r1,$r29,-1(0xfff)
1c002600:	0280040f 	addi.w	$r15,$r0,1(0x1)
1c002604:	00116793 	sub.w	$r19,$r28,$r25
1c002608:	29400313 	st.h	$r19,$r24,0
1c00260c:	02800b0e 	addi.w	$r14,$r24,2(0x2)
1c002610:	03401c28 	andi	$r8,$r1,0x7
1c002614:	6c0131fd 	bgeu	$r15,$r29,304(0x130) # 1c002744 <core_bench_matrix+0x12c4>
1c002618:	5800c100 	beq	$r8,$r0,192(0xc0) # 1c0026d8 <core_bench_matrix+0x1258>
1c00261c:	5800a50f 	beq	$r8,$r15,164(0xa4) # 1c0026c0 <core_bench_matrix+0x1240>
1c002620:	0280081e 	addi.w	$r30,$r0,2(0x2)
1c002624:	5800891e 	beq	$r8,$r30,136(0x88) # 1c0026ac <core_bench_matrix+0x122c>
1c002628:	02800c1f 	addi.w	$r31,$r0,3(0x3)
1c00262c:	58006d1f 	beq	$r8,$r31,108(0x6c) # 1c002698 <core_bench_matrix+0x1218>
1c002630:	0280101b 	addi.w	$r27,$r0,4(0x4)
1c002634:	5800511b 	beq	$r8,$r27,80(0x50) # 1c002684 <core_bench_matrix+0x1204>
1c002638:	0280141a 	addi.w	$r26,$r0,5(0x5)
1c00263c:	5800351a 	beq	$r8,$r26,52(0x34) # 1c002670 <core_bench_matrix+0x11f0>
1c002640:	02801806 	addi.w	$r6,$r0,6(0x6)
1c002644:	58001906 	beq	$r8,$r6,24(0x18) # 1c00265c <core_bench_matrix+0x11dc>
1c002648:	2a4001cb 	ld.hu	$r11,$r14,0
1c00264c:	0280080f 	addi.w	$r15,$r0,2(0x2)
1c002650:	00116564 	sub.w	$r4,$r11,$r25
1c002654:	294001c4 	st.h	$r4,$r14,0
1c002658:	0280130e 	addi.w	$r14,$r24,4(0x4)
1c00265c:	2a4001d2 	ld.hu	$r18,$r14,0
1c002660:	028005ef 	addi.w	$r15,$r15,1(0x1)
1c002664:	028009ce 	addi.w	$r14,$r14,2(0x2)
1c002668:	0011664c 	sub.w	$r12,$r18,$r25
1c00266c:	297ff9cc 	st.h	$r12,$r14,-2(0xffe)
1c002670:	2a4001d4 	ld.hu	$r20,$r14,0
1c002674:	028005ef 	addi.w	$r15,$r15,1(0x1)
1c002678:	028009ce 	addi.w	$r14,$r14,2(0x2)
1c00267c:	00116689 	sub.w	$r9,$r20,$r25
1c002680:	297ff9c9 	st.h	$r9,$r14,-2(0xffe)
1c002684:	2a4001d0 	ld.hu	$r16,$r14,0
1c002688:	028005ef 	addi.w	$r15,$r15,1(0x1)
1c00268c:	028009ce 	addi.w	$r14,$r14,2(0x2)
1c002690:	00116611 	sub.w	$r17,$r16,$r25
1c002694:	297ff9d1 	st.h	$r17,$r14,-2(0xffe)
1c002698:	2a4001cd 	ld.hu	$r13,$r14,0
1c00269c:	028005ef 	addi.w	$r15,$r15,1(0x1)
1c0026a0:	028009ce 	addi.w	$r14,$r14,2(0x2)
1c0026a4:	001165aa 	sub.w	$r10,$r13,$r25
1c0026a8:	297ff9ca 	st.h	$r10,$r14,-2(0xffe)
1c0026ac:	2a4001c5 	ld.hu	$r5,$r14,0
1c0026b0:	028005ef 	addi.w	$r15,$r15,1(0x1)
1c0026b4:	028009ce 	addi.w	$r14,$r14,2(0x2)
1c0026b8:	001164a7 	sub.w	$r7,$r5,$r25
1c0026bc:	297ff9c7 	st.h	$r7,$r14,-2(0xffe)
1c0026c0:	2a4001dc 	ld.hu	$r28,$r14,0
1c0026c4:	028009ce 	addi.w	$r14,$r14,2(0x2)
1c0026c8:	028005ef 	addi.w	$r15,$r15,1(0x1)
1c0026cc:	00116781 	sub.w	$r1,$r28,$r25
1c0026d0:	297ff9c1 	st.h	$r1,$r14,-2(0xffe)
1c0026d4:	6c0071fd 	bgeu	$r15,$r29,112(0x70) # 1c002744 <core_bench_matrix+0x12c4>
1c0026d8:	2a4001c8 	ld.hu	$r8,$r14,0
1c0026dc:	2a4009de 	ld.hu	$r30,$r14,2(0x2)
1c0026e0:	2a4011df 	ld.hu	$r31,$r14,4(0x4)
1c0026e4:	2a4019db 	ld.hu	$r27,$r14,6(0x6)
1c0026e8:	2a4021d3 	ld.hu	$r19,$r14,8(0x8)
1c0026ec:	2a4029da 	ld.hu	$r26,$r14,10(0xa)
1c0026f0:	2a4031cb 	ld.hu	$r11,$r14,12(0xc)
1c0026f4:	2a4039cc 	ld.hu	$r12,$r14,14(0xe)
1c0026f8:	00116506 	sub.w	$r6,$r8,$r25
1c0026fc:	001167c9 	sub.w	$r9,$r30,$r25
1c002700:	001167e4 	sub.w	$r4,$r31,$r25
1c002704:	00116774 	sub.w	$r20,$r27,$r25
1c002708:	00116671 	sub.w	$r17,$r19,$r25
1c00270c:	00116752 	sub.w	$r18,$r26,$r25
1c002710:	00116570 	sub.w	$r16,$r11,$r25
1c002714:	0011658d 	sub.w	$r13,$r12,$r25
1c002718:	294001c6 	st.h	$r6,$r14,0
1c00271c:	294009c9 	st.h	$r9,$r14,2(0x2)
1c002720:	294011c4 	st.h	$r4,$r14,4(0x4)
1c002724:	294019d4 	st.h	$r20,$r14,6(0x6)
1c002728:	294021d1 	st.h	$r17,$r14,8(0x8)
1c00272c:	294029d2 	st.h	$r18,$r14,10(0xa)
1c002730:	294031d0 	st.h	$r16,$r14,12(0xc)
1c002734:	294039cd 	st.h	$r13,$r14,14(0xe)
1c002738:	028021ef 	addi.w	$r15,$r15,8(0x8)
1c00273c:	028041ce 	addi.w	$r14,$r14,16(0x10)
1c002740:	6bff99fd 	bltu	$r15,$r29,-104(0x3ff98) # 1c0026d8 <core_bench_matrix+0x1258>
1c002744:	028006f7 	addi.w	$r23,$r23,1(0x1)
1c002748:	00105b18 	add.w	$r24,$r24,$r22
1c00274c:	6bfeaefd 	bltu	$r23,$r29,-340(0x3feac) # 1c0025f8 <core_bench_matrix+0x1178>
1c002750:	28812076 	ld.w	$r22,$r3,72(0x48)
1c002754:	28403064 	ld.h	$r4,$r3,12(0xc)
1c002758:	28805065 	ld.w	$r5,$r3,20(0x14)
1c00275c:	28813061 	ld.w	$r1,$r3,76(0x4c)
1c002760:	28811077 	ld.w	$r23,$r3,68(0x44)
1c002764:	28810078 	ld.w	$r24,$r3,64(0x40)
1c002768:	2880f079 	ld.w	$r25,$r3,60(0x3c)
1c00276c:	2880e07a 	ld.w	$r26,$r3,56(0x38)
1c002770:	2880d07b 	ld.w	$r27,$r3,52(0x34)
1c002774:	2880c07c 	ld.w	$r28,$r3,48(0x30)
1c002778:	2880b07d 	ld.w	$r29,$r3,44(0x2c)
1c00277c:	2880a07e 	ld.w	$r30,$r3,40(0x28)
1c002780:	2880907f 	ld.w	$r31,$r3,36(0x24)
1c002784:	02814063 	addi.w	$r3,$r3,80(0x50)
1c002788:	50529800 	b	21144(0x5298) # 1c007a20 <crc16>
1c00278c:	03400000 	andi	$r0,$r0,0x0
1c002790:	028028f0 	addi.w	$r16,$r7,10(0xa)
1c002794:	29804070 	st.w	$r16,$r3,16(0x10)
1c002798:	28404074 	ld.h	$r20,$r3,16(0x10)
1c00279c:	2880126b 	ld.w	$r11,$r19,4(0x4)
1c0027a0:	00150009 	move	$r9,$r0
1c0027a4:	29804074 	st.w	$r20,$r3,16(0x10)
1c0027a8:	00102d2e 	add.w	$r14,$r9,$r11
1c0027ac:	2a404061 	ld.hu	$r1,$r3,16(0x10)
1c0027b0:	6400ab8e 	bge	$r28,$r14,168(0xa8) # 1c002858 <core_bench_matrix+0x13d8>
1c0027b4:	02802827 	addi.w	$r7,$r1,10(0xa)
1c0027b8:	29804067 	st.w	$r7,$r3,16(0x10)
1c0027bc:	28404068 	ld.h	$r8,$r3,16(0x10)
1c0027c0:	28802265 	ld.w	$r5,$r19,8(0x8)
1c0027c4:	0015000e 	move	$r14,$r0
1c0027c8:	29804068 	st.w	$r8,$r3,16(0x10)
1c0027cc:	001015d4 	add.w	$r20,$r14,$r5
1c0027d0:	2a40406a 	ld.hu	$r10,$r3,16(0x10)
1c0027d4:	6400ab94 	bge	$r28,$r20,168(0xa8) # 1c00287c <core_bench_matrix+0x13fc>
1c0027d8:	0280294c 	addi.w	$r12,$r10,10(0xa)
1c0027dc:	2980406c 	st.w	$r12,$r3,16(0x10)
1c0027e0:	28404064 	ld.h	$r4,$r3,16(0x10)
1c0027e4:	00150014 	move	$r20,$r0
1c0027e8:	02800e52 	addi.w	$r18,$r18,3(0x3)
1c0027ec:	02803273 	addi.w	$r19,$r19,12(0xc)
1c0027f0:	6ff6da5d 	bgeu	$r18,$r29,-2344(0x3f6d8) # 1c001ec8 <core_bench_matrix+0xa48>
1c0027f4:	28800261 	ld.w	$r1,$r19,0
1c0027f8:	29804064 	st.w	$r4,$r3,16(0x10)
1c0027fc:	2a404070 	ld.hu	$r16,$r3,16(0x10)
1c002800:	00100688 	add.w	$r8,$r20,$r1
1c002804:	60048788 	blt	$r28,$r8,1156(0x484) # 1c002c88 <core_bench_matrix+0x1808>
1c002808:	001204a5 	slt	$r5,$r5,$r1
1c00280c:	0010160b 	add.w	$r11,$r16,$r5
1c002810:	2980406b 	st.w	$r11,$r3,16(0x10)
1c002814:	28404066 	ld.h	$r6,$r3,16(0x10)
1c002818:	2880126a 	ld.w	$r10,$r19,4(0x4)
1c00281c:	29804066 	st.w	$r6,$r3,16(0x10)
1c002820:	02800652 	addi.w	$r18,$r18,1(0x1)
1c002824:	00102909 	add.w	$r9,$r8,$r10
1c002828:	2a404067 	ld.hu	$r7,$r3,16(0x10)
1c00282c:	02801273 	addi.w	$r19,$r19,4(0x4)
1c002830:	63ff6389 	blt	$r28,$r9,-160(0x3ff60) # 1c002790 <core_bench_matrix+0x1310>
1c002834:	00122824 	slt	$r4,$r1,$r10
1c002838:	001010ec 	add.w	$r12,$r7,$r4
1c00283c:	2980406c 	st.w	$r12,$r3,16(0x10)
1c002840:	28404074 	ld.h	$r20,$r3,16(0x10)
1c002844:	2880126b 	ld.w	$r11,$r19,4(0x4)
1c002848:	29804074 	st.w	$r20,$r3,16(0x10)
1c00284c:	00102d2e 	add.w	$r14,$r9,$r11
1c002850:	2a404061 	ld.hu	$r1,$r3,16(0x10)
1c002854:	63ff638e 	blt	$r28,$r14,-160(0x3ff60) # 1c0027b4 <core_bench_matrix+0x1334>
1c002858:	00122d45 	slt	$r5,$r10,$r11
1c00285c:	00101426 	add.w	$r6,$r1,$r5
1c002860:	29804066 	st.w	$r6,$r3,16(0x10)
1c002864:	28404068 	ld.h	$r8,$r3,16(0x10)
1c002868:	28802265 	ld.w	$r5,$r19,8(0x8)
1c00286c:	29804068 	st.w	$r8,$r3,16(0x10)
1c002870:	001015d4 	add.w	$r20,$r14,$r5
1c002874:	2a40406a 	ld.hu	$r10,$r3,16(0x10)
1c002878:	63ff6394 	blt	$r28,$r20,-160(0x3ff60) # 1c0027d8 <core_bench_matrix+0x1358>
1c00287c:	00121569 	slt	$r9,$r11,$r5
1c002880:	00102544 	add.w	$r4,$r10,$r9
1c002884:	29804064 	st.w	$r4,$r3,16(0x10)
1c002888:	28404064 	ld.h	$r4,$r3,16(0x10)
1c00288c:	53ff5fff 	b	-164(0xfffff5c) # 1c0027e8 <core_bench_matrix+0x1368>
1c002890:	001234a5 	slt	$r5,$r5,$r13
1c002894:	00101504 	add.w	$r4,$r8,$r5
1c002898:	29806064 	st.w	$r4,$r3,24(0x18)
1c00289c:	288011ea 	ld.w	$r10,$r15,4(0x4)
1c0028a0:	2840606b 	ld.h	$r11,$r3,24(0x18)
1c0028a4:	02800610 	addi.w	$r16,$r16,1(0x1)
1c0028a8:	001029c9 	add.w	$r9,$r14,$r10
1c0028ac:	2980606b 	st.w	$r11,$r3,24(0x18)
1c0028b0:	2a40606c 	ld.hu	$r12,$r3,24(0x18)
1c0028b4:	028011ef 	addi.w	$r15,$r15,4(0x4)
1c0028b8:	64013b89 	bge	$r28,$r9,312(0x138) # 1c0029f0 <core_bench_matrix+0x1570>
1c0028bc:	02802993 	addi.w	$r19,$r12,10(0xa)
1c0028c0:	29806073 	st.w	$r19,$r3,24(0x18)
1c0028c4:	28406066 	ld.h	$r6,$r3,24(0x18)
1c0028c8:	288011ed 	ld.w	$r13,$r15,4(0x4)
1c0028cc:	00150009 	move	$r9,$r0
1c0028d0:	29806066 	st.w	$r6,$r3,24(0x18)
1c0028d4:	00103521 	add.w	$r1,$r9,$r13
1c0028d8:	2a406068 	ld.hu	$r8,$r3,24(0x18)
1c0028dc:	64013b81 	bge	$r28,$r1,312(0x138) # 1c002a14 <core_bench_matrix+0x1594>
1c0028e0:	0280290e 	addi.w	$r14,$r8,10(0xa)
1c0028e4:	2980606e 	st.w	$r14,$r3,24(0x18)
1c0028e8:	2840606b 	ld.h	$r11,$r3,24(0x18)
1c0028ec:	288021ea 	ld.w	$r10,$r15,8(0x8)
1c0028f0:	00150001 	move	$r1,$r0
1c0028f4:	2980606b 	st.w	$r11,$r3,24(0x18)
1c0028f8:	00102829 	add.w	$r9,$r1,$r10
1c0028fc:	2a40606c 	ld.hu	$r12,$r3,24(0x18)
1c002900:	64013b89 	bge	$r28,$r9,312(0x138) # 1c002a38 <core_bench_matrix+0x15b8>
1c002904:	02802993 	addi.w	$r19,$r12,10(0xa)
1c002908:	29806073 	st.w	$r19,$r3,24(0x18)
1c00290c:	28406066 	ld.h	$r6,$r3,24(0x18)
1c002910:	288031ed 	ld.w	$r13,$r15,12(0xc)
1c002914:	00150009 	move	$r9,$r0
1c002918:	29806066 	st.w	$r6,$r3,24(0x18)
1c00291c:	00103521 	add.w	$r1,$r9,$r13
1c002920:	2a406068 	ld.hu	$r8,$r3,24(0x18)
1c002924:	64013b81 	bge	$r28,$r1,312(0x138) # 1c002a5c <core_bench_matrix+0x15dc>
1c002928:	0280290e 	addi.w	$r14,$r8,10(0xa)
1c00292c:	2980606e 	st.w	$r14,$r3,24(0x18)
1c002930:	2840606b 	ld.h	$r11,$r3,24(0x18)
1c002934:	288041ea 	ld.w	$r10,$r15,16(0x10)
1c002938:	00150001 	move	$r1,$r0
1c00293c:	2980606b 	st.w	$r11,$r3,24(0x18)
1c002940:	00102829 	add.w	$r9,$r1,$r10
1c002944:	2a40606c 	ld.hu	$r12,$r3,24(0x18)
1c002948:	64013b89 	bge	$r28,$r9,312(0x138) # 1c002a80 <core_bench_matrix+0x1600>
1c00294c:	02802993 	addi.w	$r19,$r12,10(0xa)
1c002950:	29806073 	st.w	$r19,$r3,24(0x18)
1c002954:	28406066 	ld.h	$r6,$r3,24(0x18)
1c002958:	288051ed 	ld.w	$r13,$r15,20(0x14)
1c00295c:	00150009 	move	$r9,$r0
1c002960:	29806066 	st.w	$r6,$r3,24(0x18)
1c002964:	00103521 	add.w	$r1,$r9,$r13
1c002968:	2a406068 	ld.hu	$r8,$r3,24(0x18)
1c00296c:	64013b81 	bge	$r28,$r1,312(0x138) # 1c002aa4 <core_bench_matrix+0x1624>
1c002970:	0280290e 	addi.w	$r14,$r8,10(0xa)
1c002974:	2980606e 	st.w	$r14,$r3,24(0x18)
1c002978:	2840606b 	ld.h	$r11,$r3,24(0x18)
1c00297c:	288061e5 	ld.w	$r5,$r15,24(0x18)
1c002980:	00150001 	move	$r1,$r0
1c002984:	2980606b 	st.w	$r11,$r3,24(0x18)
1c002988:	00101433 	add.w	$r19,$r1,$r5
1c00298c:	2a40606c 	ld.hu	$r12,$r3,24(0x18)
1c002990:	64013b93 	bge	$r28,$r19,312(0x138) # 1c002ac8 <core_bench_matrix+0x1648>
1c002994:	02802994 	addi.w	$r20,$r12,10(0xa)
1c002998:	29806074 	st.w	$r20,$r3,24(0x18)
1c00299c:	28406064 	ld.h	$r4,$r3,24(0x18)
1c0029a0:	00150013 	move	$r19,$r0
1c0029a4:	02801e10 	addi.w	$r16,$r16,7(0x7)
1c0029a8:	028071ef 	addi.w	$r15,$r15,28(0x1c)
1c0029ac:	6ff9461d 	bgeu	$r16,$r29,-1724(0x3f944) # 1c0022f0 <core_bench_matrix+0xe70>
1c0029b0:	288001ed 	ld.w	$r13,$r15,0
1c0029b4:	29806064 	st.w	$r4,$r3,24(0x18)
1c0029b8:	2a406068 	ld.hu	$r8,$r3,24(0x18)
1c0029bc:	0010366e 	add.w	$r14,$r19,$r13
1c0029c0:	67fed38e 	bge	$r28,$r14,-304(0x3fed0) # 1c002890 <core_bench_matrix+0x1410>
1c0029c4:	02802901 	addi.w	$r1,$r8,10(0xa)
1c0029c8:	29806061 	st.w	$r1,$r3,24(0x18)
1c0029cc:	288011ea 	ld.w	$r10,$r15,4(0x4)
1c0029d0:	2840606b 	ld.h	$r11,$r3,24(0x18)
1c0029d4:	0015000e 	move	$r14,$r0
1c0029d8:	001029c9 	add.w	$r9,$r14,$r10
1c0029dc:	2980606b 	st.w	$r11,$r3,24(0x18)
1c0029e0:	02800610 	addi.w	$r16,$r16,1(0x1)
1c0029e4:	2a40606c 	ld.hu	$r12,$r3,24(0x18)
1c0029e8:	028011ef 	addi.w	$r15,$r15,4(0x4)
1c0029ec:	63fed389 	blt	$r28,$r9,-304(0x3fed0) # 1c0028bc <core_bench_matrix+0x143c>
1c0029f0:	001229b4 	slt	$r20,$r13,$r10
1c0029f4:	00105187 	add.w	$r7,$r12,$r20
1c0029f8:	29806067 	st.w	$r7,$r3,24(0x18)
1c0029fc:	28406066 	ld.h	$r6,$r3,24(0x18)
1c002a00:	288011ed 	ld.w	$r13,$r15,4(0x4)
1c002a04:	29806066 	st.w	$r6,$r3,24(0x18)
1c002a08:	00103521 	add.w	$r1,$r9,$r13
1c002a0c:	2a406068 	ld.hu	$r8,$r3,24(0x18)
1c002a10:	63fed381 	blt	$r28,$r1,-304(0x3fed0) # 1c0028e0 <core_bench_matrix+0x1460>
1c002a14:	00123545 	slt	$r5,$r10,$r13
1c002a18:	00101504 	add.w	$r4,$r8,$r5
1c002a1c:	29806064 	st.w	$r4,$r3,24(0x18)
1c002a20:	2840606b 	ld.h	$r11,$r3,24(0x18)
1c002a24:	288021ea 	ld.w	$r10,$r15,8(0x8)
1c002a28:	2980606b 	st.w	$r11,$r3,24(0x18)
1c002a2c:	00102829 	add.w	$r9,$r1,$r10
1c002a30:	2a40606c 	ld.hu	$r12,$r3,24(0x18)
1c002a34:	63fed389 	blt	$r28,$r9,-304(0x3fed0) # 1c002904 <core_bench_matrix+0x1484>
1c002a38:	001229b4 	slt	$r20,$r13,$r10
1c002a3c:	00105187 	add.w	$r7,$r12,$r20
1c002a40:	29806067 	st.w	$r7,$r3,24(0x18)
1c002a44:	28406066 	ld.h	$r6,$r3,24(0x18)
1c002a48:	288031ed 	ld.w	$r13,$r15,12(0xc)
1c002a4c:	29806066 	st.w	$r6,$r3,24(0x18)
1c002a50:	00103521 	add.w	$r1,$r9,$r13
1c002a54:	2a406068 	ld.hu	$r8,$r3,24(0x18)
1c002a58:	63fed381 	blt	$r28,$r1,-304(0x3fed0) # 1c002928 <core_bench_matrix+0x14a8>
1c002a5c:	00123545 	slt	$r5,$r10,$r13
1c002a60:	00101504 	add.w	$r4,$r8,$r5
1c002a64:	29806064 	st.w	$r4,$r3,24(0x18)
1c002a68:	2840606b 	ld.h	$r11,$r3,24(0x18)
1c002a6c:	288041ea 	ld.w	$r10,$r15,16(0x10)
1c002a70:	2980606b 	st.w	$r11,$r3,24(0x18)
1c002a74:	00102829 	add.w	$r9,$r1,$r10
1c002a78:	2a40606c 	ld.hu	$r12,$r3,24(0x18)
1c002a7c:	63fed389 	blt	$r28,$r9,-304(0x3fed0) # 1c00294c <core_bench_matrix+0x14cc>
1c002a80:	001229b4 	slt	$r20,$r13,$r10
1c002a84:	00105187 	add.w	$r7,$r12,$r20
1c002a88:	29806067 	st.w	$r7,$r3,24(0x18)
1c002a8c:	28406066 	ld.h	$r6,$r3,24(0x18)
1c002a90:	288051ed 	ld.w	$r13,$r15,20(0x14)
1c002a94:	29806066 	st.w	$r6,$r3,24(0x18)
1c002a98:	00103521 	add.w	$r1,$r9,$r13
1c002a9c:	2a406068 	ld.hu	$r8,$r3,24(0x18)
1c002aa0:	63fed381 	blt	$r28,$r1,-304(0x3fed0) # 1c002970 <core_bench_matrix+0x14f0>
1c002aa4:	00123545 	slt	$r5,$r10,$r13
1c002aa8:	00101504 	add.w	$r4,$r8,$r5
1c002aac:	29806064 	st.w	$r4,$r3,24(0x18)
1c002ab0:	2840606b 	ld.h	$r11,$r3,24(0x18)
1c002ab4:	288061e5 	ld.w	$r5,$r15,24(0x18)
1c002ab8:	2980606b 	st.w	$r11,$r3,24(0x18)
1c002abc:	00101433 	add.w	$r19,$r1,$r5
1c002ac0:	2a40606c 	ld.hu	$r12,$r3,24(0x18)
1c002ac4:	63fed393 	blt	$r28,$r19,-304(0x3fed0) # 1c002994 <core_bench_matrix+0x1514>
1c002ac8:	001215aa 	slt	$r10,$r13,$r5
1c002acc:	00102989 	add.w	$r9,$r12,$r10
1c002ad0:	29806069 	st.w	$r9,$r3,24(0x18)
1c002ad4:	28406064 	ld.h	$r4,$r3,24(0x18)
1c002ad8:	53fecfff 	b	-308(0xffffecc) # 1c0029a4 <core_bench_matrix+0x1524>
1c002adc:	03400000 	andi	$r0,$r0,0x0
1c002ae0:	00121514 	slt	$r20,$r8,$r5
1c002ae4:	001050e8 	add.w	$r8,$r7,$r20
1c002ae8:	29806068 	st.w	$r8,$r3,24(0x18)
1c002aec:	28406064 	ld.h	$r4,$r3,24(0x18)
1c002af0:	53f677ff 	b	-2444(0xffff674) # 1c002164 <core_bench_matrix+0xce4>
1c002af4:	00121549 	slt	$r9,$r10,$r5
1c002af8:	0010248c 	add.w	$r12,$r4,$r9
1c002afc:	2980406c 	st.w	$r12,$r3,16(0x10)
1c002b00:	28404064 	ld.h	$r4,$r3,16(0x10)
1c002b04:	53f3bbff 	b	-3144(0xffff3b8) # 1c001ebc <core_bench_matrix+0xa3c>
1c002b08:	00122def 	slt	$r15,$r15,$r11
1c002b0c:	00103c92 	add.w	$r18,$r4,$r15
1c002b10:	29804072 	st.w	$r18,$r3,16(0x10)
1c002b14:	28801229 	ld.w	$r9,$r17,4(0x4)
1c002b18:	28404074 	ld.h	$r20,$r3,16(0x10)
1c002b1c:	0280122a 	addi.w	$r10,$r17,4(0x4)
1c002b20:	001025c5 	add.w	$r5,$r14,$r9
1c002b24:	29804074 	st.w	$r20,$r3,16(0x10)
1c002b28:	02800610 	addi.w	$r16,$r16,1(0x1)
1c002b2c:	2a404071 	ld.hu	$r17,$r3,16(0x10)
1c002b30:	6400ab85 	bge	$r28,$r5,168(0xa8) # 1c002bd8 <core_bench_matrix+0x1758>
1c002b34:	02802a33 	addi.w	$r19,$r17,10(0xa)
1c002b38:	29804073 	st.w	$r19,$r3,16(0x10)
1c002b3c:	28404068 	ld.h	$r8,$r3,16(0x10)
1c002b40:	2880115e 	ld.w	$r30,$r10,4(0x4)
1c002b44:	00150005 	move	$r5,$r0
1c002b48:	29804068 	st.w	$r8,$r3,16(0x10)
1c002b4c:	001078bb 	add.w	$r27,$r5,$r30
1c002b50:	2a40407f 	ld.hu	$r31,$r3,16(0x10)
1c002b54:	6400ab9b 	bge	$r28,$r27,168(0xa8) # 1c002bfc <core_bench_matrix+0x177c>
1c002b58:	02802be4 	addi.w	$r4,$r31,10(0xa)
1c002b5c:	29804064 	st.w	$r4,$r3,16(0x10)
1c002b60:	2840406b 	ld.h	$r11,$r3,16(0x10)
1c002b64:	2880214f 	ld.w	$r15,$r10,8(0x8)
1c002b68:	0015001b 	move	$r27,$r0
1c002b6c:	2980406b 	st.w	$r11,$r3,16(0x10)
1c002b70:	00103f6e 	add.w	$r14,$r27,$r15
1c002b74:	2a404072 	ld.hu	$r18,$r3,16(0x10)
1c002b78:	6400ab8e 	bge	$r28,$r14,168(0xa8) # 1c002c20 <core_bench_matrix+0x17a0>
1c002b7c:	02802a49 	addi.w	$r9,$r18,10(0xa)
1c002b80:	29804069 	st.w	$r9,$r3,16(0x10)
1c002b84:	28404064 	ld.h	$r4,$r3,16(0x10)
1c002b88:	0015000e 	move	$r14,$r0
1c002b8c:	02800e10 	addi.w	$r16,$r16,3(0x3)
1c002b90:	02803151 	addi.w	$r17,$r10,12(0xc)
1c002b94:	6ffa3e1d 	bgeu	$r16,$r29,-1476(0x3fa3c) # 1c0025d0 <core_bench_matrix+0x1150>
1c002b98:	2880022b 	ld.w	$r11,$r17,0
1c002b9c:	29804064 	st.w	$r4,$r3,16(0x10)
1c002ba0:	2a404064 	ld.hu	$r4,$r3,16(0x10)
1c002ba4:	00102dce 	add.w	$r14,$r14,$r11
1c002ba8:	67ff638e 	bge	$r28,$r14,-160(0x3ff60) # 1c002b08 <core_bench_matrix+0x1688>
1c002bac:	0280288c 	addi.w	$r12,$r4,10(0xa)
1c002bb0:	2980406c 	st.w	$r12,$r3,16(0x10)
1c002bb4:	28801229 	ld.w	$r9,$r17,4(0x4)
1c002bb8:	28404074 	ld.h	$r20,$r3,16(0x10)
1c002bbc:	0015000e 	move	$r14,$r0
1c002bc0:	001025c5 	add.w	$r5,$r14,$r9
1c002bc4:	29804074 	st.w	$r20,$r3,16(0x10)
1c002bc8:	0280122a 	addi.w	$r10,$r17,4(0x4)
1c002bcc:	02800610 	addi.w	$r16,$r16,1(0x1)
1c002bd0:	2a404071 	ld.hu	$r17,$r3,16(0x10)
1c002bd4:	63ff6385 	blt	$r28,$r5,-160(0x3ff60) # 1c002b34 <core_bench_matrix+0x16b4>
1c002bd8:	00122567 	slt	$r7,$r11,$r9
1c002bdc:	00101e21 	add.w	$r1,$r17,$r7
1c002be0:	29804061 	st.w	$r1,$r3,16(0x10)
1c002be4:	28404068 	ld.h	$r8,$r3,16(0x10)
1c002be8:	2880115e 	ld.w	$r30,$r10,4(0x4)
1c002bec:	29804068 	st.w	$r8,$r3,16(0x10)
1c002bf0:	001078bb 	add.w	$r27,$r5,$r30
1c002bf4:	2a40407f 	ld.hu	$r31,$r3,16(0x10)
1c002bf8:	63ff639b 	blt	$r28,$r27,-160(0x3ff60) # 1c002b58 <core_bench_matrix+0x16d8>
1c002bfc:	0012793a 	slt	$r26,$r9,$r30
1c002c00:	00106be6 	add.w	$r6,$r31,$r26
1c002c04:	29804066 	st.w	$r6,$r3,16(0x10)
1c002c08:	2840406b 	ld.h	$r11,$r3,16(0x10)
1c002c0c:	2880214f 	ld.w	$r15,$r10,8(0x8)
1c002c10:	2980406b 	st.w	$r11,$r3,16(0x10)
1c002c14:	00103f6e 	add.w	$r14,$r27,$r15
1c002c18:	2a404072 	ld.hu	$r18,$r3,16(0x10)
1c002c1c:	63ff638e 	blt	$r28,$r14,-160(0x3ff60) # 1c002b7c <core_bench_matrix+0x16fc>
1c002c20:	00123fcc 	slt	$r12,$r30,$r15
1c002c24:	00103254 	add.w	$r20,$r18,$r12
1c002c28:	29804074 	st.w	$r20,$r3,16(0x10)
1c002c2c:	28404064 	ld.h	$r4,$r3,16(0x10)
1c002c30:	53ff5fff 	b	-164(0xfffff5c) # 1c002b8c <core_bench_matrix+0x170c>
1c002c34:	00123fdb 	slt	$r27,$r30,$r15
1c002c38:	00106ffa 	add.w	$r26,$r31,$r27
1c002c3c:	2980407a 	st.w	$r26,$r3,16(0x10)
1c002c40:	28404064 	ld.h	$r4,$r3,16(0x10)
1c002c44:	53f983ff 	b	-1664(0xffff980) # 1c0025c4 <core_bench_matrix+0x1144>
1c002c48:	00123ce6 	slt	$r6,$r7,$r15
1c002c4c:	00101b64 	add.w	$r4,$r27,$r6
1c002c50:	29804064 	st.w	$r4,$r3,16(0x10)
1c002c54:	28404064 	ld.h	$r4,$r3,16(0x10)
1c002c58:	53f8cfff 	b	-1844(0xffff8cc) # 1c002524 <core_bench_matrix+0x10a4>
1c002c5c:	03400000 	andi	$r0,$r0,0x0
1c002c60:	00121687 	slt	$r7,$r20,$r5
1c002c64:	00101d26 	add.w	$r6,$r9,$r7
1c002c68:	29806066 	st.w	$r6,$r3,24(0x18)
1c002c6c:	28406064 	ld.h	$r4,$r3,24(0x18)
1c002c70:	53f677ff 	b	-2444(0xffff674) # 1c0022e4 <core_bench_matrix+0xe64>
1c002c74:	001217c1 	slt	$r1,$r30,$r5
1c002c78:	001004e8 	add.w	$r8,$r7,$r1
1c002c7c:	29804068 	st.w	$r8,$r3,16(0x10)
1c002c80:	28404064 	ld.h	$r4,$r3,16(0x10)
1c002c84:	53f913ff 	b	-1776(0xffff910) # 1c002594 <core_bench_matrix+0x1114>
1c002c88:	02802a0e 	addi.w	$r14,$r16,10(0xa)
1c002c8c:	2980406e 	st.w	$r14,$r3,16(0x10)
1c002c90:	28404066 	ld.h	$r6,$r3,16(0x10)
1c002c94:	00150008 	move	$r8,$r0
1c002c98:	53fb83ff 	b	-1152(0xffffb80) # 1c002818 <core_bench_matrix+0x1398>
1c002c9c:	03400000 	andi	$r0,$r0,0x0
1c002ca0:	00123946 	slt	$r6,$r10,$r14
1c002ca4:	00101968 	add.w	$r8,$r11,$r6
1c002ca8:	29804068 	st.w	$r8,$r3,16(0x10)
1c002cac:	28404064 	ld.h	$r4,$r3,16(0x10)
1c002cb0:	53f1dfff 	b	-3620(0xffff1dc) # 1c001e8c <core_bench_matrix+0xa0c>
1c002cb4:	00122e8e 	slt	$r14,$r20,$r11
1c002cb8:	0010382c 	add.w	$r12,$r1,$r14
1c002cbc:	2980606c 	st.w	$r12,$r3,24(0x18)
1c002cc0:	28406064 	ld.h	$r4,$r3,24(0x18)
1c002cc4:	53f5f3ff 	b	-2576(0xffff5f0) # 1c0022b4 <core_bench_matrix+0xe34>
1c002cc8:	00121689 	slt	$r9,$r20,$r5
1c002ccc:	00102547 	add.w	$r7,$r10,$r9
1c002cd0:	29806067 	st.w	$r7,$r3,24(0x18)
1c002cd4:	28406064 	ld.h	$r4,$r3,24(0x18)
1c002cd8:	53f57fff 	b	-2692(0xffff57c) # 1c002254 <core_bench_matrix+0xdd4>
1c002cdc:	03400000 	andi	$r0,$r0,0x0
1c002ce0:	0012068b 	slt	$r11,$r20,$r1
1c002ce4:	00102dae 	add.w	$r14,$r13,$r11
1c002ce8:	2980606e 	st.w	$r14,$r3,24(0x18)
1c002cec:	28406064 	ld.h	$r4,$r3,24(0x18)
1c002cf0:	53f537ff 	b	-2764(0xffff534) # 1c002224 <core_bench_matrix+0xda4>
1c002cf4:	00122284 	slt	$r4,$r20,$r8
1c002cf8:	001010d4 	add.w	$r20,$r6,$r4
1c002cfc:	29806074 	st.w	$r20,$r3,24(0x18)
1c002d00:	28406064 	ld.h	$r4,$r3,24(0x18)
1c002d04:	53f583ff 	b	-2688(0xffff580) # 1c002284 <core_bench_matrix+0xe04>
1c002d08:	00121604 	slt	$r4,$r16,$r5
1c002d0c:	001011ca 	add.w	$r10,$r14,$r4
1c002d10:	2980406a 	st.w	$r10,$r3,16(0x10)
1c002d14:	28404064 	ld.h	$r4,$r3,16(0x10)
1c002d18:	53f107ff 	b	-3836(0xffff104) # 1c001e1c <core_bench_matrix+0x99c>
1c002d1c:	03400000 	andi	$r0,$r0,0x0
1c002d20:	001279f4 	slt	$r20,$r15,$r30
1c002d24:	0010518a 	add.w	$r10,$r12,$r20
1c002d28:	2980406a 	st.w	$r10,$r3,16(0x10)
1c002d2c:	28404064 	ld.h	$r4,$r3,16(0x10)
1c002d30:	53f83bff 	b	-1992(0xffff838) # 1c002568 <core_bench_matrix+0x10e8>
1c002d34:	001228a5 	slt	$r5,$r5,$r10
1c002d38:	00101590 	add.w	$r16,$r12,$r5
1c002d3c:	29804070 	st.w	$r16,$r3,16(0x10)
1c002d40:	28404064 	ld.h	$r4,$r3,16(0x10)
1c002d44:	53f11fff 	b	-3812(0xffff11c) # 1c001e60 <core_bench_matrix+0x9e0>
1c002d48:	00121a84 	slt	$r4,$r20,$r6
1c002d4c:	001010f4 	add.w	$r20,$r7,$r4
1c002d50:	29806074 	st.w	$r20,$r3,24(0x18)
1c002d54:	28406064 	ld.h	$r4,$r3,24(0x18)
1c002d58:	53f49fff 	b	-2916(0xffff49c) # 1c0021f4 <core_bench_matrix+0xd74>
1c002d5c:	03400000 	andi	$r0,$r0,0x0
1c002d60:	00123d29 	slt	$r9,$r9,$r15
1c002d64:	0010249f 	add.w	$r31,$r4,$r9
1c002d68:	2980407f 	st.w	$r31,$r3,16(0x10)
1c002d6c:	28404064 	ld.h	$r4,$r3,16(0x10)
1c002d70:	53eac7ff 	b	-5436(0xfffeac4) # 1c001834 <core_bench_matrix+0x3b4>
1c002d74:	001250a5 	slt	$r5,$r5,$r20
1c002d78:	00101549 	add.w	$r9,$r10,$r5
1c002d7c:	29806069 	st.w	$r9,$r3,24(0x18)
1c002d80:	28406064 	ld.h	$r4,$r3,24(0x18)
1c002d84:	02800610 	addi.w	$r16,$r16,1(0x1)
1c002d88:	028011ef 	addi.w	$r15,$r15,4(0x4)
1c002d8c:	53f447ff 	b	-3004(0xffff444) # 1c0021d0 <core_bench_matrix+0xd50>
1c002d90:	29804077 	st.w	$r23,$r3,16(0x10)
1c002d94:	53f167ff 	b	-3740(0xffff164) # 1c001ef8 <core_bench_matrix+0xa78>
1c002d98:	00150005 	move	$r5,$r0
1c002d9c:	00150004 	move	$r4,$r0
1c002da0:	544c8000 	bl	19584(0x4c80) # 1c007a20 <crc16>
1c002da4:	00150085 	move	$r5,$r4
1c002da8:	00150004 	move	$r4,$r0
1c002dac:	544c7400 	bl	19572(0x4c74) # 1c007a20 <crc16>
1c002db0:	00150085 	move	$r5,$r4
1c002db4:	00150004 	move	$r4,$r0
1c002db8:	544c6800 	bl	19560(0x4c68) # 1c007a20 <crc16>
1c002dbc:	00150085 	move	$r5,$r4
1c002dc0:	00150004 	move	$r4,$r0
1c002dc4:	544c5c00 	bl	19548(0x4c5c) # 1c007a20 <crc16>
1c002dc8:	29803064 	st.w	$r4,$r3,12(0xc)
1c002dcc:	28812076 	ld.w	$r22,$r3,72(0x48)
1c002dd0:	28403064 	ld.h	$r4,$r3,12(0xc)
1c002dd4:	28805065 	ld.w	$r5,$r3,20(0x14)
1c002dd8:	28813061 	ld.w	$r1,$r3,76(0x4c)
1c002ddc:	28811077 	ld.w	$r23,$r3,68(0x44)
1c002de0:	28810078 	ld.w	$r24,$r3,64(0x40)
1c002de4:	2880f079 	ld.w	$r25,$r3,60(0x3c)
1c002de8:	2880e07a 	ld.w	$r26,$r3,56(0x38)
1c002dec:	2880d07b 	ld.w	$r27,$r3,52(0x34)
1c002df0:	2880c07c 	ld.w	$r28,$r3,48(0x30)
1c002df4:	2880b07d 	ld.w	$r29,$r3,44(0x2c)
1c002df8:	2880a07e 	ld.w	$r30,$r3,40(0x28)
1c002dfc:	2880907f 	ld.w	$r31,$r3,36(0x24)
1c002e00:	02814063 	addi.w	$r3,$r3,80(0x50)
1c002e04:	504c1c00 	b	19484(0x4c1c) # 1c007a20 <crc16>
1c002e08:	03400000 	andi	$r0,$r0,0x0
1c002e0c:	03400000 	andi	$r0,$r0,0x0

1c002e10 <matrix_test>:
matrix_test():
1c002e10:	02bec063 	addi.w	$r3,$r3,-80(0xfb0)
1c002e14:	2980907f 	st.w	$r31,$r3,36(0x24)
1c002e18:	29813061 	st.w	$r1,$r3,76(0x4c)
1c002e1c:	15ffffff 	lu12i.w	$r31,-1(0xfffff)
1c002e20:	29812076 	st.w	$r22,$r3,72(0x48)
1c002e24:	29811077 	st.w	$r23,$r3,68(0x44)
1c002e28:	29810078 	st.w	$r24,$r3,64(0x40)
1c002e2c:	2980f079 	st.w	$r25,$r3,60(0x3c)
1c002e30:	2980e07a 	st.w	$r26,$r3,56(0x38)
1c002e34:	2980d07b 	st.w	$r27,$r3,52(0x34)
1c002e38:	2980c07c 	st.w	$r28,$r3,48(0x30)
1c002e3c:	2980b07d 	st.w	$r29,$r3,44(0x2c)
1c002e40:	2980a07e 	st.w	$r30,$r3,40(0x28)
1c002e44:	29804065 	st.w	$r5,$r3,16(0x10)
1c002e48:	29805066 	st.w	$r6,$r3,20(0x14)
1c002e4c:	29802067 	st.w	$r7,$r3,8(0x8)
1c002e50:	00157d1f 	or	$r31,$r8,$r31
1c002e54:	58190080 	beq	$r4,$r0,6400(0x1900) # 1c004754 <matrix_test+0x1944>
1c002e58:	001500d9 	move	$r25,$r6
1c002e5c:	02bff81d 	addi.w	$r29,$r0,-2(0xffe)
1c002e60:	02bff006 	addi.w	$r6,$r0,-4(0xffc)
1c002e64:	001c749d 	mul.w	$r29,$r4,$r29
1c002e68:	29803068 	st.w	$r8,$r3,12(0xc)
1c002e6c:	00408497 	slli.w	$r23,$r4,0x1
1c002e70:	2a403076 	ld.hu	$r22,$r3,12(0xc)
1c002e74:	00105f3a 	add.w	$r26,$r25,$r23
1c002e78:	00150093 	move	$r19,$r4
1c002e7c:	00150014 	move	$r20,$r0
1c002e80:	0015034e 	move	$r14,$r26
1c002e84:	001c1886 	mul.w	$r6,$r4,$r6
1c002e88:	001075cf 	add.w	$r15,$r14,$r29
1c002e8c:	00113dcc 	sub.w	$r12,$r14,$r15
1c002e90:	02bff981 	addi.w	$r1,$r12,-2(0xffe)
1c002e94:	00448424 	srli.w	$r4,$r1,0x1
1c002e98:	02800485 	addi.w	$r5,$r4,1(0x1)
1c002e9c:	03401ca7 	andi	$r7,$r5,0x7
1c002ea0:	001501ed 	move	$r13,$r15
1c002ea4:	5800a8e0 	beq	$r7,$r0,168(0xa8) # 1c002f4c <matrix_test+0x13c>
1c002ea8:	02800411 	addi.w	$r17,$r0,1(0x1)
1c002eac:	58008cf1 	beq	$r7,$r17,140(0x8c) # 1c002f38 <matrix_test+0x128>
1c002eb0:	02800809 	addi.w	$r9,$r0,2(0x2)
1c002eb4:	580074e9 	beq	$r7,$r9,116(0x74) # 1c002f28 <matrix_test+0x118>
1c002eb8:	02800c0a 	addi.w	$r10,$r0,3(0x3)
1c002ebc:	58005cea 	beq	$r7,$r10,92(0x5c) # 1c002f18 <matrix_test+0x108>
1c002ec0:	0280100b 	addi.w	$r11,$r0,4(0x4)
1c002ec4:	580044eb 	beq	$r7,$r11,68(0x44) # 1c002f08 <matrix_test+0xf8>
1c002ec8:	02801410 	addi.w	$r16,$r0,5(0x5)
1c002ecc:	58002cf0 	beq	$r7,$r16,44(0x2c) # 1c002ef8 <matrix_test+0xe8>
1c002ed0:	02801812 	addi.w	$r18,$r0,6(0x6)
1c002ed4:	580014f2 	beq	$r7,$r18,20(0x14) # 1c002ee8 <matrix_test+0xd8>
1c002ed8:	2a4001f8 	ld.hu	$r24,$r15,0
1c002edc:	028009ed 	addi.w	$r13,$r15,2(0x2)
1c002ee0:	001062db 	add.w	$r27,$r22,$r24
1c002ee4:	294001fb 	st.h	$r27,$r15,0
1c002ee8:	2a4001bc 	ld.hu	$r28,$r13,0
1c002eec:	028009ad 	addi.w	$r13,$r13,2(0x2)
1c002ef0:	001072de 	add.w	$r30,$r22,$r28
1c002ef4:	297ff9be 	st.h	$r30,$r13,-2(0xffe)
1c002ef8:	2a4001ac 	ld.hu	$r12,$r13,0
1c002efc:	028009ad 	addi.w	$r13,$r13,2(0x2)
1c002f00:	001032c1 	add.w	$r1,$r22,$r12
1c002f04:	297ff9a1 	st.h	$r1,$r13,-2(0xffe)
1c002f08:	2a4001a4 	ld.hu	$r4,$r13,0
1c002f0c:	028009ad 	addi.w	$r13,$r13,2(0x2)
1c002f10:	001012c5 	add.w	$r5,$r22,$r4
1c002f14:	297ff9a5 	st.h	$r5,$r13,-2(0xffe)
1c002f18:	2a4001a7 	ld.hu	$r7,$r13,0
1c002f1c:	028009ad 	addi.w	$r13,$r13,2(0x2)
1c002f20:	00101ed1 	add.w	$r17,$r22,$r7
1c002f24:	297ff9b1 	st.h	$r17,$r13,-2(0xffe)
1c002f28:	2a4001a9 	ld.hu	$r9,$r13,0
1c002f2c:	028009ad 	addi.w	$r13,$r13,2(0x2)
1c002f30:	001026ca 	add.w	$r10,$r22,$r9
1c002f34:	297ff9aa 	st.h	$r10,$r13,-2(0xffe)
1c002f38:	2a4001ab 	ld.hu	$r11,$r13,0
1c002f3c:	028009ad 	addi.w	$r13,$r13,2(0x2)
1c002f40:	00102ed0 	add.w	$r16,$r22,$r11
1c002f44:	297ff9b0 	st.h	$r16,$r13,-2(0xffe)
1c002f48:	58006dae 	beq	$r13,$r14,108(0x6c) # 1c002fb4 <matrix_test+0x1a4>
1c002f4c:	2a4001b8 	ld.hu	$r24,$r13,0
1c002f50:	2a4009bb 	ld.hu	$r27,$r13,2(0x2)
1c002f54:	2a4011bc 	ld.hu	$r28,$r13,4(0x4)
1c002f58:	2a4019be 	ld.hu	$r30,$r13,6(0x6)
1c002f5c:	2a4021a1 	ld.hu	$r1,$r13,8(0x8)
1c002f60:	2a4029b2 	ld.hu	$r18,$r13,10(0xa)
1c002f64:	2a4031b1 	ld.hu	$r17,$r13,12(0xc)
1c002f68:	2a4039ac 	ld.hu	$r12,$r13,14(0xe)
1c002f6c:	001062ca 	add.w	$r10,$r22,$r24
1c002f70:	028041ad 	addi.w	$r13,$r13,16(0x10)
1c002f74:	00106ec9 	add.w	$r9,$r22,$r27
1c002f78:	001072c7 	add.w	$r7,$r22,$r28
1c002f7c:	00107ac5 	add.w	$r5,$r22,$r30
1c002f80:	001006c4 	add.w	$r4,$r22,$r1
1c002f84:	00104acb 	add.w	$r11,$r22,$r18
1c002f88:	001046d0 	add.w	$r16,$r22,$r17
1c002f8c:	001032d8 	add.w	$r24,$r22,$r12
1c002f90:	297fc1aa 	st.h	$r10,$r13,-16(0xff0)
1c002f94:	297fc9a9 	st.h	$r9,$r13,-14(0xff2)
1c002f98:	297fd1a7 	st.h	$r7,$r13,-12(0xff4)
1c002f9c:	297fd9a5 	st.h	$r5,$r13,-10(0xff6)
1c002fa0:	297fe1a4 	st.h	$r4,$r13,-8(0xff8)
1c002fa4:	297fe9ab 	st.h	$r11,$r13,-6(0xffa)
1c002fa8:	297ff1b0 	st.h	$r16,$r13,-4(0xffc)
1c002fac:	297ff9b8 	st.h	$r24,$r13,-2(0xffe)
1c002fb0:	5fff9dae 	bne	$r13,$r14,-100(0x3ff9c) # 1c002f4c <matrix_test+0x13c>
1c002fb4:	0280069e 	addi.w	$r30,$r20,1(0x1)
1c002fb8:	001119ee 	sub.w	$r14,$r15,$r6
1c002fbc:	58000e7e 	beq	$r19,$r30,12(0xc) # 1c002fc8 <matrix_test+0x1b8>
1c002fc0:	001503d4 	move	$r20,$r30
1c002fc4:	53fec7ff 	b	-316(0xffffec4) # 1c002e88 <matrix_test+0x78>
1c002fc8:	02bff00f 	addi.w	$r15,$r0,-4(0xffc)
1c002fcc:	001c3fd1 	mul.w	$r17,$r30,$r15
1c002fd0:	28804064 	ld.w	$r4,$r3,16(0x10)
1c002fd4:	00408bdb 	slli.w	$r27,$r30,0x2
1c002fd8:	00150352 	move	$r18,$r26
1c002fdc:	00150098 	move	$r24,$r4
1c002fe0:	00150005 	move	$r5,$r0
1c002fe4:	00107653 	add.w	$r19,$r18,$r29
1c002fe8:	00114e46 	sub.w	$r6,$r18,$r19
1c002fec:	02bff8dc 	addi.w	$r28,$r6,-2(0xffe)
1c002ff0:	00448781 	srli.w	$r1,$r28,0x1
1c002ff4:	0280042c 	addi.w	$r12,$r1,1(0x1)
1c002ff8:	03401d8a 	andi	$r10,$r12,0x7
1c002ffc:	0015008e 	move	$r14,$r4
1c003000:	0015026d 	move	$r13,$r19
1c003004:	5800c540 	beq	$r10,$r0,196(0xc4) # 1c0030c8 <matrix_test+0x2b8>
1c003008:	02800409 	addi.w	$r9,$r0,1(0x1)
1c00300c:	5800a549 	beq	$r10,$r9,164(0xa4) # 1c0030b0 <matrix_test+0x2a0>
1c003010:	02800807 	addi.w	$r7,$r0,2(0x2)
1c003014:	58008947 	beq	$r10,$r7,136(0x88) # 1c00309c <matrix_test+0x28c>
1c003018:	02800c0b 	addi.w	$r11,$r0,3(0x3)
1c00301c:	58006d4b 	beq	$r10,$r11,108(0x6c) # 1c003088 <matrix_test+0x278>
1c003020:	02801010 	addi.w	$r16,$r0,4(0x4)
1c003024:	58005150 	beq	$r10,$r16,80(0x50) # 1c003074 <matrix_test+0x264>
1c003028:	0280140f 	addi.w	$r15,$r0,5(0x5)
1c00302c:	5800354f 	beq	$r10,$r15,52(0x34) # 1c003060 <matrix_test+0x250>
1c003030:	02801806 	addi.w	$r6,$r0,6(0x6)
1c003034:	58001946 	beq	$r10,$r6,24(0x18) # 1c00304c <matrix_test+0x23c>
1c003038:	2840026d 	ld.h	$r13,$r19,0
1c00303c:	0280108e 	addi.w	$r14,$r4,4(0x4)
1c003040:	001c21bc 	mul.w	$r28,$r13,$r8
1c003044:	02800a6d 	addi.w	$r13,$r19,2(0x2)
1c003048:	2980009c 	st.w	$r28,$r4,0
1c00304c:	284001a1 	ld.h	$r1,$r13,0
1c003050:	028011ce 	addi.w	$r14,$r14,4(0x4)
1c003054:	028009ad 	addi.w	$r13,$r13,2(0x2)
1c003058:	001c202c 	mul.w	$r12,$r1,$r8
1c00305c:	29bff1cc 	st.w	$r12,$r14,-4(0xffc)
1c003060:	284001aa 	ld.h	$r10,$r13,0
1c003064:	028011ce 	addi.w	$r14,$r14,4(0x4)
1c003068:	028009ad 	addi.w	$r13,$r13,2(0x2)
1c00306c:	001c2149 	mul.w	$r9,$r10,$r8
1c003070:	29bff1c9 	st.w	$r9,$r14,-4(0xffc)
1c003074:	284001a7 	ld.h	$r7,$r13,0
1c003078:	028011ce 	addi.w	$r14,$r14,4(0x4)
1c00307c:	028009ad 	addi.w	$r13,$r13,2(0x2)
1c003080:	001c20eb 	mul.w	$r11,$r7,$r8
1c003084:	29bff1cb 	st.w	$r11,$r14,-4(0xffc)
1c003088:	284001b0 	ld.h	$r16,$r13,0
1c00308c:	028011ce 	addi.w	$r14,$r14,4(0x4)
1c003090:	028009ad 	addi.w	$r13,$r13,2(0x2)
1c003094:	001c220f 	mul.w	$r15,$r16,$r8
1c003098:	29bff1cf 	st.w	$r15,$r14,-4(0xffc)
1c00309c:	284001a6 	ld.h	$r6,$r13,0
1c0030a0:	028011ce 	addi.w	$r14,$r14,4(0x4)
1c0030a4:	028009ad 	addi.w	$r13,$r13,2(0x2)
1c0030a8:	001c20dc 	mul.w	$r28,$r6,$r8
1c0030ac:	29bff1dc 	st.w	$r28,$r14,-4(0xffc)
1c0030b0:	284001a1 	ld.h	$r1,$r13,0
1c0030b4:	028011ce 	addi.w	$r14,$r14,4(0x4)
1c0030b8:	028009ad 	addi.w	$r13,$r13,2(0x2)
1c0030bc:	001c202c 	mul.w	$r12,$r1,$r8
1c0030c0:	29bff1cc 	st.w	$r12,$r14,-4(0xffc)
1c0030c4:	5800724d 	beq	$r18,$r13,112(0x70) # 1c003134 <matrix_test+0x324>
1c0030c8:	284001aa 	ld.h	$r10,$r13,0
1c0030cc:	284009ab 	ld.h	$r11,$r13,2(0x2)
1c0030d0:	284021b0 	ld.h	$r16,$r13,8(0x8)
1c0030d4:	284011a9 	ld.h	$r9,$r13,4(0x4)
1c0030d8:	284019a7 	ld.h	$r7,$r13,6(0x6)
1c0030dc:	001c214f 	mul.w	$r15,$r10,$r8
1c0030e0:	284029a1 	ld.h	$r1,$r13,10(0xa)
1c0030e4:	028041ad 	addi.w	$r13,$r13,16(0x10)
1c0030e8:	001c217c 	mul.w	$r28,$r11,$r8
1c0030ec:	287ff1ab 	ld.h	$r11,$r13,-4(0xffc)
1c0030f0:	001c2206 	mul.w	$r6,$r16,$r8
1c0030f4:	287ff9b0 	ld.h	$r16,$r13,-2(0xffe)
1c0030f8:	298001cf 	st.w	$r15,$r14,0
1c0030fc:	298011dc 	st.w	$r28,$r14,4(0x4)
1c003100:	001c212a 	mul.w	$r10,$r9,$r8
1c003104:	298041c6 	st.w	$r6,$r14,16(0x10)
1c003108:	001c20e9 	mul.w	$r9,$r7,$r8
1c00310c:	001c202c 	mul.w	$r12,$r1,$r8
1c003110:	298021ca 	st.w	$r10,$r14,8(0x8)
1c003114:	298031c9 	st.w	$r9,$r14,12(0xc)
1c003118:	001c2167 	mul.w	$r7,$r11,$r8
1c00311c:	001c220f 	mul.w	$r15,$r16,$r8
1c003120:	298051cc 	st.w	$r12,$r14,20(0x14)
1c003124:	298061c7 	st.w	$r7,$r14,24(0x18)
1c003128:	028081ce 	addi.w	$r14,$r14,32(0x20)
1c00312c:	29bff1cf 	st.w	$r15,$r14,-4(0xffc)
1c003130:	5fff9a4d 	bne	$r18,$r13,-104(0x3ff98) # 1c0030c8 <matrix_test+0x2b8>
1c003134:	028004ad 	addi.w	$r13,$r5,1(0x1)
1c003138:	00106c84 	add.w	$r4,$r4,$r27
1c00313c:	00114672 	sub.w	$r18,$r19,$r17
1c003140:	580010b4 	beq	$r5,$r20,16(0x10) # 1c003150 <matrix_test+0x340>
1c003144:	001501a5 	move	$r5,$r13
1c003148:	53fe9fff 	b	-356(0xffffe9c) # 1c002fe4 <matrix_test+0x1d4>
1c00314c:	03400000 	andi	$r0,$r0,0x0
1c003150:	28804068 	ld.w	$r8,$r3,16(0x10)
1c003154:	02bfe005 	addi.w	$r5,$r0,-8(0xff8)
1c003158:	001c17c6 	mul.w	$r6,$r30,$r5
1c00315c:	0015000c 	move	$r12,$r0
1c003160:	00106d12 	add.w	$r18,$r8,$r27
1c003164:	0015024e 	move	$r14,$r18
1c003168:	0015000a 	move	$r10,$r0
1c00316c:	00150008 	move	$r8,$r0
1c003170:	00150005 	move	$r5,$r0
1c003174:	001045d3 	add.w	$r19,$r14,$r17
1c003178:	00114ddc 	sub.w	$r28,$r14,$r19
1c00317c:	02bff389 	addi.w	$r9,$r28,-4(0xffc)
1c003180:	00448921 	srli.w	$r1,$r9,0x2
1c003184:	0280042b 	addi.w	$r11,$r1,1(0x1)
1c003188:	03401d70 	andi	$r16,$r11,0x7
1c00318c:	0015026d 	move	$r13,$r19
1c003190:	5802a200 	beq	$r16,$r0,672(0x2a0) # 1c003430 <matrix_test+0x620>
1c003194:	02800407 	addi.w	$r7,$r0,1(0x1)
1c003198:	58013607 	beq	$r16,$r7,308(0x134) # 1c0032cc <matrix_test+0x4bc>
1c00319c:	0280080f 	addi.w	$r15,$r0,2(0x2)
1c0031a0:	5801020f 	beq	$r16,$r15,256(0x100) # 1c0032a0 <matrix_test+0x490>
1c0031a4:	02800c04 	addi.w	$r4,$r0,3(0x3)
1c0031a8:	5800ce04 	beq	$r16,$r4,204(0xcc) # 1c003274 <matrix_test+0x464>
1c0031ac:	0280101c 	addi.w	$r28,$r0,4(0x4)
1c0031b0:	58009a1c 	beq	$r16,$r28,152(0x98) # 1c003248 <matrix_test+0x438>
1c0031b4:	02801409 	addi.w	$r9,$r0,5(0x5)
1c0031b8:	58006609 	beq	$r16,$r9,100(0x64) # 1c00321c <matrix_test+0x40c>
1c0031bc:	02801801 	addi.w	$r1,$r0,6(0x6)
1c0031c0:	58003201 	beq	$r16,$r1,48(0x30) # 1c0031f0 <matrix_test+0x3e0>
1c0031c4:	2880026d 	ld.w	$r13,$r19,0
1c0031c8:	2980306c 	st.w	$r12,$r3,12(0xc)
1c0031cc:	2a40306c 	ld.hu	$r12,$r3,12(0xc)
1c0031d0:	00103508 	add.w	$r8,$r8,$r13
1c0031d4:	64154be8 	bge	$r31,$r8,5448(0x1548) # 1c00471c <matrix_test+0x190c>
1c0031d8:	02802988 	addi.w	$r8,$r12,10(0xa)
1c0031dc:	29803068 	st.w	$r8,$r3,12(0xc)
1c0031e0:	2840306c 	ld.h	$r12,$r3,12(0xc)
1c0031e4:	00150008 	move	$r8,$r0
1c0031e8:	001501aa 	move	$r10,$r13
1c0031ec:	0280126d 	addi.w	$r13,$r19,4(0x4)
1c0031f0:	288001a7 	ld.w	$r7,$r13,0
1c0031f4:	2980306c 	st.w	$r12,$r3,12(0xc)
1c0031f8:	2a403070 	ld.hu	$r16,$r3,12(0xc)
1c0031fc:	00101d08 	add.w	$r8,$r8,$r7
1c003200:	6403c7e8 	bge	$r31,$r8,964(0x3c4) # 1c0035c4 <matrix_test+0x7b4>
1c003204:	02802a1c 	addi.w	$r28,$r16,10(0xa)
1c003208:	2980307c 	st.w	$r28,$r3,12(0xc)
1c00320c:	2840306c 	ld.h	$r12,$r3,12(0xc)
1c003210:	00150008 	move	$r8,$r0
1c003214:	028011ad 	addi.w	$r13,$r13,4(0x4)
1c003218:	001500ea 	move	$r10,$r7
1c00321c:	288001a9 	ld.w	$r9,$r13,0
1c003220:	2980306c 	st.w	$r12,$r3,12(0xc)
1c003224:	2a403061 	ld.hu	$r1,$r3,12(0xc)
1c003228:	00102508 	add.w	$r8,$r8,$r9
1c00322c:	640387e8 	bge	$r31,$r8,900(0x384) # 1c0035b0 <matrix_test+0x7a0>
1c003230:	0280282b 	addi.w	$r11,$r1,10(0xa)
1c003234:	2980306b 	st.w	$r11,$r3,12(0xc)
1c003238:	2840306c 	ld.h	$r12,$r3,12(0xc)
1c00323c:	00150008 	move	$r8,$r0
1c003240:	028011ad 	addi.w	$r13,$r13,4(0x4)
1c003244:	0015012a 	move	$r10,$r9
1c003248:	288001b0 	ld.w	$r16,$r13,0
1c00324c:	2980306c 	st.w	$r12,$r3,12(0xc)
1c003250:	2a403067 	ld.hu	$r7,$r3,12(0xc)
1c003254:	00104108 	add.w	$r8,$r8,$r16
1c003258:	640343e8 	bge	$r31,$r8,832(0x340) # 1c003598 <matrix_test+0x788>
1c00325c:	028028e8 	addi.w	$r8,$r7,10(0xa)
1c003260:	29803068 	st.w	$r8,$r3,12(0xc)
1c003264:	2840306c 	ld.h	$r12,$r3,12(0xc)
1c003268:	00150008 	move	$r8,$r0
1c00326c:	028011ad 	addi.w	$r13,$r13,4(0x4)
1c003270:	0015020a 	move	$r10,$r16
1c003274:	288001bc 	ld.w	$r28,$r13,0
1c003278:	2980306c 	st.w	$r12,$r3,12(0xc)
1c00327c:	2a403069 	ld.hu	$r9,$r3,12(0xc)
1c003280:	00107108 	add.w	$r8,$r8,$r28
1c003284:	640303e8 	bge	$r31,$r8,768(0x300) # 1c003584 <matrix_test+0x774>
1c003288:	0280292a 	addi.w	$r10,$r9,10(0xa)
1c00328c:	2980306a 	st.w	$r10,$r3,12(0xc)
1c003290:	2840306c 	ld.h	$r12,$r3,12(0xc)
1c003294:	00150008 	move	$r8,$r0
1c003298:	028011ad 	addi.w	$r13,$r13,4(0x4)
1c00329c:	0015038a 	move	$r10,$r28
1c0032a0:	288001ab 	ld.w	$r11,$r13,0
1c0032a4:	2980306c 	st.w	$r12,$r3,12(0xc)
1c0032a8:	2a403070 	ld.hu	$r16,$r3,12(0xc)
1c0032ac:	00102d08 	add.w	$r8,$r8,$r11
1c0032b0:	6402c3e8 	bge	$r31,$r8,704(0x2c0) # 1c003570 <matrix_test+0x760>
1c0032b4:	02802a04 	addi.w	$r4,$r16,10(0xa)
1c0032b8:	29803064 	st.w	$r4,$r3,12(0xc)
1c0032bc:	2840306c 	ld.h	$r12,$r3,12(0xc)
1c0032c0:	00150008 	move	$r8,$r0
1c0032c4:	028011ad 	addi.w	$r13,$r13,4(0x4)
1c0032c8:	0015016a 	move	$r10,$r11
1c0032cc:	288001b0 	ld.w	$r16,$r13,0
1c0032d0:	2980306c 	st.w	$r12,$r3,12(0xc)
1c0032d4:	2a40307c 	ld.hu	$r28,$r3,12(0xc)
1c0032d8:	00104108 	add.w	$r8,$r8,$r16
1c0032dc:	64027fe8 	bge	$r31,$r8,636(0x27c) # 1c003558 <matrix_test+0x748>
1c0032e0:	02802b8c 	addi.w	$r12,$r28,10(0xa)
1c0032e4:	2980306c 	st.w	$r12,$r3,12(0xc)
1c0032e8:	2840306c 	ld.h	$r12,$r3,12(0xc)
1c0032ec:	00150008 	move	$r8,$r0
1c0032f0:	028011ad 	addi.w	$r13,$r13,4(0x4)
1c0032f4:	0015020a 	move	$r10,$r16
1c0032f8:	5c0139ae 	bne	$r13,$r14,312(0x138) # 1c003430 <matrix_test+0x620>
1c0032fc:	028004ab 	addi.w	$r11,$r5,1(0x1)
1c003300:	00111a6e 	sub.w	$r14,$r19,$r6
1c003304:	0015020a 	move	$r10,$r16
1c003308:	5802d285 	beq	$r20,$r5,720(0x2d0) # 1c0035d8 <matrix_test+0x7c8>
1c00330c:	00150165 	move	$r5,$r11
1c003310:	53fe67ff 	b	-412(0xffffe64) # 1c003174 <matrix_test+0x364>
1c003314:	00122d4a 	slt	$r10,$r10,$r11
1c003318:	00102a07 	add.w	$r7,$r16,$r10
1c00331c:	29803067 	st.w	$r7,$r3,12(0xc)
1c003320:	288011bc 	ld.w	$r28,$r13,4(0x4)
1c003324:	28403064 	ld.h	$r4,$r3,12(0xc)
1c003328:	028011ad 	addi.w	$r13,$r13,4(0x4)
1c00332c:	00107110 	add.w	$r16,$r8,$r28
1c003330:	29803064 	st.w	$r4,$r3,12(0xc)
1c003334:	2a403061 	ld.hu	$r1,$r3,12(0xc)
1c003338:	640137f0 	bge	$r31,$r16,308(0x134) # 1c00346c <matrix_test+0x65c>
1c00333c:	0280282a 	addi.w	$r10,$r1,10(0xa)
1c003340:	2980306a 	st.w	$r10,$r3,12(0xc)
1c003344:	2840306b 	ld.h	$r11,$r3,12(0xc)
1c003348:	288011af 	ld.w	$r15,$r13,4(0x4)
1c00334c:	00150010 	move	$r16,$r0
1c003350:	2980306b 	st.w	$r11,$r3,12(0xc)
1c003354:	00103e08 	add.w	$r8,$r16,$r15
1c003358:	2a403064 	ld.hu	$r4,$r3,12(0xc)
1c00335c:	640137e8 	bge	$r31,$r8,308(0x134) # 1c003490 <matrix_test+0x680>
1c003360:	02802890 	addi.w	$r16,$r4,10(0xa)
1c003364:	29803070 	st.w	$r16,$r3,12(0xc)
1c003368:	28403061 	ld.h	$r1,$r3,12(0xc)
1c00336c:	288021a9 	ld.w	$r9,$r13,8(0x8)
1c003370:	00150008 	move	$r8,$r0
1c003374:	29803061 	st.w	$r1,$r3,12(0xc)
1c003378:	0010250b 	add.w	$r11,$r8,$r9
1c00337c:	2a40306c 	ld.hu	$r12,$r3,12(0xc)
1c003380:	640137eb 	bge	$r31,$r11,308(0x134) # 1c0034b4 <matrix_test+0x6a4>
1c003384:	02802984 	addi.w	$r4,$r12,10(0xa)
1c003388:	29803064 	st.w	$r4,$r3,12(0xc)
1c00338c:	28403068 	ld.h	$r8,$r3,12(0xc)
1c003390:	288031bc 	ld.w	$r28,$r13,12(0xc)
1c003394:	0015000b 	move	$r11,$r0
1c003398:	29803068 	st.w	$r8,$r3,12(0xc)
1c00339c:	00107170 	add.w	$r16,$r11,$r28
1c0033a0:	2a403061 	ld.hu	$r1,$r3,12(0xc)
1c0033a4:	640137f0 	bge	$r31,$r16,308(0x134) # 1c0034d8 <matrix_test+0x6c8>
1c0033a8:	0280282b 	addi.w	$r11,$r1,10(0xa)
1c0033ac:	2980306b 	st.w	$r11,$r3,12(0xc)
1c0033b0:	2840306c 	ld.h	$r12,$r3,12(0xc)
1c0033b4:	288041aa 	ld.w	$r10,$r13,16(0x10)
1c0033b8:	00150010 	move	$r16,$r0
1c0033bc:	2980306c 	st.w	$r12,$r3,12(0xc)
1c0033c0:	00102a08 	add.w	$r8,$r16,$r10
1c0033c4:	2a40306f 	ld.hu	$r15,$r3,12(0xc)
1c0033c8:	640137e8 	bge	$r31,$r8,308(0x134) # 1c0034fc <matrix_test+0x6ec>
1c0033cc:	028029f0 	addi.w	$r16,$r15,10(0xa)
1c0033d0:	29803070 	st.w	$r16,$r3,12(0xc)
1c0033d4:	28403061 	ld.h	$r1,$r3,12(0xc)
1c0033d8:	288051a9 	ld.w	$r9,$r13,20(0x14)
1c0033dc:	00150008 	move	$r8,$r0
1c0033e0:	29803061 	st.w	$r1,$r3,12(0xc)
1c0033e4:	0010250b 	add.w	$r11,$r8,$r9
1c0033e8:	2a40306c 	ld.hu	$r12,$r3,12(0xc)
1c0033ec:	640137eb 	bge	$r31,$r11,308(0x134) # 1c003520 <matrix_test+0x710>
1c0033f0:	02802988 	addi.w	$r8,$r12,10(0xa)
1c0033f4:	29803068 	st.w	$r8,$r3,12(0xc)
1c0033f8:	2840306f 	ld.h	$r15,$r3,12(0xc)
1c0033fc:	288061b0 	ld.w	$r16,$r13,24(0x18)
1c003400:	0015000b 	move	$r11,$r0
1c003404:	2980306f 	st.w	$r15,$r3,12(0xc)
1c003408:	00104168 	add.w	$r8,$r11,$r16
1c00340c:	2a40307c 	ld.hu	$r28,$r3,12(0xc)
1c003410:	640137e8 	bge	$r31,$r8,308(0x134) # 1c003544 <matrix_test+0x734>
1c003414:	02802b89 	addi.w	$r9,$r28,10(0xa)
1c003418:	29803069 	st.w	$r9,$r3,12(0xc)
1c00341c:	2840306c 	ld.h	$r12,$r3,12(0xc)
1c003420:	00150008 	move	$r8,$r0
1c003424:	028071ad 	addi.w	$r13,$r13,28(0x1c)
1c003428:	0015020a 	move	$r10,$r16
1c00342c:	5bfed1ae 	beq	$r13,$r14,-304(0x3fed0) # 1c0032fc <matrix_test+0x4ec>
1c003430:	288001ab 	ld.w	$r11,$r13,0
1c003434:	2980306c 	st.w	$r12,$r3,12(0xc)
1c003438:	2a403070 	ld.hu	$r16,$r3,12(0xc)
1c00343c:	00102d08 	add.w	$r8,$r8,$r11
1c003440:	67fed7e8 	bge	$r31,$r8,-300(0x3fed4) # 1c003314 <matrix_test+0x504>
1c003444:	02802a0f 	addi.w	$r15,$r16,10(0xa)
1c003448:	2980306f 	st.w	$r15,$r3,12(0xc)
1c00344c:	288011bc 	ld.w	$r28,$r13,4(0x4)
1c003450:	28403064 	ld.h	$r4,$r3,12(0xc)
1c003454:	00150008 	move	$r8,$r0
1c003458:	00107110 	add.w	$r16,$r8,$r28
1c00345c:	29803064 	st.w	$r4,$r3,12(0xc)
1c003460:	028011ad 	addi.w	$r13,$r13,4(0x4)
1c003464:	2a403061 	ld.hu	$r1,$r3,12(0xc)
1c003468:	63fed7f0 	blt	$r31,$r16,-300(0x3fed4) # 1c00333c <matrix_test+0x52c>
1c00346c:	00127169 	slt	$r9,$r11,$r28
1c003470:	0010242c 	add.w	$r12,$r1,$r9
1c003474:	2980306c 	st.w	$r12,$r3,12(0xc)
1c003478:	2840306b 	ld.h	$r11,$r3,12(0xc)
1c00347c:	288011af 	ld.w	$r15,$r13,4(0x4)
1c003480:	2980306b 	st.w	$r11,$r3,12(0xc)
1c003484:	00103e08 	add.w	$r8,$r16,$r15
1c003488:	2a403064 	ld.hu	$r4,$r3,12(0xc)
1c00348c:	63fed7e8 	blt	$r31,$r8,-300(0x3fed4) # 1c003360 <matrix_test+0x550>
1c003490:	00123f87 	slt	$r7,$r28,$r15
1c003494:	00101c9c 	add.w	$r28,$r4,$r7
1c003498:	2980307c 	st.w	$r28,$r3,12(0xc)
1c00349c:	28403061 	ld.h	$r1,$r3,12(0xc)
1c0034a0:	288021a9 	ld.w	$r9,$r13,8(0x8)
1c0034a4:	29803061 	st.w	$r1,$r3,12(0xc)
1c0034a8:	0010250b 	add.w	$r11,$r8,$r9
1c0034ac:	2a40306c 	ld.hu	$r12,$r3,12(0xc)
1c0034b0:	63fed7eb 	blt	$r31,$r11,-300(0x3fed4) # 1c003384 <matrix_test+0x574>
1c0034b4:	001225ea 	slt	$r10,$r15,$r9
1c0034b8:	0010298f 	add.w	$r15,$r12,$r10
1c0034bc:	2980306f 	st.w	$r15,$r3,12(0xc)
1c0034c0:	28403068 	ld.h	$r8,$r3,12(0xc)
1c0034c4:	288031bc 	ld.w	$r28,$r13,12(0xc)
1c0034c8:	29803068 	st.w	$r8,$r3,12(0xc)
1c0034cc:	00107170 	add.w	$r16,$r11,$r28
1c0034d0:	2a403061 	ld.hu	$r1,$r3,12(0xc)
1c0034d4:	63fed7f0 	blt	$r31,$r16,-300(0x3fed4) # 1c0033a8 <matrix_test+0x598>
1c0034d8:	00127127 	slt	$r7,$r9,$r28
1c0034dc:	00101c29 	add.w	$r9,$r1,$r7
1c0034e0:	29803069 	st.w	$r9,$r3,12(0xc)
1c0034e4:	2840306c 	ld.h	$r12,$r3,12(0xc)
1c0034e8:	288041aa 	ld.w	$r10,$r13,16(0x10)
1c0034ec:	2980306c 	st.w	$r12,$r3,12(0xc)
1c0034f0:	00102a08 	add.w	$r8,$r16,$r10
1c0034f4:	2a40306f 	ld.hu	$r15,$r3,12(0xc)
1c0034f8:	63fed7e8 	blt	$r31,$r8,-300(0x3fed4) # 1c0033cc <matrix_test+0x5bc>
1c0034fc:	00122b84 	slt	$r4,$r28,$r10
1c003500:	001011fc 	add.w	$r28,$r15,$r4
1c003504:	2980307c 	st.w	$r28,$r3,12(0xc)
1c003508:	28403061 	ld.h	$r1,$r3,12(0xc)
1c00350c:	288051a9 	ld.w	$r9,$r13,20(0x14)
1c003510:	29803061 	st.w	$r1,$r3,12(0xc)
1c003514:	0010250b 	add.w	$r11,$r8,$r9
1c003518:	2a40306c 	ld.hu	$r12,$r3,12(0xc)
1c00351c:	63fed7eb 	blt	$r31,$r11,-300(0x3fed4) # 1c0033f0 <matrix_test+0x5e0>
1c003520:	00122547 	slt	$r7,$r10,$r9
1c003524:	00101d8a 	add.w	$r10,$r12,$r7
1c003528:	2980306a 	st.w	$r10,$r3,12(0xc)
1c00352c:	2840306f 	ld.h	$r15,$r3,12(0xc)
1c003530:	288061b0 	ld.w	$r16,$r13,24(0x18)
1c003534:	2980306f 	st.w	$r15,$r3,12(0xc)
1c003538:	00104168 	add.w	$r8,$r11,$r16
1c00353c:	2a40307c 	ld.hu	$r28,$r3,12(0xc)
1c003540:	63fed7e8 	blt	$r31,$r8,-300(0x3fed4) # 1c003414 <matrix_test+0x604>
1c003544:	00124124 	slt	$r4,$r9,$r16
1c003548:	00101381 	add.w	$r1,$r28,$r4
1c00354c:	29803061 	st.w	$r1,$r3,12(0xc)
1c003550:	2840306c 	ld.h	$r12,$r3,12(0xc)
1c003554:	53fed3ff 	b	-304(0xffffed0) # 1c003424 <matrix_test+0x614>
1c003558:	00124149 	slt	$r9,$r10,$r16
1c00355c:	00102781 	add.w	$r1,$r28,$r9
1c003560:	29803061 	st.w	$r1,$r3,12(0xc)
1c003564:	2840306c 	ld.h	$r12,$r3,12(0xc)
1c003568:	53fd8bff 	b	-632(0xffffd88) # 1c0032f0 <matrix_test+0x4e0>
1c00356c:	03400000 	andi	$r0,$r0,0x0
1c003570:	00122d47 	slt	$r7,$r10,$r11
1c003574:	00101e0f 	add.w	$r15,$r16,$r7
1c003578:	2980306f 	st.w	$r15,$r3,12(0xc)
1c00357c:	2840306c 	ld.h	$r12,$r3,12(0xc)
1c003580:	53fd47ff 	b	-700(0xffffd44) # 1c0032c4 <matrix_test+0x4b4>
1c003584:	00127141 	slt	$r1,$r10,$r28
1c003588:	0010052c 	add.w	$r12,$r9,$r1
1c00358c:	2980306c 	st.w	$r12,$r3,12(0xc)
1c003590:	2840306c 	ld.h	$r12,$r3,12(0xc)
1c003594:	53fd07ff 	b	-764(0xffffd04) # 1c003298 <matrix_test+0x488>
1c003598:	0012414f 	slt	$r15,$r10,$r16
1c00359c:	00103ce4 	add.w	$r4,$r7,$r15
1c0035a0:	29803064 	st.w	$r4,$r3,12(0xc)
1c0035a4:	2840306c 	ld.h	$r12,$r3,12(0xc)
1c0035a8:	53fcc7ff 	b	-828(0xffffcc4) # 1c00326c <matrix_test+0x45c>
1c0035ac:	03400000 	andi	$r0,$r0,0x0
1c0035b0:	0012254c 	slt	$r12,$r10,$r9
1c0035b4:	0010302a 	add.w	$r10,$r1,$r12
1c0035b8:	2980306a 	st.w	$r10,$r3,12(0xc)
1c0035bc:	2840306c 	ld.h	$r12,$r3,12(0xc)
1c0035c0:	53fc83ff 	b	-896(0xffffc80) # 1c003240 <matrix_test+0x430>
1c0035c4:	00121d4f 	slt	$r15,$r10,$r7
1c0035c8:	00103e04 	add.w	$r4,$r16,$r15
1c0035cc:	29803064 	st.w	$r4,$r3,12(0xc)
1c0035d0:	2840306c 	ld.h	$r12,$r3,12(0xc)
1c0035d4:	53fc43ff 	b	-960(0xffffc40) # 1c003214 <matrix_test+0x404>
1c0035d8:	00150184 	move	$r4,$r12
1c0035dc:	00150005 	move	$r5,$r0
1c0035e0:	29807071 	st.w	$r17,$r3,28(0x1c)
1c0035e4:	29806072 	st.w	$r18,$r3,24(0x18)
1c0035e8:	54443800 	bl	17464(0x4438) # 1c007a20 <crc16>
1c0035ec:	2880407c 	ld.w	$r28,$r3,16(0x10)
1c0035f0:	29803064 	st.w	$r4,$r3,12(0xc)
1c0035f4:	00150366 	move	$r6,$r27
1c0035f8:	00150005 	move	$r5,$r0
1c0035fc:	00150384 	move	$r4,$r28
1c003600:	54654000 	bl	25920(0x6540) # 1c009b40 <memset>
1c003604:	2880306f 	ld.w	$r15,$r3,12(0xc)
1c003608:	28806070 	ld.w	$r16,$r3,24(0x18)
1c00360c:	2880706c 	ld.w	$r12,$r3,28(0x1c)
1c003610:	00107746 	add.w	$r6,$r26,$r29
1c003614:	00111b53 	sub.w	$r19,$r26,$r6
1c003618:	02bffa68 	addi.w	$r8,$r19,-2(0xffe)
1c00361c:	00448504 	srli.w	$r4,$r8,0x1
1c003620:	02800481 	addi.w	$r1,$r4,1(0x1)
1c003624:	03401c29 	andi	$r9,$r1,0x7
1c003628:	2880206e 	ld.w	$r14,$r3,8(0x8)
1c00362c:	00150007 	move	$r7,$r0
1c003630:	001500cd 	move	$r13,$r6
1c003634:	5800dd20 	beq	$r9,$r0,220(0xdc) # 1c003710 <matrix_test+0x900>
1c003638:	0280040a 	addi.w	$r10,$r0,1(0x1)
1c00363c:	5800b92a 	beq	$r9,$r10,184(0xb8) # 1c0036f4 <matrix_test+0x8e4>
1c003640:	02800811 	addi.w	$r17,$r0,2(0x2)
1c003644:	58009931 	beq	$r9,$r17,152(0x98) # 1c0036dc <matrix_test+0x8cc>
1c003648:	02800c12 	addi.w	$r18,$r0,3(0x3)
1c00364c:	58007932 	beq	$r9,$r18,120(0x78) # 1c0036c4 <matrix_test+0x8b4>
1c003650:	02801014 	addi.w	$r20,$r0,4(0x4)
1c003654:	58005934 	beq	$r9,$r20,88(0x58) # 1c0036ac <matrix_test+0x89c>
1c003658:	0280140b 	addi.w	$r11,$r0,5(0x5)
1c00365c:	5800392b 	beq	$r9,$r11,56(0x38) # 1c003694 <matrix_test+0x884>
1c003660:	02801805 	addi.w	$r5,$r0,6(0x6)
1c003664:	58001925 	beq	$r9,$r5,24(0x18) # 1c00367c <matrix_test+0x86c>
1c003668:	284001cd 	ld.h	$r13,$r14,0
1c00366c:	284000c7 	ld.h	$r7,$r6,0
1c003670:	028009ce 	addi.w	$r14,$r14,2(0x2)
1c003674:	001c34e7 	mul.w	$r7,$r7,$r13
1c003678:	028008cd 	addi.w	$r13,$r6,2(0x2)
1c00367c:	284001b3 	ld.h	$r19,$r13,0
1c003680:	284001c8 	ld.h	$r8,$r14,0
1c003684:	028009ad 	addi.w	$r13,$r13,2(0x2)
1c003688:	028009ce 	addi.w	$r14,$r14,2(0x2)
1c00368c:	001c2264 	mul.w	$r4,$r19,$r8
1c003690:	001010e7 	add.w	$r7,$r7,$r4
1c003694:	284001a1 	ld.h	$r1,$r13,0
1c003698:	284001c9 	ld.h	$r9,$r14,0
1c00369c:	028009ad 	addi.w	$r13,$r13,2(0x2)
1c0036a0:	028009ce 	addi.w	$r14,$r14,2(0x2)
1c0036a4:	001c242a 	mul.w	$r10,$r1,$r9
1c0036a8:	001028e7 	add.w	$r7,$r7,$r10
1c0036ac:	284001b1 	ld.h	$r17,$r13,0
1c0036b0:	284001d2 	ld.h	$r18,$r14,0
1c0036b4:	028009ad 	addi.w	$r13,$r13,2(0x2)
1c0036b8:	028009ce 	addi.w	$r14,$r14,2(0x2)
1c0036bc:	001c4a34 	mul.w	$r20,$r17,$r18
1c0036c0:	001050e7 	add.w	$r7,$r7,$r20
1c0036c4:	284001ab 	ld.h	$r11,$r13,0
1c0036c8:	284001c5 	ld.h	$r5,$r14,0
1c0036cc:	028009ad 	addi.w	$r13,$r13,2(0x2)
1c0036d0:	028009ce 	addi.w	$r14,$r14,2(0x2)
1c0036d4:	001c1573 	mul.w	$r19,$r11,$r5
1c0036d8:	00104ce7 	add.w	$r7,$r7,$r19
1c0036dc:	284001a8 	ld.h	$r8,$r13,0
1c0036e0:	284001c4 	ld.h	$r4,$r14,0
1c0036e4:	028009ad 	addi.w	$r13,$r13,2(0x2)
1c0036e8:	028009ce 	addi.w	$r14,$r14,2(0x2)
1c0036ec:	001c1101 	mul.w	$r1,$r8,$r4
1c0036f0:	001004e7 	add.w	$r7,$r7,$r1
1c0036f4:	284001a9 	ld.h	$r9,$r13,0
1c0036f8:	284001ca 	ld.h	$r10,$r14,0
1c0036fc:	028009ad 	addi.w	$r13,$r13,2(0x2)
1c003700:	028009ce 	addi.w	$r14,$r14,2(0x2)
1c003704:	001c2931 	mul.w	$r17,$r9,$r10
1c003708:	001044e7 	add.w	$r7,$r7,$r17
1c00370c:	5800934d 	beq	$r26,$r13,144(0x90) # 1c00379c <matrix_test+0x98c>
1c003710:	284001b2 	ld.h	$r18,$r13,0
1c003714:	284001d4 	ld.h	$r20,$r14,0
1c003718:	284009a5 	ld.h	$r5,$r13,2(0x2)
1c00371c:	284009d3 	ld.h	$r19,$r14,2(0x2)
1c003720:	284011ab 	ld.h	$r11,$r13,4(0x4)
1c003724:	001c5251 	mul.w	$r17,$r18,$r20
1c003728:	284011c8 	ld.h	$r8,$r14,4(0x4)
1c00372c:	284019a9 	ld.h	$r9,$r13,6(0x6)
1c003730:	284019c4 	ld.h	$r4,$r14,6(0x6)
1c003734:	284021b4 	ld.h	$r20,$r13,8(0x8)
1c003738:	028041ad 	addi.w	$r13,$r13,16(0x10)
1c00373c:	028041ce 	addi.w	$r14,$r14,16(0x10)
1c003740:	001c4ca1 	mul.w	$r1,$r5,$r19
1c003744:	287fe1c5 	ld.h	$r5,$r14,-8(0xff8)
1c003748:	287fe9d3 	ld.h	$r19,$r14,-6(0xffa)
1c00374c:	001044e7 	add.w	$r7,$r7,$r17
1c003750:	001c2172 	mul.w	$r18,$r11,$r8
1c003754:	287fe9a8 	ld.h	$r8,$r13,-6(0xffa)
1c003758:	001004f1 	add.w	$r17,$r7,$r1
1c00375c:	001c112a 	mul.w	$r10,$r9,$r4
1c003760:	00104a21 	add.w	$r1,$r17,$r18
1c003764:	287ff1a4 	ld.h	$r4,$r13,-4(0xffc)
1c003768:	001c168b 	mul.w	$r11,$r20,$r5
1c00376c:	287ff1d4 	ld.h	$r20,$r14,-4(0xffc)
1c003770:	00102832 	add.w	$r18,$r1,$r10
1c003774:	287ff9aa 	ld.h	$r10,$r13,-2(0xffe)
1c003778:	001c4d09 	mul.w	$r9,$r8,$r19
1c00377c:	287ff9c8 	ld.h	$r8,$r14,-2(0xffe)
1c003780:	00102e4b 	add.w	$r11,$r18,$r11
1c003784:	001c5085 	mul.w	$r5,$r4,$r20
1c003788:	00102573 	add.w	$r19,$r11,$r9
1c00378c:	001c2144 	mul.w	$r4,$r10,$r8
1c003790:	00101669 	add.w	$r9,$r19,$r5
1c003794:	00101127 	add.w	$r7,$r9,$r4
1c003798:	5fff7b4d 	bne	$r26,$r13,-136(0x3ff78) # 1c003710 <matrix_test+0x900>
1c00379c:	29800387 	st.w	$r7,$r28,0
1c0037a0:	0280139c 	addi.w	$r28,$r28,4(0x4)
1c0037a4:	001130da 	sub.w	$r26,$r6,$r12
1c0037a8:	5ffe6a1c 	bne	$r16,$r28,-408(0x3fe68) # 1c003610 <matrix_test+0x800>
1c0037ac:	2880406d 	ld.w	$r13,$r3,16(0x10)
1c0037b0:	00150004 	move	$r4,$r0
1c0037b4:	00150014 	move	$r20,$r0
1c0037b8:	00150013 	move	$r19,$r0
1c0037bc:	0015000e 	move	$r14,$r0
1c0037c0:	288001a8 	ld.w	$r8,$r13,0
1c0037c4:	02bfffda 	addi.w	$r26,$r30,-1(0xfff)
1c0037c8:	29803064 	st.w	$r4,$r3,12(0xc)
1c0037cc:	00102273 	add.w	$r19,$r19,$r8
1c0037d0:	2a40307d 	ld.hu	$r29,$r3,12(0xc)
1c0037d4:	03400f5c 	andi	$r28,$r26,0x3
1c0037d8:	640e0bf3 	bge	$r31,$r19,3592(0xe08) # 1c0045e0 <matrix_test+0x17d0>
1c0037dc:	02802ba6 	addi.w	$r6,$r29,10(0xa)
1c0037e0:	29803066 	st.w	$r6,$r3,12(0xc)
1c0037e4:	28403064 	ld.h	$r4,$r3,12(0xc)
1c0037e8:	00150013 	move	$r19,$r0
1c0037ec:	02800412 	addi.w	$r18,$r0,1(0x1)
1c0037f0:	028011b1 	addi.w	$r17,$r13,4(0x4)
1c0037f4:	0015011d 	move	$r29,$r8
1c0037f8:	6c00a25e 	bgeu	$r18,$r30,160(0xa0) # 1c003898 <matrix_test+0xa88>
1c0037fc:	5809cf80 	beq	$r28,$r0,2508(0x9cc) # 1c0041c8 <matrix_test+0x13b8>
1c003800:	58006b92 	beq	$r28,$r18,104(0x68) # 1c003868 <matrix_test+0xa58>
1c003804:	02800805 	addi.w	$r5,$r0,2(0x2)
1c003808:	58003385 	beq	$r28,$r5,48(0x30) # 1c003838 <matrix_test+0xa28>
1c00380c:	2880023d 	ld.w	$r29,$r17,0
1c003810:	29803064 	st.w	$r4,$r3,12(0xc)
1c003814:	2a403067 	ld.hu	$r7,$r3,12(0xc)
1c003818:	00107673 	add.w	$r19,$r19,$r29
1c00381c:	640ec7f3 	bge	$r31,$r19,3780(0xec4) # 1c0046e0 <matrix_test+0x18d0>
1c003820:	028028ea 	addi.w	$r10,$r7,10(0xa)
1c003824:	2980306a 	st.w	$r10,$r3,12(0xc)
1c003828:	28403064 	ld.h	$r4,$r3,12(0xc)
1c00382c:	00150013 	move	$r19,$r0
1c003830:	02800652 	addi.w	$r18,$r18,1(0x1)
1c003834:	02801231 	addi.w	$r17,$r17,4(0x4)
1c003838:	28800228 	ld.w	$r8,$r17,0
1c00383c:	29803064 	st.w	$r4,$r3,12(0xc)
1c003840:	2a403064 	ld.hu	$r4,$r3,12(0xc)
1c003844:	00102273 	add.w	$r19,$r19,$r8
1c003848:	640e43f3 	bge	$r31,$r19,3648(0xe40) # 1c004688 <matrix_test+0x1878>
1c00384c:	0280289a 	addi.w	$r26,$r4,10(0xa)
1c003850:	2980307a 	st.w	$r26,$r3,12(0xc)
1c003854:	28403064 	ld.h	$r4,$r3,12(0xc)
1c003858:	00150013 	move	$r19,$r0
1c00385c:	02800652 	addi.w	$r18,$r18,1(0x1)
1c003860:	02801231 	addi.w	$r17,$r17,4(0x4)
1c003864:	0015011d 	move	$r29,$r8
1c003868:	28800228 	ld.w	$r8,$r17,0
1c00386c:	29803064 	st.w	$r4,$r3,12(0xc)
1c003870:	2a40307c 	ld.hu	$r28,$r3,12(0xc)
1c003874:	00102273 	add.w	$r19,$r19,$r8
1c003878:	640dd3f3 	bge	$r31,$r19,3536(0xdd0) # 1c004648 <matrix_test+0x1838>
1c00387c:	02802b86 	addi.w	$r6,$r28,10(0xa)
1c003880:	29803066 	st.w	$r6,$r3,12(0xc)
1c003884:	28403064 	ld.h	$r4,$r3,12(0xc)
1c003888:	00150013 	move	$r19,$r0
1c00388c:	02800652 	addi.w	$r18,$r18,1(0x1)
1c003890:	02801231 	addi.w	$r17,$r17,4(0x4)
1c003894:	6809365e 	bltu	$r18,$r30,2356(0x934) # 1c0041c8 <matrix_test+0x13b8>
1c003898:	028005ce 	addi.w	$r14,$r14,1(0x1)
1c00389c:	00106dad 	add.w	$r13,$r13,$r27
1c0038a0:	00150114 	move	$r20,$r8
1c0038a4:	6bff1dde 	bltu	$r14,$r30,-228(0x3ff1c) # 1c0037c0 <matrix_test+0x9b0>
1c0038a8:	001501e5 	move	$r5,$r15
1c0038ac:	54417400 	bl	16756(0x4174) # 1c007a20 <crc16>
1c0038b0:	29806064 	st.w	$r4,$r3,24(0x18)
1c0038b4:	0280101a 	addi.w	$r26,$r0,4(0x4)
1c0038b8:	5c0e97c0 	bne	$r30,$r0,3732(0xe94) # 1c00474c <matrix_test+0x193c>
1c0038bc:	2880507c 	ld.w	$r28,$r3,20(0x14)
1c0038c0:	2880406f 	ld.w	$r15,$r3,16(0x10)
1c0038c4:	0015001d 	move	$r29,$r0
1c0038c8:	00150346 	move	$r6,$r26
1c0038cc:	00150005 	move	$r5,$r0
1c0038d0:	001501e4 	move	$r4,$r15
1c0038d4:	54626c00 	bl	25196(0x626c) # 1c009b40 <memset>
1c0038d8:	28802065 	ld.w	$r5,$r3,8(0x8)
1c0038dc:	00150090 	move	$r16,$r4
1c0038e0:	00150087 	move	$r7,$r4
1c0038e4:	00150006 	move	$r6,$r0
1c0038e8:	28400381 	ld.h	$r1,$r28,0
1c0038ec:	284000aa 	ld.h	$r10,$r5,0
1c0038f0:	02bfffcc 	addi.w	$r12,$r30,-1(0xfff)
1c0038f4:	02800404 	addi.w	$r4,$r0,1(0x1)
1c0038f8:	03401d8b 	andi	$r11,$r12,0x7
1c0038fc:	001c282e 	mul.w	$r14,$r1,$r10
1c003900:	02800b8c 	addi.w	$r12,$r28,2(0x2)
1c003904:	00105cad 	add.w	$r13,$r5,$r23
1c003908:	6c01a89e 	bgeu	$r4,$r30,424(0x1a8) # 1c003ab0 <matrix_test+0xca0>
1c00390c:	5800f960 	beq	$r11,$r0,248(0xf8) # 1c003a04 <matrix_test+0xbf4>
1c003910:	5800d564 	beq	$r11,$r4,212(0xd4) # 1c0039e4 <matrix_test+0xbd4>
1c003914:	02800808 	addi.w	$r8,$r0,2(0x2)
1c003918:	5800b168 	beq	$r11,$r8,176(0xb0) # 1c0039c8 <matrix_test+0xbb8>
1c00391c:	02800c13 	addi.w	$r19,$r0,3(0x3)
1c003920:	58008d73 	beq	$r11,$r19,140(0x8c) # 1c0039ac <matrix_test+0xb9c>
1c003924:	02801009 	addi.w	$r9,$r0,4(0x4)
1c003928:	58006969 	beq	$r11,$r9,104(0x68) # 1c003990 <matrix_test+0xb80>
1c00392c:	02801412 	addi.w	$r18,$r0,5(0x5)
1c003930:	58004572 	beq	$r11,$r18,68(0x44) # 1c003974 <matrix_test+0xb64>
1c003934:	02801811 	addi.w	$r17,$r0,6(0x6)
1c003938:	58002171 	beq	$r11,$r17,32(0x20) # 1c003958 <matrix_test+0xb48>
1c00393c:	28400194 	ld.h	$r20,$r12,0
1c003940:	284001af 	ld.h	$r15,$r13,0
1c003944:	02800804 	addi.w	$r4,$r0,2(0x2)
1c003948:	0280138c 	addi.w	$r12,$r28,4(0x4)
1c00394c:	001c3e81 	mul.w	$r1,$r20,$r15
1c003950:	00105dad 	add.w	$r13,$r13,$r23
1c003954:	001005ce 	add.w	$r14,$r14,$r1
1c003958:	2840018a 	ld.h	$r10,$r12,0
1c00395c:	284001ab 	ld.h	$r11,$r13,0
1c003960:	02800484 	addi.w	$r4,$r4,1(0x1)
1c003964:	0280098c 	addi.w	$r12,$r12,2(0x2)
1c003968:	001c2d48 	mul.w	$r8,$r10,$r11
1c00396c:	00105dad 	add.w	$r13,$r13,$r23
1c003970:	001021ce 	add.w	$r14,$r14,$r8
1c003974:	28400193 	ld.h	$r19,$r12,0
1c003978:	284001a9 	ld.h	$r9,$r13,0
1c00397c:	02800484 	addi.w	$r4,$r4,1(0x1)
1c003980:	0280098c 	addi.w	$r12,$r12,2(0x2)
1c003984:	001c2672 	mul.w	$r18,$r19,$r9
1c003988:	00105dad 	add.w	$r13,$r13,$r23
1c00398c:	001049ce 	add.w	$r14,$r14,$r18
1c003990:	28400191 	ld.h	$r17,$r12,0
1c003994:	284001b4 	ld.h	$r20,$r13,0
1c003998:	02800484 	addi.w	$r4,$r4,1(0x1)
1c00399c:	0280098c 	addi.w	$r12,$r12,2(0x2)
1c0039a0:	001c522f 	mul.w	$r15,$r17,$r20
1c0039a4:	00105dad 	add.w	$r13,$r13,$r23
1c0039a8:	00103dce 	add.w	$r14,$r14,$r15
1c0039ac:	28400181 	ld.h	$r1,$r12,0
1c0039b0:	284001aa 	ld.h	$r10,$r13,0
1c0039b4:	02800484 	addi.w	$r4,$r4,1(0x1)
1c0039b8:	0280098c 	addi.w	$r12,$r12,2(0x2)
1c0039bc:	001c282b 	mul.w	$r11,$r1,$r10
1c0039c0:	00105dad 	add.w	$r13,$r13,$r23
1c0039c4:	00102dce 	add.w	$r14,$r14,$r11
1c0039c8:	28400193 	ld.h	$r19,$r12,0
1c0039cc:	284001a8 	ld.h	$r8,$r13,0
1c0039d0:	02800484 	addi.w	$r4,$r4,1(0x1)
1c0039d4:	0280098c 	addi.w	$r12,$r12,2(0x2)
1c0039d8:	001c2269 	mul.w	$r9,$r19,$r8
1c0039dc:	00105dad 	add.w	$r13,$r13,$r23
1c0039e0:	001025ce 	add.w	$r14,$r14,$r9
1c0039e4:	28400192 	ld.h	$r18,$r12,0
1c0039e8:	284001b1 	ld.h	$r17,$r13,0
1c0039ec:	02800484 	addi.w	$r4,$r4,1(0x1)
1c0039f0:	0280098c 	addi.w	$r12,$r12,2(0x2)
1c0039f4:	001c4654 	mul.w	$r20,$r18,$r17
1c0039f8:	00105dad 	add.w	$r13,$r13,$r23
1c0039fc:	001051ce 	add.w	$r14,$r14,$r20
1c003a00:	6c00b09e 	bgeu	$r4,$r30,176(0xb0) # 1c003ab0 <matrix_test+0xca0>
1c003a04:	00105daf 	add.w	$r15,$r13,$r23
1c003a08:	00105de9 	add.w	$r9,$r15,$r23
1c003a0c:	28400181 	ld.h	$r1,$r12,0
1c003a10:	284001b3 	ld.h	$r19,$r13,0
1c003a14:	2840098b 	ld.h	$r11,$r12,2(0x2)
1c003a18:	284001e8 	ld.h	$r8,$r15,0
1c003a1c:	2840118a 	ld.h	$r10,$r12,4(0x4)
1c003a20:	001c4c32 	mul.w	$r18,$r1,$r19
1c003a24:	28400131 	ld.h	$r17,$r9,0
1c003a28:	00105d34 	add.w	$r20,$r9,$r23
1c003a2c:	2840198f 	ld.h	$r15,$r12,6(0x6)
1c003a30:	00105e81 	add.w	$r1,$r20,$r23
1c003a34:	02802084 	addi.w	$r4,$r4,8(0x8)
1c003a38:	0280418c 	addi.w	$r12,$r12,16(0x10)
1c003a3c:	001c216d 	mul.w	$r13,$r11,$r8
1c003a40:	2840028b 	ld.h	$r11,$r20,0
1c003a44:	28400034 	ld.h	$r20,$r1,0
1c003a48:	001049ce 	add.w	$r14,$r14,$r18
1c003a4c:	00105c28 	add.w	$r8,$r1,$r23
1c003a50:	00105d01 	add.w	$r1,$r8,$r23
1c003a54:	001c4553 	mul.w	$r19,$r10,$r17
1c003a58:	287fe18a 	ld.h	$r10,$r12,-8(0xff8)
1c003a5c:	001035d2 	add.w	$r18,$r14,$r13
1c003a60:	001c2de9 	mul.w	$r9,$r15,$r11
1c003a64:	00104e4d 	add.w	$r13,$r18,$r19
1c003a68:	2840010b 	ld.h	$r11,$r8,0
1c003a6c:	287fe993 	ld.h	$r19,$r12,-6(0xffa)
1c003a70:	28400028 	ld.h	$r8,$r1,0
1c003a74:	001c5151 	mul.w	$r17,$r10,$r20
1c003a78:	001025af 	add.w	$r15,$r13,$r9
1c003a7c:	00105c34 	add.w	$r20,$r1,$r23
1c003a80:	287ff18a 	ld.h	$r10,$r12,-4(0xffc)
1c003a84:	2840028e 	ld.h	$r14,$r20,0
1c003a88:	00105e8d 	add.w	$r13,$r20,$r23
1c003a8c:	001045f1 	add.w	$r17,$r15,$r17
1c003a90:	001c2e69 	mul.w	$r9,$r19,$r11
1c003a94:	287ff98f 	ld.h	$r15,$r12,-2(0xffe)
1c003a98:	001c2152 	mul.w	$r18,$r10,$r8
1c003a9c:	00102621 	add.w	$r1,$r17,$r9
1c003aa0:	001c39f3 	mul.w	$r19,$r15,$r14
1c003aa4:	0010482b 	add.w	$r11,$r1,$r18
1c003aa8:	00104d6e 	add.w	$r14,$r11,$r19
1c003aac:	6bff589e 	bltu	$r4,$r30,-168(0x3ff58) # 1c003a04 <matrix_test+0xbf4>
1c003ab0:	298000ee 	st.w	$r14,$r7,0
1c003ab4:	028004c6 	addi.w	$r6,$r6,1(0x1)
1c003ab8:	028010e7 	addi.w	$r7,$r7,4(0x4)
1c003abc:	028008a5 	addi.w	$r5,$r5,2(0x2)
1c003ac0:	6bfe28de 	bltu	$r6,$r30,-472(0x3fe28) # 1c0038e8 <matrix_test+0xad8>
1c003ac4:	028007bd 	addi.w	$r29,$r29,1(0x1)
1c003ac8:	00106e0f 	add.w	$r15,$r16,$r27
1c003acc:	00105f9c 	add.w	$r28,$r28,$r23
1c003ad0:	6bfdfbbe 	bltu	$r29,$r30,-520(0x3fdf8) # 1c0038c8 <matrix_test+0xab8>
1c003ad4:	2880406e 	ld.w	$r14,$r3,16(0x10)
1c003ad8:	00150004 	move	$r4,$r0
1c003adc:	00150006 	move	$r6,$r0
1c003ae0:	00150012 	move	$r18,$r0
1c003ae4:	00150011 	move	$r17,$r0
1c003ae8:	288001d4 	ld.w	$r20,$r14,0
1c003aec:	02bfffdc 	addi.w	$r28,$r30,-1(0xfff)
1c003af0:	29803064 	st.w	$r4,$r3,12(0xc)
1c003af4:	00105252 	add.w	$r18,$r18,$r20
1c003af8:	2a40307d 	ld.hu	$r29,$r3,12(0xc)
1c003afc:	03401f90 	andi	$r16,$r28,0x7
1c003b00:	640b0bf2 	bge	$r31,$r18,2824(0xb08) # 1c004608 <matrix_test+0x17f8>
1c003b04:	02802ba6 	addi.w	$r6,$r29,10(0xa)
1c003b08:	29803066 	st.w	$r6,$r3,12(0xc)
1c003b0c:	28403064 	ld.h	$r4,$r3,12(0xc)
1c003b10:	00150012 	move	$r18,$r0
1c003b14:	0280040d 	addi.w	$r13,$r0,1(0x1)
1c003b18:	028011c5 	addi.w	$r5,$r14,4(0x4)
1c003b1c:	00150293 	move	$r19,$r20
1c003b20:	6c0181be 	bgeu	$r13,$r30,384(0x180) # 1c003ca0 <matrix_test+0xe90>
1c003b24:	58086200 	beq	$r16,$r0,2144(0x860) # 1c004384 <matrix_test+0x1574>
1c003b28:	58014a0d 	beq	$r16,$r13,328(0x148) # 1c003c70 <matrix_test+0xe60>
1c003b2c:	0280080c 	addi.w	$r12,$r0,2(0x2)
1c003b30:	5801120c 	beq	$r16,$r12,272(0x110) # 1c003c40 <matrix_test+0xe30>
1c003b34:	02800c0a 	addi.w	$r10,$r0,3(0x3)
1c003b38:	5800da0a 	beq	$r16,$r10,216(0xd8) # 1c003c10 <matrix_test+0xe00>
1c003b3c:	02801008 	addi.w	$r8,$r0,4(0x4)
1c003b40:	5800a208 	beq	$r16,$r8,160(0xa0) # 1c003be0 <matrix_test+0xdd0>
1c003b44:	02801409 	addi.w	$r9,$r0,5(0x5)
1c003b48:	58006a09 	beq	$r16,$r9,104(0x68) # 1c003bb0 <matrix_test+0xda0>
1c003b4c:	0280180f 	addi.w	$r15,$r0,6(0x6)
1c003b50:	5800320f 	beq	$r16,$r15,48(0x30) # 1c003b80 <matrix_test+0xd70>
1c003b54:	288000b3 	ld.w	$r19,$r5,0
1c003b58:	29803064 	st.w	$r4,$r3,12(0xc)
1c003b5c:	2a403064 	ld.hu	$r4,$r3,12(0xc)
1c003b60:	00104e52 	add.w	$r18,$r18,$r19
1c003b64:	640bcff2 	bge	$r31,$r18,3020(0xbcc) # 1c004730 <matrix_test+0x1920>
1c003b68:	02802892 	addi.w	$r18,$r4,10(0xa)
1c003b6c:	29803072 	st.w	$r18,$r3,12(0xc)
1c003b70:	28403064 	ld.h	$r4,$r3,12(0xc)
1c003b74:	00150012 	move	$r18,$r0
1c003b78:	028005ad 	addi.w	$r13,$r13,1(0x1)
1c003b7c:	028010a5 	addi.w	$r5,$r5,4(0x4)
1c003b80:	288000ab 	ld.w	$r11,$r5,0
1c003b84:	29803064 	st.w	$r4,$r3,12(0xc)
1c003b88:	2a40307c 	ld.hu	$r28,$r3,12(0xc)
1c003b8c:	00102e52 	add.w	$r18,$r18,$r11
1c003b90:	640b67f2 	bge	$r31,$r18,2916(0xb64) # 1c0046f4 <matrix_test+0x18e4>
1c003b94:	02802b90 	addi.w	$r16,$r28,10(0xa)
1c003b98:	29803070 	st.w	$r16,$r3,12(0xc)
1c003b9c:	28403064 	ld.h	$r4,$r3,12(0xc)
1c003ba0:	00150012 	move	$r18,$r0
1c003ba4:	028005ad 	addi.w	$r13,$r13,1(0x1)
1c003ba8:	028010a5 	addi.w	$r5,$r5,4(0x4)
1c003bac:	00150173 	move	$r19,$r11
1c003bb0:	288000a7 	ld.w	$r7,$r5,0
1c003bb4:	29803064 	st.w	$r4,$r3,12(0xc)
1c003bb8:	2a403066 	ld.hu	$r6,$r3,12(0xc)
1c003bbc:	00101e52 	add.w	$r18,$r18,$r7
1c003bc0:	640b0bf2 	bge	$r31,$r18,2824(0xb08) # 1c0046c8 <matrix_test+0x18b8>
1c003bc4:	028028c8 	addi.w	$r8,$r6,10(0xa)
1c003bc8:	29803068 	st.w	$r8,$r3,12(0xc)
1c003bcc:	28403064 	ld.h	$r4,$r3,12(0xc)
1c003bd0:	00150012 	move	$r18,$r0
1c003bd4:	028005ad 	addi.w	$r13,$r13,1(0x1)
1c003bd8:	028010a5 	addi.w	$r5,$r5,4(0x4)
1c003bdc:	001500f3 	move	$r19,$r7
1c003be0:	288000a9 	ld.w	$r9,$r5,0
1c003be4:	29803064 	st.w	$r4,$r3,12(0xc)
1c003be8:	2a40306f 	ld.hu	$r15,$r3,12(0xc)
1c003bec:	00102652 	add.w	$r18,$r18,$r9
1c003bf0:	640ac7f2 	bge	$r31,$r18,2756(0xac4) # 1c0046b4 <matrix_test+0x18a4>
1c003bf4:	028029e1 	addi.w	$r1,$r15,10(0xa)
1c003bf8:	29803061 	st.w	$r1,$r3,12(0xc)
1c003bfc:	28403064 	ld.h	$r4,$r3,12(0xc)
1c003c00:	00150012 	move	$r18,$r0
1c003c04:	028005ad 	addi.w	$r13,$r13,1(0x1)
1c003c08:	028010a5 	addi.w	$r5,$r5,4(0x4)
1c003c0c:	00150133 	move	$r19,$r9
1c003c10:	288000ab 	ld.w	$r11,$r5,0
1c003c14:	29803064 	st.w	$r4,$r3,12(0xc)
1c003c18:	2a40307c 	ld.hu	$r28,$r3,12(0xc)
1c003c1c:	00102e52 	add.w	$r18,$r18,$r11
1c003c20:	640a57f2 	bge	$r31,$r18,2644(0xa54) # 1c004674 <matrix_test+0x1864>
1c003c24:	02802b90 	addi.w	$r16,$r28,10(0xa)
1c003c28:	29803070 	st.w	$r16,$r3,12(0xc)
1c003c2c:	28403064 	ld.h	$r4,$r3,12(0xc)
1c003c30:	00150012 	move	$r18,$r0
1c003c34:	028005ad 	addi.w	$r13,$r13,1(0x1)
1c003c38:	028010a5 	addi.w	$r5,$r5,4(0x4)
1c003c3c:	00150173 	move	$r19,$r11
1c003c40:	288000a7 	ld.w	$r7,$r5,0
1c003c44:	29803064 	st.w	$r4,$r3,12(0xc)
1c003c48:	2a403066 	ld.hu	$r6,$r3,12(0xc)
1c003c4c:	00101e52 	add.w	$r18,$r18,$r7
1c003c50:	6409e7f2 	bge	$r31,$r18,2532(0x9e4) # 1c004634 <matrix_test+0x1824>
1c003c54:	028028c8 	addi.w	$r8,$r6,10(0xa)
1c003c58:	29803068 	st.w	$r8,$r3,12(0xc)
1c003c5c:	28403064 	ld.h	$r4,$r3,12(0xc)
1c003c60:	00150012 	move	$r18,$r0
1c003c64:	028005ad 	addi.w	$r13,$r13,1(0x1)
1c003c68:	028010a5 	addi.w	$r5,$r5,4(0x4)
1c003c6c:	001500f3 	move	$r19,$r7
1c003c70:	288000b4 	ld.w	$r20,$r5,0
1c003c74:	29803064 	st.w	$r4,$r3,12(0xc)
1c003c78:	2a403069 	ld.hu	$r9,$r3,12(0xc)
1c003c7c:	00105252 	add.w	$r18,$r18,$r20
1c003c80:	6409a3f2 	bge	$r31,$r18,2464(0x9a0) # 1c004620 <matrix_test+0x1810>
1c003c84:	02802921 	addi.w	$r1,$r9,10(0xa)
1c003c88:	29803061 	st.w	$r1,$r3,12(0xc)
1c003c8c:	28403064 	ld.h	$r4,$r3,12(0xc)
1c003c90:	00150012 	move	$r18,$r0
1c003c94:	028005ad 	addi.w	$r13,$r13,1(0x1)
1c003c98:	028010a5 	addi.w	$r5,$r5,4(0x4)
1c003c9c:	6806e9be 	bltu	$r13,$r30,1768(0x6e8) # 1c004384 <matrix_test+0x1574>
1c003ca0:	02800631 	addi.w	$r17,$r17,1(0x1)
1c003ca4:	00106dce 	add.w	$r14,$r14,$r27
1c003ca8:	00150286 	move	$r6,$r20
1c003cac:	6bfe3e3e 	bltu	$r17,$r30,-452(0x3fe3c) # 1c003ae8 <matrix_test+0xcd8>
1c003cb0:	28806065 	ld.w	$r5,$r3,24(0x18)
1c003cb4:	2880507d 	ld.w	$r29,$r3,20(0x14)
1c003cb8:	2880407c 	ld.w	$r28,$r3,16(0x10)
1c003cbc:	543d6400 	bl	15716(0x3d64) # 1c007a20 <crc16>
1c003cc0:	29804064 	st.w	$r4,$r3,16(0x10)
1c003cc4:	0015000c 	move	$r12,$r0
1c003cc8:	00150346 	move	$r6,$r26
1c003ccc:	00150005 	move	$r5,$r0
1c003cd0:	00150384 	move	$r4,$r28
1c003cd4:	2980306c 	st.w	$r12,$r3,12(0xc)
1c003cd8:	545e6800 	bl	24168(0x5e68) # 1c009b40 <memset>
1c003cdc:	2880206f 	ld.w	$r15,$r3,8(0x8)
1c003ce0:	28803074 	ld.w	$r20,$r3,12(0xc)
1c003ce4:	0015038b 	move	$r11,$r28
1c003ce8:	00150004 	move	$r4,$r0
1c003cec:	03400000 	andi	$r0,$r0,0x0
1c003cf0:	284003aa 	ld.h	$r10,$r29,0
1c003cf4:	284001e8 	ld.h	$r8,$r15,0
1c003cf8:	02bfffc9 	addi.w	$r9,$r30,-1(0xfff)
1c003cfc:	02800413 	addi.w	$r19,$r0,1(0x1)
1c003d00:	001c2152 	mul.w	$r18,$r10,$r8
1c003d04:	03400d21 	andi	$r1,$r9,0x3
1c003d08:	02800bb1 	addi.w	$r17,$r29,2(0x2)
1c003d0c:	00105dec 	add.w	$r12,$r15,$r23
1c003d10:	00488a50 	srai.w	$r16,$r18,0x2
1c003d14:	00489647 	srai.w	$r7,$r18,0x5
1c003d18:	03403e05 	andi	$r5,$r16,0xf
1c003d1c:	0341fced 	andi	$r13,$r7,0x7f
1c003d20:	001c34ad 	mul.w	$r13,$r5,$r13
1c003d24:	6c01567e 	bgeu	$r19,$r30,340(0x154) # 1c003e78 <matrix_test+0x1068>
1c003d28:	5800a420 	beq	$r1,$r0,164(0xa4) # 1c003dcc <matrix_test+0xfbc>
1c003d2c:	58006c33 	beq	$r1,$r19,108(0x6c) # 1c003d98 <matrix_test+0xf88>
1c003d30:	0280080e 	addi.w	$r14,$r0,2(0x2)
1c003d34:	5800342e 	beq	$r1,$r14,52(0x34) # 1c003d68 <matrix_test+0xf58>
1c003d38:	2840022a 	ld.h	$r10,$r17,0
1c003d3c:	28400186 	ld.h	$r6,$r12,0
1c003d40:	02800813 	addi.w	$r19,$r0,2(0x2)
1c003d44:	028013b1 	addi.w	$r17,$r29,4(0x4)
1c003d48:	00105d8c 	add.w	$r12,$r12,$r23
1c003d4c:	001c1948 	mul.w	$r8,$r10,$r6
1c003d50:	00488909 	srai.w	$r9,$r8,0x2
1c003d54:	00489501 	srai.w	$r1,$r8,0x5
1c003d58:	03403d32 	andi	$r18,$r9,0xf
1c003d5c:	0341fc30 	andi	$r16,$r1,0x7f
1c003d60:	001c4247 	mul.w	$r7,$r18,$r16
1c003d64:	00101dad 	add.w	$r13,$r13,$r7
1c003d68:	28400225 	ld.h	$r5,$r17,0
1c003d6c:	2840018e 	ld.h	$r14,$r12,0
1c003d70:	02800673 	addi.w	$r19,$r19,1(0x1)
1c003d74:	02800a31 	addi.w	$r17,$r17,2(0x2)
1c003d78:	001c38aa 	mul.w	$r10,$r5,$r14
1c003d7c:	00105d8c 	add.w	$r12,$r12,$r23
1c003d80:	00488946 	srai.w	$r6,$r10,0x2
1c003d84:	00489548 	srai.w	$r8,$r10,0x5
1c003d88:	03403cc9 	andi	$r9,$r6,0xf
1c003d8c:	0341fd01 	andi	$r1,$r8,0x7f
1c003d90:	001c0532 	mul.w	$r18,$r9,$r1
1c003d94:	001049ad 	add.w	$r13,$r13,$r18
1c003d98:	28400230 	ld.h	$r16,$r17,0
1c003d9c:	28400187 	ld.h	$r7,$r12,0
1c003da0:	02800673 	addi.w	$r19,$r19,1(0x1)
1c003da4:	02800a31 	addi.w	$r17,$r17,2(0x2)
1c003da8:	001c1e05 	mul.w	$r5,$r16,$r7
1c003dac:	00105d8c 	add.w	$r12,$r12,$r23
1c003db0:	004888aa 	srai.w	$r10,$r5,0x2
1c003db4:	004894ae 	srai.w	$r14,$r5,0x5
1c003db8:	03403d46 	andi	$r6,$r10,0xf
1c003dbc:	0341fdc8 	andi	$r8,$r14,0x7f
1c003dc0:	001c20c9 	mul.w	$r9,$r6,$r8
1c003dc4:	001025ad 	add.w	$r13,$r13,$r9
1c003dc8:	6c00b27e 	bgeu	$r19,$r30,176(0xb0) # 1c003e78 <matrix_test+0x1068>
1c003dcc:	00105d81 	add.w	$r1,$r12,$r23
1c003dd0:	28400232 	ld.h	$r18,$r17,0
1c003dd4:	28400190 	ld.h	$r16,$r12,0
1c003dd8:	28400a25 	ld.h	$r5,$r17,2(0x2)
1c003ddc:	00105c2c 	add.w	$r12,$r1,$r23
1c003de0:	28400026 	ld.h	$r6,$r1,0
1c003de4:	001c424e 	mul.w	$r14,$r18,$r16
1c003de8:	2840122a 	ld.h	$r10,$r17,4(0x4)
1c003dec:	28400187 	ld.h	$r7,$r12,0
1c003df0:	00105d81 	add.w	$r1,$r12,$r23
1c003df4:	28401a29 	ld.h	$r9,$r17,6(0x6)
1c003df8:	28400032 	ld.h	$r18,$r1,0
1c003dfc:	00105c2c 	add.w	$r12,$r1,$r23
1c003e00:	02801273 	addi.w	$r19,$r19,4(0x4)
1c003e04:	02802231 	addi.w	$r17,$r17,8(0x8)
1c003e08:	001c18a8 	mul.w	$r8,$r5,$r6
1c003e0c:	004889c6 	srai.w	$r6,$r14,0x2
1c003e10:	001c1d50 	mul.w	$r16,$r10,$r7
1c003e14:	004895c7 	srai.w	$r7,$r14,0x5
1c003e18:	03403cca 	andi	$r10,$r6,0xf
1c003e1c:	0341fce1 	andi	$r1,$r7,0x7f
1c003e20:	001c4925 	mul.w	$r5,$r9,$r18
1c003e24:	00488909 	srai.w	$r9,$r8,0x2
1c003e28:	00489508 	srai.w	$r8,$r8,0x5
1c003e2c:	03403d32 	andi	$r18,$r9,0xf
1c003e30:	0341fd06 	andi	$r6,$r8,0x7f
1c003e34:	001c054e 	mul.w	$r14,$r10,$r1
1c003e38:	00488a0a 	srai.w	$r10,$r16,0x2
1c003e3c:	00489610 	srai.w	$r16,$r16,0x5
1c003e40:	03403d48 	andi	$r8,$r10,0xf
1c003e44:	0341fe07 	andi	$r7,$r16,0x7f
1c003e48:	004888a9 	srai.w	$r9,$r5,0x2
1c003e4c:	004894a5 	srai.w	$r5,$r5,0x5
1c003e50:	03403d2a 	andi	$r10,$r9,0xf
1c003e54:	001c1a41 	mul.w	$r1,$r18,$r6
1c003e58:	0341fca6 	andi	$r6,$r5,0x7f
1c003e5c:	001039ad 	add.w	$r13,$r13,$r14
1c003e60:	001c1d12 	mul.w	$r18,$r8,$r7
1c003e64:	001005ae 	add.w	$r14,$r13,$r1
1c003e68:	001c1950 	mul.w	$r16,$r10,$r6
1c003e6c:	001049c1 	add.w	$r1,$r14,$r18
1c003e70:	0010402d 	add.w	$r13,$r1,$r16
1c003e74:	6bff5a7e 	bltu	$r19,$r30,-168(0x3ff58) # 1c003dcc <matrix_test+0xfbc>
1c003e78:	2980016d 	st.w	$r13,$r11,0
1c003e7c:	02800484 	addi.w	$r4,$r4,1(0x1)
1c003e80:	0280116b 	addi.w	$r11,$r11,4(0x4)
1c003e84:	028009ef 	addi.w	$r15,$r15,2(0x2)
1c003e88:	6bfe689e 	bltu	$r4,$r30,-408(0x3fe68) # 1c003cf0 <matrix_test+0xee0>
1c003e8c:	0280068c 	addi.w	$r12,$r20,1(0x1)
1c003e90:	00106f9c 	add.w	$r28,$r28,$r27
1c003e94:	00105fbd 	add.w	$r29,$r29,$r23
1c003e98:	6bfe319e 	bltu	$r12,$r30,-464(0x3fe30) # 1c003cc8 <matrix_test+0xeb8>
1c003e9c:	00150004 	move	$r4,$r0
1c003ea0:	00150011 	move	$r17,$r0
1c003ea4:	0015000e 	move	$r14,$r0
1c003ea8:	0015000c 	move	$r12,$r0
1c003eac:	03400000 	andi	$r0,$r0,0x0
1c003eb0:	28800309 	ld.w	$r9,$r24,0
1c003eb4:	02bfffda 	addi.w	$r26,$r30,-1(0xfff)
1c003eb8:	29802064 	st.w	$r4,$r3,8(0x8)
1c003ebc:	001025ce 	add.w	$r14,$r14,$r9
1c003ec0:	2a40207d 	ld.hu	$r29,$r3,8(0x8)
1c003ec4:	03400f5c 	andi	$r28,$r26,0x3
1c003ec8:	64072fee 	bge	$r31,$r14,1836(0x72c) # 1c0045f4 <matrix_test+0x17e4>
1c003ecc:	02802ba4 	addi.w	$r4,$r29,10(0xa)
1c003ed0:	29802064 	st.w	$r4,$r3,8(0x8)
1c003ed4:	28402064 	ld.h	$r4,$r3,8(0x8)
1c003ed8:	0015000e 	move	$r14,$r0
1c003edc:	02800413 	addi.w	$r19,$r0,1(0x1)
1c003ee0:	02801312 	addi.w	$r18,$r24,4(0x4)
1c003ee4:	0015012d 	move	$r13,$r9
1c003ee8:	6c00a27e 	bgeu	$r19,$r30,160(0xa0) # 1c003f88 <matrix_test+0x1178>
1c003eec:	58065780 	beq	$r28,$r0,1620(0x654) # 1c004540 <matrix_test+0x1730>
1c003ef0:	58006b93 	beq	$r28,$r19,104(0x68) # 1c003f58 <matrix_test+0x1148>
1c003ef4:	02800808 	addi.w	$r8,$r0,2(0x2)
1c003ef8:	58003388 	beq	$r28,$r8,48(0x30) # 1c003f28 <matrix_test+0x1118>
1c003efc:	2880024d 	ld.w	$r13,$r18,0
1c003f00:	29802064 	st.w	$r4,$r3,8(0x8)
1c003f04:	2a402067 	ld.hu	$r7,$r3,8(0x8)
1c003f08:	001035ce 	add.w	$r14,$r14,$r13
1c003f0c:	6407ffee 	bge	$r31,$r14,2044(0x7fc) # 1c004708 <matrix_test+0x18f8>
1c003f10:	028028e5 	addi.w	$r5,$r7,10(0xa)
1c003f14:	29802065 	st.w	$r5,$r3,8(0x8)
1c003f18:	28402064 	ld.h	$r4,$r3,8(0x8)
1c003f1c:	0015000e 	move	$r14,$r0
1c003f20:	02800673 	addi.w	$r19,$r19,1(0x1)
1c003f24:	02801252 	addi.w	$r18,$r18,4(0x4)
1c003f28:	2880024a 	ld.w	$r10,$r18,0
1c003f2c:	29802064 	st.w	$r4,$r3,8(0x8)
1c003f30:	2a402066 	ld.hu	$r6,$r3,8(0x8)
1c003f34:	001029ce 	add.w	$r14,$r14,$r10
1c003f38:	64076bee 	bge	$r31,$r14,1896(0x768) # 1c0046a0 <matrix_test+0x1890>
1c003f3c:	028028cd 	addi.w	$r13,$r6,10(0xa)
1c003f40:	2980206d 	st.w	$r13,$r3,8(0x8)
1c003f44:	28402064 	ld.h	$r4,$r3,8(0x8)
1c003f48:	0015000e 	move	$r14,$r0
1c003f4c:	02800673 	addi.w	$r19,$r19,1(0x1)
1c003f50:	02801252 	addi.w	$r18,$r18,4(0x4)
1c003f54:	0015014d 	move	$r13,$r10
1c003f58:	28800249 	ld.w	$r9,$r18,0
1c003f5c:	29802064 	st.w	$r4,$r3,8(0x8)
1c003f60:	2a402061 	ld.hu	$r1,$r3,8(0x8)
1c003f64:	001025ce 	add.w	$r14,$r14,$r9
1c003f68:	6406fbee 	bge	$r31,$r14,1784(0x6f8) # 1c004660 <matrix_test+0x1850>
1c003f6c:	0280283c 	addi.w	$r28,$r1,10(0xa)
1c003f70:	2980207c 	st.w	$r28,$r3,8(0x8)
1c003f74:	28402064 	ld.h	$r4,$r3,8(0x8)
1c003f78:	0015000e 	move	$r14,$r0
1c003f7c:	02800673 	addi.w	$r19,$r19,1(0x1)
1c003f80:	02801252 	addi.w	$r18,$r18,4(0x4)
1c003f84:	6805be7e 	bltu	$r19,$r30,1468(0x5bc) # 1c004540 <matrix_test+0x1730>
1c003f88:	0280058c 	addi.w	$r12,$r12,1(0x1)
1c003f8c:	00106f18 	add.w	$r24,$r24,$r27
1c003f90:	00150131 	move	$r17,$r9
1c003f94:	6bff1d9e 	bltu	$r12,$r30,-228(0x3ff1c) # 1c003eb0 <matrix_test+0x10a0>
1c003f98:	28804065 	ld.w	$r5,$r3,16(0x10)
1c003f9c:	00150018 	move	$r24,$r0
1c003fa0:	543a8000 	bl	14976(0x3a80) # 1c007a20 <crc16>
1c003fa4:	29802064 	st.w	$r4,$r3,8(0x8)
1c003fa8:	2a40033b 	ld.hu	$r27,$r25,0
1c003fac:	02bfffdf 	addi.w	$r31,$r30,-1(0xfff)
1c003fb0:	0280040f 	addi.w	$r15,$r0,1(0x1)
1c003fb4:	00115b6a 	sub.w	$r10,$r27,$r22
1c003fb8:	2940032a 	st.h	$r10,$r25,0
1c003fbc:	02800b2e 	addi.w	$r14,$r25,2(0x2)
1c003fc0:	03401fe5 	andi	$r5,$r31,0x7
1c003fc4:	6c0131fe 	bgeu	$r15,$r30,304(0x130) # 1c0040f4 <matrix_test+0x12e4>
1c003fc8:	5800c0a0 	beq	$r5,$r0,192(0xc0) # 1c004088 <matrix_test+0x1278>
1c003fcc:	5800a4af 	beq	$r5,$r15,164(0xa4) # 1c004070 <matrix_test+0x1260>
1c003fd0:	02800806 	addi.w	$r6,$r0,2(0x2)
1c003fd4:	580088a6 	beq	$r5,$r6,136(0x88) # 1c00405c <matrix_test+0x124c>
1c003fd8:	02800c14 	addi.w	$r20,$r0,3(0x3)
1c003fdc:	58006cb4 	beq	$r5,$r20,108(0x6c) # 1c004048 <matrix_test+0x1238>
1c003fe0:	02801010 	addi.w	$r16,$r0,4(0x4)
1c003fe4:	580050b0 	beq	$r5,$r16,80(0x50) # 1c004034 <matrix_test+0x1224>
1c003fe8:	0280140d 	addi.w	$r13,$r0,5(0x5)
1c003fec:	580034ad 	beq	$r5,$r13,52(0x34) # 1c004020 <matrix_test+0x1210>
1c003ff0:	02801801 	addi.w	$r1,$r0,6(0x6)
1c003ff4:	580018a1 	beq	$r5,$r1,24(0x18) # 1c00400c <matrix_test+0x11fc>
1c003ff8:	2a4001da 	ld.hu	$r26,$r14,0
1c003ffc:	0280080f 	addi.w	$r15,$r0,2(0x2)
1c004000:	00115b5d 	sub.w	$r29,$r26,$r22
1c004004:	294001dd 	st.h	$r29,$r14,0
1c004008:	0280132e 	addi.w	$r14,$r25,4(0x4)
1c00400c:	2a4001dc 	ld.hu	$r28,$r14,0
1c004010:	028005ef 	addi.w	$r15,$r15,1(0x1)
1c004014:	028009ce 	addi.w	$r14,$r14,2(0x2)
1c004018:	00115b8b 	sub.w	$r11,$r28,$r22
1c00401c:	297ff9cb 	st.h	$r11,$r14,-2(0xffe)
1c004020:	2a4001c4 	ld.hu	$r4,$r14,0
1c004024:	028005ef 	addi.w	$r15,$r15,1(0x1)
1c004028:	028009ce 	addi.w	$r14,$r14,2(0x2)
1c00402c:	00115889 	sub.w	$r9,$r4,$r22
1c004030:	297ff9c9 	st.h	$r9,$r14,-2(0xffe)
1c004034:	2a4001c8 	ld.hu	$r8,$r14,0
1c004038:	028005ef 	addi.w	$r15,$r15,1(0x1)
1c00403c:	028009ce 	addi.w	$r14,$r14,2(0x2)
1c004040:	00115907 	sub.w	$r7,$r8,$r22
1c004044:	297ff9c7 	st.h	$r7,$r14,-2(0xffe)
1c004048:	2a4001d3 	ld.hu	$r19,$r14,0
1c00404c:	028005ef 	addi.w	$r15,$r15,1(0x1)
1c004050:	028009ce 	addi.w	$r14,$r14,2(0x2)
1c004054:	00115a72 	sub.w	$r18,$r19,$r22
1c004058:	297ff9d2 	st.h	$r18,$r14,-2(0xffe)
1c00405c:	2a4001cc 	ld.hu	$r12,$r14,0
1c004060:	028005ef 	addi.w	$r15,$r15,1(0x1)
1c004064:	028009ce 	addi.w	$r14,$r14,2(0x2)
1c004068:	00115991 	sub.w	$r17,$r12,$r22
1c00406c:	297ff9d1 	st.h	$r17,$r14,-2(0xffe)
1c004070:	2a4001db 	ld.hu	$r27,$r14,0
1c004074:	028009ce 	addi.w	$r14,$r14,2(0x2)
1c004078:	028005ef 	addi.w	$r15,$r15,1(0x1)
1c00407c:	00115b7f 	sub.w	$r31,$r27,$r22
1c004080:	297ff9df 	st.h	$r31,$r14,-2(0xffe)
1c004084:	6c0071fe 	bgeu	$r15,$r30,112(0x70) # 1c0040f4 <matrix_test+0x12e4>
1c004088:	2a4001c5 	ld.hu	$r5,$r14,0
1c00408c:	2a4009ca 	ld.hu	$r10,$r14,2(0x2)
1c004090:	2a4011c6 	ld.hu	$r6,$r14,4(0x4)
1c004094:	2a4019d0 	ld.hu	$r16,$r14,6(0x6)
1c004098:	2a4021c1 	ld.hu	$r1,$r14,8(0x8)
1c00409c:	2a4029da 	ld.hu	$r26,$r14,10(0xa)
1c0040a0:	2a4031cd 	ld.hu	$r13,$r14,12(0xc)
1c0040a4:	2a4039dd 	ld.hu	$r29,$r14,14(0xe)
1c0040a8:	001158bc 	sub.w	$r28,$r5,$r22
1c0040ac:	028041ce 	addi.w	$r14,$r14,16(0x10)
1c0040b0:	0011594b 	sub.w	$r11,$r10,$r22
1c0040b4:	001158d4 	sub.w	$r20,$r6,$r22
1c0040b8:	00115a04 	sub.w	$r4,$r16,$r22
1c0040bc:	00115829 	sub.w	$r9,$r1,$r22
1c0040c0:	00115b48 	sub.w	$r8,$r26,$r22
1c0040c4:	001159a7 	sub.w	$r7,$r13,$r22
1c0040c8:	00115bb3 	sub.w	$r19,$r29,$r22
1c0040cc:	028021ef 	addi.w	$r15,$r15,8(0x8)
1c0040d0:	297fc1dc 	st.h	$r28,$r14,-16(0xff0)
1c0040d4:	297fc9cb 	st.h	$r11,$r14,-14(0xff2)
1c0040d8:	297fd1d4 	st.h	$r20,$r14,-12(0xff4)
1c0040dc:	297fd9c4 	st.h	$r4,$r14,-10(0xff6)
1c0040e0:	297fe1c9 	st.h	$r9,$r14,-8(0xff8)
1c0040e4:	297fe9c8 	st.h	$r8,$r14,-6(0xffa)
1c0040e8:	297ff1c7 	st.h	$r7,$r14,-4(0xffc)
1c0040ec:	297ff9d3 	st.h	$r19,$r14,-2(0xffe)
1c0040f0:	6bff99fe 	bltu	$r15,$r30,-104(0x3ff98) # 1c004088 <matrix_test+0x1278>
1c0040f4:	02800718 	addi.w	$r24,$r24,1(0x1)
1c0040f8:	00105f39 	add.w	$r25,$r25,$r23
1c0040fc:	6bfeaf1e 	bltu	$r24,$r30,-340(0x3feac) # 1c003fa8 <matrix_test+0x1198>
1c004100:	28813061 	ld.w	$r1,$r3,76(0x4c)
1c004104:	28812076 	ld.w	$r22,$r3,72(0x48)
1c004108:	28402064 	ld.h	$r4,$r3,8(0x8)
1c00410c:	28811077 	ld.w	$r23,$r3,68(0x44)
1c004110:	28810078 	ld.w	$r24,$r3,64(0x40)
1c004114:	2880f079 	ld.w	$r25,$r3,60(0x3c)
1c004118:	2880e07a 	ld.w	$r26,$r3,56(0x38)
1c00411c:	2880d07b 	ld.w	$r27,$r3,52(0x34)
1c004120:	2880c07c 	ld.w	$r28,$r3,48(0x30)
1c004124:	2880b07d 	ld.w	$r29,$r3,44(0x2c)
1c004128:	2880a07e 	ld.w	$r30,$r3,40(0x28)
1c00412c:	2880907f 	ld.w	$r31,$r3,36(0x24)
1c004130:	02814063 	addi.w	$r3,$r3,80(0x50)
1c004134:	4c000020 	jirl	$r0,$r1,0
1c004138:	00121514 	slt	$r20,$r8,$r5
1c00413c:	001050e1 	add.w	$r1,$r7,$r20
1c004140:	29803061 	st.w	$r1,$r3,12(0xc)
1c004144:	2880122b 	ld.w	$r11,$r17,4(0x4)
1c004148:	28403068 	ld.h	$r8,$r3,12(0xc)
1c00414c:	02800652 	addi.w	$r18,$r18,1(0x1)
1c004150:	00102e69 	add.w	$r9,$r19,$r11
1c004154:	29803068 	st.w	$r8,$r3,12(0xc)
1c004158:	02801231 	addi.w	$r17,$r17,4(0x4)
1c00415c:	2a403064 	ld.hu	$r4,$r3,12(0xc)
1c004160:	6400abe9 	bge	$r31,$r9,168(0xa8) # 1c004208 <matrix_test+0x13f8>
1c004164:	02802890 	addi.w	$r16,$r4,10(0xa)
1c004168:	29803070 	st.w	$r16,$r3,12(0xc)
1c00416c:	2840307c 	ld.h	$r28,$r3,12(0xc)
1c004170:	2880122c 	ld.w	$r12,$r17,4(0x4)
1c004174:	00150009 	move	$r9,$r0
1c004178:	2980307c 	st.w	$r28,$r3,12(0xc)
1c00417c:	00103125 	add.w	$r5,$r9,$r12
1c004180:	2a403066 	ld.hu	$r6,$r3,12(0xc)
1c004184:	6400abe5 	bge	$r31,$r5,168(0xa8) # 1c00422c <matrix_test+0x141c>
1c004188:	028028ca 	addi.w	$r10,$r6,10(0xa)
1c00418c:	2980306a 	st.w	$r10,$r3,12(0xc)
1c004190:	28403061 	ld.h	$r1,$r3,12(0xc)
1c004194:	28802228 	ld.w	$r8,$r17,8(0x8)
1c004198:	00150005 	move	$r5,$r0
1c00419c:	29803061 	st.w	$r1,$r3,12(0xc)
1c0041a0:	001020b3 	add.w	$r19,$r5,$r8
1c0041a4:	2a40306b 	ld.hu	$r11,$r3,12(0xc)
1c0041a8:	6400abf3 	bge	$r31,$r19,168(0xa8) # 1c004250 <matrix_test+0x1440>
1c0041ac:	0280297a 	addi.w	$r26,$r11,10(0xa)
1c0041b0:	2980307a 	st.w	$r26,$r3,12(0xc)
1c0041b4:	28403064 	ld.h	$r4,$r3,12(0xc)
1c0041b8:	00150013 	move	$r19,$r0
1c0041bc:	02800e52 	addi.w	$r18,$r18,3(0x3)
1c0041c0:	02803231 	addi.w	$r17,$r17,12(0xc)
1c0041c4:	6ff6d65e 	bgeu	$r18,$r30,-2348(0x3f6d4) # 1c003898 <matrix_test+0xa88>
1c0041c8:	28800225 	ld.w	$r5,$r17,0
1c0041cc:	29803064 	st.w	$r4,$r3,12(0xc)
1c0041d0:	2a403067 	ld.hu	$r7,$r3,12(0xc)
1c0041d4:	00101673 	add.w	$r19,$r19,$r5
1c0041d8:	67ff63f3 	bge	$r31,$r19,-160(0x3ff60) # 1c004138 <matrix_test+0x1328>
1c0041dc:	028028ea 	addi.w	$r10,$r7,10(0xa)
1c0041e0:	2980306a 	st.w	$r10,$r3,12(0xc)
1c0041e4:	2880122b 	ld.w	$r11,$r17,4(0x4)
1c0041e8:	28403068 	ld.h	$r8,$r3,12(0xc)
1c0041ec:	00150013 	move	$r19,$r0
1c0041f0:	00102e69 	add.w	$r9,$r19,$r11
1c0041f4:	29803068 	st.w	$r8,$r3,12(0xc)
1c0041f8:	02800652 	addi.w	$r18,$r18,1(0x1)
1c0041fc:	02801231 	addi.w	$r17,$r17,4(0x4)
1c004200:	2a403064 	ld.hu	$r4,$r3,12(0xc)
1c004204:	63ff63e9 	blt	$r31,$r9,-160(0x3ff60) # 1c004164 <matrix_test+0x1354>
1c004208:	00122cba 	slt	$r26,$r5,$r11
1c00420c:	0010689d 	add.w	$r29,$r4,$r26
1c004210:	2980307d 	st.w	$r29,$r3,12(0xc)
1c004214:	2840307c 	ld.h	$r28,$r3,12(0xc)
1c004218:	2880122c 	ld.w	$r12,$r17,4(0x4)
1c00421c:	2980307c 	st.w	$r28,$r3,12(0xc)
1c004220:	00103125 	add.w	$r5,$r9,$r12
1c004224:	2a403066 	ld.hu	$r6,$r3,12(0xc)
1c004228:	63ff63e5 	blt	$r31,$r5,-160(0x3ff60) # 1c004188 <matrix_test+0x1378>
1c00422c:	00123167 	slt	$r7,$r11,$r12
1c004230:	00101cd4 	add.w	$r20,$r6,$r7
1c004234:	29803074 	st.w	$r20,$r3,12(0xc)
1c004238:	28403061 	ld.h	$r1,$r3,12(0xc)
1c00423c:	28802228 	ld.w	$r8,$r17,8(0x8)
1c004240:	29803061 	st.w	$r1,$r3,12(0xc)
1c004244:	001020b3 	add.w	$r19,$r5,$r8
1c004248:	2a40306b 	ld.hu	$r11,$r3,12(0xc)
1c00424c:	63ff63f3 	blt	$r31,$r19,-160(0x3ff60) # 1c0041ac <matrix_test+0x139c>
1c004250:	00122184 	slt	$r4,$r12,$r8
1c004254:	00101169 	add.w	$r9,$r11,$r4
1c004258:	29803069 	st.w	$r9,$r3,12(0xc)
1c00425c:	28403064 	ld.h	$r4,$r3,12(0xc)
1c004260:	53ff5fff 	b	-164(0xfffff5c) # 1c0041bc <matrix_test+0x13ac>
1c004264:	00122e94 	slt	$r20,$r20,$r11
1c004268:	0010539d 	add.w	$r29,$r28,$r20
1c00426c:	2980307d 	st.w	$r29,$r3,12(0xc)
1c004270:	288010a6 	ld.w	$r6,$r5,4(0x4)
1c004274:	28403067 	ld.h	$r7,$r3,12(0xc)
1c004278:	028005ad 	addi.w	$r13,$r13,1(0x1)
1c00427c:	00101a4a 	add.w	$r10,$r18,$r6
1c004280:	29803067 	st.w	$r7,$r3,12(0xc)
1c004284:	028010a5 	addi.w	$r5,$r5,4(0x4)
1c004288:	2a40306c 	ld.hu	$r12,$r3,12(0xc)
1c00428c:	64013bea 	bge	$r31,$r10,312(0x138) # 1c0043c4 <matrix_test+0x15b4>
1c004290:	0280298f 	addi.w	$r15,$r12,10(0xa)
1c004294:	2980306f 	st.w	$r15,$r3,12(0xc)
1c004298:	28403069 	ld.h	$r9,$r3,12(0xc)
1c00429c:	288010a1 	ld.w	$r1,$r5,4(0x4)
1c0042a0:	0015000a 	move	$r10,$r0
1c0042a4:	29803069 	st.w	$r9,$r3,12(0xc)
1c0042a8:	0010054b 	add.w	$r11,$r10,$r1
1c0042ac:	2a403064 	ld.hu	$r4,$r3,12(0xc)
1c0042b0:	64013beb 	bge	$r31,$r11,312(0x138) # 1c0043e8 <matrix_test+0x15d8>
1c0042b4:	02802890 	addi.w	$r16,$r4,10(0xa)
1c0042b8:	29803070 	st.w	$r16,$r3,12(0xc)
1c0042bc:	2840307d 	ld.h	$r29,$r3,12(0xc)
1c0042c0:	288020a7 	ld.w	$r7,$r5,8(0x8)
1c0042c4:	0015000b 	move	$r11,$r0
1c0042c8:	2980307d 	st.w	$r29,$r3,12(0xc)
1c0042cc:	00101d72 	add.w	$r18,$r11,$r7
1c0042d0:	2a403066 	ld.hu	$r6,$r3,12(0xc)
1c0042d4:	64013bf2 	bge	$r31,$r18,312(0x138) # 1c00440c <matrix_test+0x15fc>
1c0042d8:	028028d3 	addi.w	$r19,$r6,10(0xa)
1c0042dc:	29803073 	st.w	$r19,$r3,12(0xc)
1c0042e0:	28403068 	ld.h	$r8,$r3,12(0xc)
1c0042e4:	288030a9 	ld.w	$r9,$r5,12(0xc)
1c0042e8:	00150012 	move	$r18,$r0
1c0042ec:	29803068 	st.w	$r8,$r3,12(0xc)
1c0042f0:	00102641 	add.w	$r1,$r18,$r9
1c0042f4:	2a40306f 	ld.hu	$r15,$r3,12(0xc)
1c0042f8:	64013be1 	bge	$r31,$r1,312(0x138) # 1c004430 <matrix_test+0x1620>
1c0042fc:	028029f4 	addi.w	$r20,$r15,10(0xa)
1c004300:	29803074 	st.w	$r20,$r3,12(0xc)
1c004304:	2840307c 	ld.h	$r28,$r3,12(0xc)
1c004308:	288040bd 	ld.w	$r29,$r5,16(0x10)
1c00430c:	00150001 	move	$r1,$r0
1c004310:	2980307c 	st.w	$r28,$r3,12(0xc)
1c004314:	00107427 	add.w	$r7,$r1,$r29
1c004318:	2a403070 	ld.hu	$r16,$r3,12(0xc)
1c00431c:	64013be7 	bge	$r31,$r7,312(0x138) # 1c004454 <matrix_test+0x1644>
1c004320:	02802a0a 	addi.w	$r10,$r16,10(0xa)
1c004324:	2980306a 	st.w	$r10,$r3,12(0xc)
1c004328:	2840306c 	ld.h	$r12,$r3,12(0xc)
1c00432c:	288050a8 	ld.w	$r8,$r5,20(0x14)
1c004330:	00150007 	move	$r7,$r0
1c004334:	2980306c 	st.w	$r12,$r3,12(0xc)
1c004338:	001020e9 	add.w	$r9,$r7,$r8
1c00433c:	2a403073 	ld.hu	$r19,$r3,12(0xc)
1c004340:	64013be9 	bge	$r31,$r9,312(0x138) # 1c004478 <matrix_test+0x1668>
1c004344:	02802a6b 	addi.w	$r11,$r19,10(0xa)
1c004348:	2980306b 	st.w	$r11,$r3,12(0xc)
1c00434c:	28403064 	ld.h	$r4,$r3,12(0xc)
1c004350:	288060b4 	ld.w	$r20,$r5,24(0x18)
1c004354:	00150009 	move	$r9,$r0
1c004358:	29803064 	st.w	$r4,$r3,12(0xc)
1c00435c:	00105132 	add.w	$r18,$r9,$r20
1c004360:	2a40307c 	ld.hu	$r28,$r3,12(0xc)
1c004364:	64013bf2 	bge	$r31,$r18,312(0x138) # 1c00449c <matrix_test+0x168c>
1c004368:	02802b87 	addi.w	$r7,$r28,10(0xa)
1c00436c:	29803067 	st.w	$r7,$r3,12(0xc)
1c004370:	28403064 	ld.h	$r4,$r3,12(0xc)
1c004374:	00150012 	move	$r18,$r0
1c004378:	02801dad 	addi.w	$r13,$r13,7(0x7)
1c00437c:	028070a5 	addi.w	$r5,$r5,28(0x1c)
1c004380:	6ff921be 	bgeu	$r13,$r30,-1760(0x3f920) # 1c003ca0 <matrix_test+0xe90>
1c004384:	288000ab 	ld.w	$r11,$r5,0
1c004388:	29803064 	st.w	$r4,$r3,12(0xc)
1c00438c:	2a40307c 	ld.hu	$r28,$r3,12(0xc)
1c004390:	00102e52 	add.w	$r18,$r18,$r11
1c004394:	67fed3f2 	bge	$r31,$r18,-304(0x3fed0) # 1c004264 <matrix_test+0x1454>
1c004398:	02802b90 	addi.w	$r16,$r28,10(0xa)
1c00439c:	29803070 	st.w	$r16,$r3,12(0xc)
1c0043a0:	288010a6 	ld.w	$r6,$r5,4(0x4)
1c0043a4:	28403067 	ld.h	$r7,$r3,12(0xc)
1c0043a8:	00150012 	move	$r18,$r0
1c0043ac:	00101a4a 	add.w	$r10,$r18,$r6
1c0043b0:	29803067 	st.w	$r7,$r3,12(0xc)
1c0043b4:	028005ad 	addi.w	$r13,$r13,1(0x1)
1c0043b8:	028010a5 	addi.w	$r5,$r5,4(0x4)
1c0043bc:	2a40306c 	ld.hu	$r12,$r3,12(0xc)
1c0043c0:	63fed3ea 	blt	$r31,$r10,-304(0x3fed0) # 1c004290 <matrix_test+0x1480>
1c0043c4:	00121968 	slt	$r8,$r11,$r6
1c0043c8:	00102193 	add.w	$r19,$r12,$r8
1c0043cc:	29803073 	st.w	$r19,$r3,12(0xc)
1c0043d0:	28403069 	ld.h	$r9,$r3,12(0xc)
1c0043d4:	288010a1 	ld.w	$r1,$r5,4(0x4)
1c0043d8:	29803069 	st.w	$r9,$r3,12(0xc)
1c0043dc:	0010054b 	add.w	$r11,$r10,$r1
1c0043e0:	2a403064 	ld.hu	$r4,$r3,12(0xc)
1c0043e4:	63fed3eb 	blt	$r31,$r11,-304(0x3fed0) # 1c0042b4 <matrix_test+0x14a4>
1c0043e8:	001204dc 	slt	$r28,$r6,$r1
1c0043ec:	00107094 	add.w	$r20,$r4,$r28
1c0043f0:	29803074 	st.w	$r20,$r3,12(0xc)
1c0043f4:	2840307d 	ld.h	$r29,$r3,12(0xc)
1c0043f8:	288020a7 	ld.w	$r7,$r5,8(0x8)
1c0043fc:	2980307d 	st.w	$r29,$r3,12(0xc)
1c004400:	00101d72 	add.w	$r18,$r11,$r7
1c004404:	2a403066 	ld.hu	$r6,$r3,12(0xc)
1c004408:	63fed3f2 	blt	$r31,$r18,-304(0x3fed0) # 1c0042d8 <matrix_test+0x14c8>
1c00440c:	00121c2c 	slt	$r12,$r1,$r7
1c004410:	001030ca 	add.w	$r10,$r6,$r12
1c004414:	2980306a 	st.w	$r10,$r3,12(0xc)
1c004418:	28403068 	ld.h	$r8,$r3,12(0xc)
1c00441c:	288030a9 	ld.w	$r9,$r5,12(0xc)
1c004420:	29803068 	st.w	$r8,$r3,12(0xc)
1c004424:	00102641 	add.w	$r1,$r18,$r9
1c004428:	2a40306f 	ld.hu	$r15,$r3,12(0xc)
1c00442c:	63fed3e1 	blt	$r31,$r1,-304(0x3fed0) # 1c0042fc <matrix_test+0x14ec>
1c004430:	001224e4 	slt	$r4,$r7,$r9
1c004434:	001011eb 	add.w	$r11,$r15,$r4
1c004438:	2980306b 	st.w	$r11,$r3,12(0xc)
1c00443c:	2840307c 	ld.h	$r28,$r3,12(0xc)
1c004440:	288040bd 	ld.w	$r29,$r5,16(0x10)
1c004444:	2980307c 	st.w	$r28,$r3,12(0xc)
1c004448:	00107427 	add.w	$r7,$r1,$r29
1c00444c:	2a403070 	ld.hu	$r16,$r3,12(0xc)
1c004450:	63fed3e7 	blt	$r31,$r7,-304(0x3fed0) # 1c004320 <matrix_test+0x1510>
1c004454:	00127526 	slt	$r6,$r9,$r29
1c004458:	00101a12 	add.w	$r18,$r16,$r6
1c00445c:	29803072 	st.w	$r18,$r3,12(0xc)
1c004460:	2840306c 	ld.h	$r12,$r3,12(0xc)
1c004464:	288050a8 	ld.w	$r8,$r5,20(0x14)
1c004468:	2980306c 	st.w	$r12,$r3,12(0xc)
1c00446c:	001020e9 	add.w	$r9,$r7,$r8
1c004470:	2a403073 	ld.hu	$r19,$r3,12(0xc)
1c004474:	63fed3e9 	blt	$r31,$r9,-304(0x3fed0) # 1c004344 <matrix_test+0x1534>
1c004478:	001223af 	slt	$r15,$r29,$r8
1c00447c:	00103e61 	add.w	$r1,$r19,$r15
1c004480:	29803061 	st.w	$r1,$r3,12(0xc)
1c004484:	28403064 	ld.h	$r4,$r3,12(0xc)
1c004488:	288060b4 	ld.w	$r20,$r5,24(0x18)
1c00448c:	29803064 	st.w	$r4,$r3,12(0xc)
1c004490:	00105132 	add.w	$r18,$r9,$r20
1c004494:	2a40307c 	ld.hu	$r28,$r3,12(0xc)
1c004498:	63fed3f2 	blt	$r31,$r18,-304(0x3fed0) # 1c004368 <matrix_test+0x1558>
1c00449c:	0012511d 	slt	$r29,$r8,$r20
1c0044a0:	00107790 	add.w	$r16,$r28,$r29
1c0044a4:	29803070 	st.w	$r16,$r3,12(0xc)
1c0044a8:	28403064 	ld.h	$r4,$r3,12(0xc)
1c0044ac:	53fecfff 	b	-308(0xffffecc) # 1c004378 <matrix_test+0x1568>
1c0044b0:	00123d24 	slt	$r4,$r9,$r15
1c0044b4:	00101168 	add.w	$r8,$r11,$r4
1c0044b8:	29802068 	st.w	$r8,$r3,8(0x8)
1c0044bc:	28801251 	ld.w	$r17,$r18,4(0x4)
1c0044c0:	28402069 	ld.h	$r9,$r3,8(0x8)
1c0044c4:	02800665 	addi.w	$r5,$r19,1(0x1)
1c0044c8:	001045ca 	add.w	$r10,$r14,$r17
1c0044cc:	29802069 	st.w	$r9,$r3,8(0x8)
1c0044d0:	02801252 	addi.w	$r18,$r18,4(0x4)
1c0044d4:	2a402073 	ld.hu	$r19,$r3,8(0x8)
1c0044d8:	6400abea 	bge	$r31,$r10,168(0xa8) # 1c004580 <matrix_test+0x1770>
1c0044dc:	02802a6d 	addi.w	$r13,$r19,10(0xa)
1c0044e0:	2980206d 	st.w	$r13,$r3,8(0x8)
1c0044e4:	28402070 	ld.h	$r16,$r3,8(0x8)
1c0044e8:	28801241 	ld.w	$r1,$r18,4(0x4)
1c0044ec:	0015000a 	move	$r10,$r0
1c0044f0:	29802070 	st.w	$r16,$r3,8(0x8)
1c0044f4:	0010055d 	add.w	$r29,$r10,$r1
1c0044f8:	2a40207a 	ld.hu	$r26,$r3,8(0x8)
1c0044fc:	6400abfd 	bge	$r31,$r29,168(0xa8) # 1c0045a4 <matrix_test+0x1794>
1c004500:	02802b44 	addi.w	$r4,$r26,10(0xa)
1c004504:	29802064 	st.w	$r4,$r3,8(0x8)
1c004508:	2840206b 	ld.h	$r11,$r3,8(0x8)
1c00450c:	28802249 	ld.w	$r9,$r18,8(0x8)
1c004510:	0015001d 	move	$r29,$r0
1c004514:	2980206b 	st.w	$r11,$r3,8(0x8)
1c004518:	001027ae 	add.w	$r14,$r29,$r9
1c00451c:	2a402068 	ld.hu	$r8,$r3,8(0x8)
1c004520:	6400abee 	bge	$r31,$r14,168(0xa8) # 1c0045c8 <matrix_test+0x17b8>
1c004524:	02802913 	addi.w	$r19,$r8,10(0xa)
1c004528:	29802073 	st.w	$r19,$r3,8(0x8)
1c00452c:	28402064 	ld.h	$r4,$r3,8(0x8)
1c004530:	0015000e 	move	$r14,$r0
1c004534:	02800cb3 	addi.w	$r19,$r5,3(0x3)
1c004538:	02803252 	addi.w	$r18,$r18,12(0xc)
1c00453c:	6ffa4e7e 	bgeu	$r19,$r30,-1460(0x3fa4c) # 1c003f88 <matrix_test+0x1178>
1c004540:	2880024f 	ld.w	$r15,$r18,0
1c004544:	29802064 	st.w	$r4,$r3,8(0x8)
1c004548:	2a40206b 	ld.hu	$r11,$r3,8(0x8)
1c00454c:	00103dce 	add.w	$r14,$r14,$r15
1c004550:	67ff63ee 	bge	$r31,$r14,-160(0x3ff60) # 1c0044b0 <matrix_test+0x16a0>
1c004554:	02802967 	addi.w	$r7,$r11,10(0xa)
1c004558:	29802067 	st.w	$r7,$r3,8(0x8)
1c00455c:	28801251 	ld.w	$r17,$r18,4(0x4)
1c004560:	28402069 	ld.h	$r9,$r3,8(0x8)
1c004564:	0015000e 	move	$r14,$r0
1c004568:	001045ca 	add.w	$r10,$r14,$r17
1c00456c:	29802069 	st.w	$r9,$r3,8(0x8)
1c004570:	02800665 	addi.w	$r5,$r19,1(0x1)
1c004574:	02801252 	addi.w	$r18,$r18,4(0x4)
1c004578:	2a402073 	ld.hu	$r19,$r3,8(0x8)
1c00457c:	63ff63ea 	blt	$r31,$r10,-160(0x3ff60) # 1c0044dc <matrix_test+0x16cc>
1c004580:	001245e6 	slt	$r6,$r15,$r17
1c004584:	00101a74 	add.w	$r20,$r19,$r6
1c004588:	29802074 	st.w	$r20,$r3,8(0x8)
1c00458c:	28402070 	ld.h	$r16,$r3,8(0x8)
1c004590:	28801241 	ld.w	$r1,$r18,4(0x4)
1c004594:	29802070 	st.w	$r16,$r3,8(0x8)
1c004598:	0010055d 	add.w	$r29,$r10,$r1
1c00459c:	2a40207a 	ld.hu	$r26,$r3,8(0x8)
1c0045a0:	63ff63fd 	blt	$r31,$r29,-160(0x3ff60) # 1c004500 <matrix_test+0x16f0>
1c0045a4:	0012063c 	slt	$r28,$r17,$r1
1c0045a8:	0010734f 	add.w	$r15,$r26,$r28
1c0045ac:	2980206f 	st.w	$r15,$r3,8(0x8)
1c0045b0:	2840206b 	ld.h	$r11,$r3,8(0x8)
1c0045b4:	28802249 	ld.w	$r9,$r18,8(0x8)
1c0045b8:	2980206b 	st.w	$r11,$r3,8(0x8)
1c0045bc:	001027ae 	add.w	$r14,$r29,$r9
1c0045c0:	2a402068 	ld.hu	$r8,$r3,8(0x8)
1c0045c4:	63ff63ee 	blt	$r31,$r14,-160(0x3ff60) # 1c004524 <matrix_test+0x1714>
1c0045c8:	00122427 	slt	$r7,$r1,$r9
1c0045cc:	00101d11 	add.w	$r17,$r8,$r7
1c0045d0:	29802071 	st.w	$r17,$r3,8(0x8)
1c0045d4:	28402064 	ld.h	$r4,$r3,8(0x8)
1c0045d8:	53ff5fff 	b	-164(0xfffff5c) # 1c004534 <matrix_test+0x1724>
1c0045dc:	03400000 	andi	$r0,$r0,0x0
1c0045e0:	00122290 	slt	$r16,$r20,$r8
1c0045e4:	001043ac 	add.w	$r12,$r29,$r16
1c0045e8:	2980306c 	st.w	$r12,$r3,12(0xc)
1c0045ec:	28403064 	ld.h	$r4,$r3,12(0xc)
1c0045f0:	53f1ffff 	b	-3588(0xffff1fc) # 1c0037ec <matrix_test+0x9dc>
1c0045f4:	0012262f 	slt	$r15,$r17,$r9
1c0045f8:	00103fab 	add.w	$r11,$r29,$r15
1c0045fc:	2980206b 	st.w	$r11,$r3,8(0x8)
1c004600:	28402064 	ld.h	$r4,$r3,8(0x8)
1c004604:	53f8dbff 	b	-1832(0xffff8d8) # 1c003edc <matrix_test+0x10cc>
1c004608:	001250c5 	slt	$r5,$r6,$r20
1c00460c:	001017a7 	add.w	$r7,$r29,$r5
1c004610:	29803067 	st.w	$r7,$r3,12(0xc)
1c004614:	28403064 	ld.h	$r4,$r3,12(0xc)
1c004618:	53f4ffff 	b	-2820(0xffff4fc) # 1c003b14 <matrix_test+0xd04>
1c00461c:	03400000 	andi	$r0,$r0,0x0
1c004620:	0012526f 	slt	$r15,$r19,$r20
1c004624:	00103d24 	add.w	$r4,$r9,$r15
1c004628:	29803064 	st.w	$r4,$r3,12(0xc)
1c00462c:	28403064 	ld.h	$r4,$r3,12(0xc)
1c004630:	53f667ff 	b	-2460(0xffff664) # 1c003c94 <matrix_test+0xe84>
1c004634:	00121e6c 	slt	$r12,$r19,$r7
1c004638:	001030ca 	add.w	$r10,$r6,$r12
1c00463c:	2980306a 	st.w	$r10,$r3,12(0xc)
1c004640:	28403064 	ld.h	$r4,$r3,12(0xc)
1c004644:	53f623ff 	b	-2528(0xffff620) # 1c003c64 <matrix_test+0xe54>
1c004648:	001223b0 	slt	$r16,$r29,$r8
1c00464c:	0010438c 	add.w	$r12,$r28,$r16
1c004650:	2980306c 	st.w	$r12,$r3,12(0xc)
1c004654:	28403064 	ld.h	$r4,$r3,12(0xc)
1c004658:	53f237ff 	b	-3532(0xffff234) # 1c00388c <matrix_test+0xa7c>
1c00465c:	03400000 	andi	$r0,$r0,0x0
1c004660:	001225ba 	slt	$r26,$r13,$r9
1c004664:	0010683d 	add.w	$r29,$r1,$r26
1c004668:	2980207d 	st.w	$r29,$r3,8(0x8)
1c00466c:	28402064 	ld.h	$r4,$r3,8(0x8)
1c004670:	53f90fff 	b	-1780(0xffff90c) # 1c003f7c <matrix_test+0x116c>
1c004674:	00122e73 	slt	$r19,$r19,$r11
1c004678:	00104f9d 	add.w	$r29,$r28,$r19
1c00467c:	2980307d 	st.w	$r29,$r3,12(0xc)
1c004680:	28403064 	ld.h	$r4,$r3,12(0xc)
1c004684:	53f5b3ff 	b	-2640(0xffff5b0) # 1c003c34 <matrix_test+0xe24>
1c004688:	001223ab 	slt	$r11,$r29,$r8
1c00468c:	00102c89 	add.w	$r9,$r4,$r11
1c004690:	29803069 	st.w	$r9,$r3,12(0xc)
1c004694:	28403064 	ld.h	$r4,$r3,12(0xc)
1c004698:	53f1c7ff 	b	-3644(0xffff1c4) # 1c00385c <matrix_test+0xa4c>
1c00469c:	03400000 	andi	$r0,$r0,0x0
1c0046a0:	001229b4 	slt	$r20,$r13,$r10
1c0046a4:	001050d0 	add.w	$r16,$r6,$r20
1c0046a8:	29802070 	st.w	$r16,$r3,8(0x8)
1c0046ac:	28402064 	ld.h	$r4,$r3,8(0x8)
1c0046b0:	53f89fff 	b	-1892(0xffff89c) # 1c003f4c <matrix_test+0x113c>
1c0046b4:	00122664 	slt	$r4,$r19,$r9
1c0046b8:	001011f4 	add.w	$r20,$r15,$r4
1c0046bc:	29803074 	st.w	$r20,$r3,12(0xc)
1c0046c0:	28403064 	ld.h	$r4,$r3,12(0xc)
1c0046c4:	53f543ff 	b	-2752(0xffff540) # 1c003c04 <matrix_test+0xdf4>
1c0046c8:	00121e6c 	slt	$r12,$r19,$r7
1c0046cc:	001030ca 	add.w	$r10,$r6,$r12
1c0046d0:	2980306a 	st.w	$r10,$r3,12(0xc)
1c0046d4:	28403064 	ld.h	$r4,$r3,12(0xc)
1c0046d8:	53f4ffff 	b	-2820(0xffff4fc) # 1c003bd4 <matrix_test+0xdc4>
1c0046dc:	03400000 	andi	$r0,$r0,0x0
1c0046e0:	00127514 	slt	$r20,$r8,$r29
1c0046e4:	001050e1 	add.w	$r1,$r7,$r20
1c0046e8:	29803061 	st.w	$r1,$r3,12(0xc)
1c0046ec:	28403064 	ld.h	$r4,$r3,12(0xc)
1c0046f0:	53f143ff 	b	-3776(0xffff140) # 1c003830 <matrix_test+0xa20>
1c0046f4:	00122e73 	slt	$r19,$r19,$r11
1c0046f8:	00104f9d 	add.w	$r29,$r28,$r19
1c0046fc:	2980307d 	st.w	$r29,$r3,12(0xc)
1c004700:	28403064 	ld.h	$r4,$r3,12(0xc)
1c004704:	53f4a3ff 	b	-2912(0xffff4a0) # 1c003ba4 <matrix_test+0xd94>
1c004708:	00123531 	slt	$r17,$r9,$r13
1c00470c:	001044e9 	add.w	$r9,$r7,$r17
1c004710:	29802069 	st.w	$r9,$r3,8(0x8)
1c004714:	28402064 	ld.h	$r4,$r3,8(0x8)
1c004718:	53f80bff 	b	-2040(0xffff808) # 1c003f20 <matrix_test+0x1110>
1c00471c:	0012354a 	slt	$r10,$r10,$r13
1c004720:	0010298b 	add.w	$r11,$r12,$r10
1c004724:	2980306b 	st.w	$r11,$r3,12(0xc)
1c004728:	2840306c 	ld.h	$r12,$r3,12(0xc)
1c00472c:	53eabfff 	b	-5444(0xfffeabc) # 1c0031e8 <matrix_test+0x3d8>
1c004730:	00124e94 	slt	$r20,$r20,$r19
1c004734:	00105081 	add.w	$r1,$r4,$r20
1c004738:	29803061 	st.w	$r1,$r3,12(0xc)
1c00473c:	28403064 	ld.h	$r4,$r3,12(0xc)
1c004740:	028005ad 	addi.w	$r13,$r13,1(0x1)
1c004744:	028010a5 	addi.w	$r5,$r5,4(0x4)
1c004748:	53f43bff 	b	-3016(0xffff438) # 1c003b80 <matrix_test+0xd70>
1c00474c:	0015037a 	move	$r26,$r27
1c004750:	53f16fff 	b	-3732(0xffff16c) # 1c0038bc <matrix_test+0xaac>
1c004754:	00150005 	move	$r5,$r0
1c004758:	5432c800 	bl	13000(0x32c8) # 1c007a20 <crc16>
1c00475c:	00150085 	move	$r5,$r4
1c004760:	00150004 	move	$r4,$r0
1c004764:	5432bc00 	bl	12988(0x32bc) # 1c007a20 <crc16>
1c004768:	00150085 	move	$r5,$r4
1c00476c:	00150004 	move	$r4,$r0
1c004770:	5432b000 	bl	12976(0x32b0) # 1c007a20 <crc16>
1c004774:	00150085 	move	$r5,$r4
1c004778:	00150004 	move	$r4,$r0
1c00477c:	5432a400 	bl	12964(0x32a4) # 1c007a20 <crc16>
1c004780:	28813061 	ld.w	$r1,$r3,76(0x4c)
1c004784:	28812076 	ld.w	$r22,$r3,72(0x48)
1c004788:	29802064 	st.w	$r4,$r3,8(0x8)
1c00478c:	28402064 	ld.h	$r4,$r3,8(0x8)
1c004790:	28811077 	ld.w	$r23,$r3,68(0x44)
1c004794:	28810078 	ld.w	$r24,$r3,64(0x40)
1c004798:	2880f079 	ld.w	$r25,$r3,60(0x3c)
1c00479c:	2880e07a 	ld.w	$r26,$r3,56(0x38)
1c0047a0:	2880d07b 	ld.w	$r27,$r3,52(0x34)
1c0047a4:	2880c07c 	ld.w	$r28,$r3,48(0x30)
1c0047a8:	2880b07d 	ld.w	$r29,$r3,44(0x2c)
1c0047ac:	2880a07e 	ld.w	$r30,$r3,40(0x28)
1c0047b0:	2880907f 	ld.w	$r31,$r3,36(0x24)
1c0047b4:	02814063 	addi.w	$r3,$r3,80(0x50)
1c0047b8:	4c000020 	jirl	$r0,$r1,0
1c0047bc:	03400000 	andi	$r0,$r0,0x0

1c0047c0 <core_init_matrix>:
core_init_matrix():
1c0047c0:	02bf0063 	addi.w	$r3,$r3,-64(0xfc0)
1c0047c4:	2980f077 	st.w	$r23,$r3,60(0x3c)
1c0047c8:	2980e078 	st.w	$r24,$r3,56(0x38)
1c0047cc:	2980d079 	st.w	$r25,$r3,52(0x34)
1c0047d0:	2980c07a 	st.w	$r26,$r3,48(0x30)
1c0047d4:	2980b07b 	st.w	$r27,$r3,44(0x2c)
1c0047d8:	2980a07c 	st.w	$r28,$r3,40(0x28)
1c0047dc:	2980907d 	st.w	$r29,$r3,36(0x24)
1c0047e0:	2980807e 	st.w	$r30,$r3,32(0x20)
1c0047e4:	2980707f 	st.w	$r31,$r3,28(0x1c)
1c0047e8:	0015008d 	move	$r13,$r4
1c0047ec:	5c0008c0 	bne	$r6,$r0,8(0x8) # 1c0047f4 <core_init_matrix+0x34>
1c0047f0:	02800406 	addi.w	$r6,$r0,1(0x1)
1c0047f4:	02bffcab 	addi.w	$r11,$r5,-1(0xfff)
1c0047f8:	02bff00c 	addi.w	$r12,$r0,-4(0xffc)
1c0047fc:	0014b165 	and	$r5,$r11,$r12
1c004800:	00150004 	move	$r4,$r0
1c004804:	028010b8 	addi.w	$r24,$r5,4(0x4)
1c004808:	5803a1a0 	beq	$r13,$r0,928(0x3a0) # 1c004ba8 <core_init_matrix+0x3e8>
1c00480c:	02800488 	addi.w	$r8,$r4,1(0x1)
1c004810:	001c210e 	mul.w	$r14,$r8,$r8
1c004814:	02800d10 	addi.w	$r16,$r8,3(0x3)
1c004818:	02801114 	addi.w	$r20,$r8,4(0x4)
1c00481c:	02801511 	addi.w	$r17,$r8,5(0x5)
1c004820:	02801912 	addi.w	$r18,$r8,6(0x6)
1c004824:	02801d13 	addi.w	$r19,$r8,7(0x7)
1c004828:	00408dc9 	slli.w	$r9,$r14,0x3
1c00482c:	6c00a52d 	bgeu	$r9,$r13,164(0xa4) # 1c0048d0 <core_init_matrix+0x110>
1c004830:	0280050f 	addi.w	$r15,$r8,1(0x1)
1c004834:	001c3df7 	mul.w	$r23,$r15,$r15
1c004838:	00150104 	move	$r4,$r8
1c00483c:	00408efa 	slli.w	$r26,$r23,0x3
1c004840:	6c00934d 	bgeu	$r26,$r13,144(0x90) # 1c0048d0 <core_init_matrix+0x110>
1c004844:	028005fb 	addi.w	$r27,$r15,1(0x1)
1c004848:	001c6f7c 	mul.w	$r28,$r27,$r27
1c00484c:	001501e4 	move	$r4,$r15
1c004850:	00408f9d 	slli.w	$r29,$r28,0x3
1c004854:	6c007fad 	bgeu	$r29,$r13,124(0x7c) # 1c0048d0 <core_init_matrix+0x110>
1c004858:	001c420c 	mul.w	$r12,$r16,$r16
1c00485c:	02800904 	addi.w	$r4,$r8,2(0x2)
1c004860:	00408d9f 	slli.w	$r31,$r12,0x3
1c004864:	6c006fed 	bgeu	$r31,$r13,108(0x6c) # 1c0048d0 <core_init_matrix+0x110>
1c004868:	001c5285 	mul.w	$r5,$r20,$r20
1c00486c:	00150204 	move	$r4,$r16
1c004870:	00408cab 	slli.w	$r11,$r5,0x3
1c004874:	6c005d6d 	bgeu	$r11,$r13,92(0x5c) # 1c0048d0 <core_init_matrix+0x110>
1c004878:	001c4639 	mul.w	$r25,$r17,$r17
1c00487c:	00150284 	move	$r4,$r20
1c004880:	00408f2a 	slli.w	$r10,$r25,0x3
1c004884:	6c004d4d 	bgeu	$r10,$r13,76(0x4c) # 1c0048d0 <core_init_matrix+0x110>
1c004888:	001c4a48 	mul.w	$r8,$r18,$r18
1c00488c:	00150224 	move	$r4,$r17
1c004890:	00408d10 	slli.w	$r16,$r8,0x3
1c004894:	6c003e0d 	bgeu	$r16,$r13,60(0x3c) # 1c0048d0 <core_init_matrix+0x110>
1c004898:	001c4e74 	mul.w	$r20,$r19,$r19
1c00489c:	00150244 	move	$r4,$r18
1c0048a0:	00408e91 	slli.w	$r17,$r20,0x3
1c0048a4:	6c002e2d 	bgeu	$r17,$r13,44(0x2c) # 1c0048d0 <core_init_matrix+0x110>
1c0048a8:	00150264 	move	$r4,$r19
1c0048ac:	02800488 	addi.w	$r8,$r4,1(0x1)
1c0048b0:	001c210e 	mul.w	$r14,$r8,$r8
1c0048b4:	02800d10 	addi.w	$r16,$r8,3(0x3)
1c0048b8:	02801114 	addi.w	$r20,$r8,4(0x4)
1c0048bc:	02801511 	addi.w	$r17,$r8,5(0x5)
1c0048c0:	02801912 	addi.w	$r18,$r8,6(0x6)
1c0048c4:	02801d13 	addi.w	$r19,$r8,7(0x7)
1c0048c8:	00408dc9 	slli.w	$r9,$r14,0x3
1c0048cc:	6bff652d 	bltu	$r9,$r13,-156(0x3ff64) # 1c004830 <core_init_matrix+0x70>
1c0048d0:	001c108d 	mul.w	$r13,$r4,$r4
1c0048d4:	00150099 	move	$r25,$r4
1c0048d8:	004085aa 	slli.w	$r10,$r13,0x1
1c0048dc:	00102b0b 	add.w	$r11,$r24,$r10
1c0048e0:	58027880 	beq	$r4,$r0,632(0x278) # 1c004b58 <core_init_matrix+0x398>
1c0048e4:	00408497 	slli.w	$r23,$r4,0x1
1c0048e8:	00150165 	move	$r5,$r11
1c0048ec:	00150009 	move	$r9,$r0
1c0048f0:	0280040d 	addi.w	$r13,$r0,1(0x1)
1c0048f4:	00112f14 	sub.w	$r20,$r24,$r11
1c0048f8:	14000213 	lu12i.w	$r19,16(0x10)
1c0048fc:	03400000 	andi	$r0,$r0,0x0
1c004900:	001c34ce 	mul.w	$r14,$r6,$r13
1c004904:	2980306d 	st.w	$r13,$r3,12(0xc)
1c004908:	2a40307b 	ld.hu	$r27,$r3,12(0xc)
1c00490c:	02bffc86 	addi.w	$r6,$r4,-1(0xfff)
1c004910:	03400ccf 	andi	$r15,$r6,0x3
1c004914:	0010169a 	add.w	$r26,$r20,$r5
1c004918:	02800412 	addi.w	$r18,$r0,1(0x1)
1c00491c:	028008ac 	addi.w	$r12,$r5,2(0x2)
1c004920:	028005ad 	addi.w	$r13,$r13,1(0x1)
1c004924:	0020cdc6 	mod.w	$r6,$r14,$r19
1c004928:	5c000a60 	bne	$r19,$r0,8(0x8) # 1c004930 <core_init_matrix+0x170>
1c00492c:	002a0007 	break	0x7
1c004930:	00101b7c 	add.w	$r28,$r27,$r6
1c004934:	2980307c 	st.w	$r28,$r3,12(0xc)
1c004938:	2a40307d 	ld.hu	$r29,$r3,12(0xc)
1c00493c:	00106fbe 	add.w	$r30,$r29,$r27
1c004940:	2980307e 	st.w	$r30,$r3,12(0xc)
1c004944:	2a00307f 	ld.bu	$r31,$r3,12(0xc)
1c004948:	294000bd 	st.h	$r29,$r5,0
1c00494c:	2940035f 	st.h	$r31,$r26,0
1c004950:	6c01fe44 	bgeu	$r18,$r4,508(0x1fc) # 1c004b4c <core_init_matrix+0x38c>
1c004954:	5800ede0 	beq	$r15,$r0,236(0xec) # 1c004a40 <core_init_matrix+0x280>
1c004958:	58009df2 	beq	$r15,$r18,156(0x9c) # 1c0049f4 <core_init_matrix+0x234>
1c00495c:	02800810 	addi.w	$r16,$r0,2(0x2)
1c004960:	58004df0 	beq	$r15,$r16,76(0x4c) # 1c0049ac <core_init_matrix+0x1ec>
1c004964:	001c34d1 	mul.w	$r17,$r6,$r13
1c004968:	2980306d 	st.w	$r13,$r3,12(0xc)
1c00496c:	2a40306e 	ld.hu	$r14,$r3,12(0xc)
1c004970:	0010329a 	add.w	$r26,$r20,$r12
1c004974:	02800812 	addi.w	$r18,$r0,2(0x2)
1c004978:	028005ad 	addi.w	$r13,$r13,1(0x1)
1c00497c:	0020ce26 	mod.w	$r6,$r17,$r19
1c004980:	5c000a60 	bne	$r19,$r0,8(0x8) # 1c004988 <core_init_matrix+0x1c8>
1c004984:	002a0007 	break	0x7
1c004988:	001019cf 	add.w	$r15,$r14,$r6
1c00498c:	2980306f 	st.w	$r15,$r3,12(0xc)
1c004990:	2a40307b 	ld.hu	$r27,$r3,12(0xc)
1c004994:	00103b7c 	add.w	$r28,$r27,$r14
1c004998:	2980307c 	st.w	$r28,$r3,12(0xc)
1c00499c:	2a00307d 	ld.bu	$r29,$r3,12(0xc)
1c0049a0:	2940019b 	st.h	$r27,$r12,0
1c0049a4:	028010ac 	addi.w	$r12,$r5,4(0x4)
1c0049a8:	2940035d 	st.h	$r29,$r26,0
1c0049ac:	001c34de 	mul.w	$r30,$r6,$r13
1c0049b0:	2980306d 	st.w	$r13,$r3,12(0xc)
1c0049b4:	2a403068 	ld.hu	$r8,$r3,12(0xc)
1c0049b8:	0010329f 	add.w	$r31,$r20,$r12
1c0049bc:	02800652 	addi.w	$r18,$r18,1(0x1)
1c0049c0:	028005ad 	addi.w	$r13,$r13,1(0x1)
1c0049c4:	0280098c 	addi.w	$r12,$r12,2(0x2)
1c0049c8:	0020cfc6 	mod.w	$r6,$r30,$r19
1c0049cc:	5c000a60 	bne	$r19,$r0,8(0x8) # 1c0049d4 <core_init_matrix+0x214>
1c0049d0:	002a0007 	break	0x7
1c0049d4:	00101910 	add.w	$r16,$r8,$r6
1c0049d8:	29803070 	st.w	$r16,$r3,12(0xc)
1c0049dc:	2a403071 	ld.hu	$r17,$r3,12(0xc)
1c0049e0:	0010223a 	add.w	$r26,$r17,$r8
1c0049e4:	2980307a 	st.w	$r26,$r3,12(0xc)
1c0049e8:	2a00306e 	ld.bu	$r14,$r3,12(0xc)
1c0049ec:	297ff991 	st.h	$r17,$r12,-2(0xffe)
1c0049f0:	294003ee 	st.h	$r14,$r31,0
1c0049f4:	001c34cf 	mul.w	$r15,$r6,$r13
1c0049f8:	2980306d 	st.w	$r13,$r3,12(0xc)
1c0049fc:	2a40307c 	ld.hu	$r28,$r3,12(0xc)
1c004a00:	0010329b 	add.w	$r27,$r20,$r12
1c004a04:	0280098c 	addi.w	$r12,$r12,2(0x2)
1c004a08:	02800652 	addi.w	$r18,$r18,1(0x1)
1c004a0c:	028005ad 	addi.w	$r13,$r13,1(0x1)
1c004a10:	0020cde6 	mod.w	$r6,$r15,$r19
1c004a14:	5c000a60 	bne	$r19,$r0,8(0x8) # 1c004a1c <core_init_matrix+0x25c>
1c004a18:	002a0007 	break	0x7
1c004a1c:	00101b9d 	add.w	$r29,$r28,$r6
1c004a20:	2980307d 	st.w	$r29,$r3,12(0xc)
1c004a24:	2a40307e 	ld.hu	$r30,$r3,12(0xc)
1c004a28:	001073df 	add.w	$r31,$r30,$r28
1c004a2c:	2980307f 	st.w	$r31,$r3,12(0xc)
1c004a30:	2a003068 	ld.bu	$r8,$r3,12(0xc)
1c004a34:	297ff99e 	st.h	$r30,$r12,-2(0xffe)
1c004a38:	29400368 	st.h	$r8,$r27,0
1c004a3c:	6c011244 	bgeu	$r18,$r4,272(0x110) # 1c004b4c <core_init_matrix+0x38c>
1c004a40:	001c34c6 	mul.w	$r6,$r6,$r13
1c004a44:	028005ae 	addi.w	$r14,$r13,1(0x1)
1c004a48:	2980306e 	st.w	$r14,$r3,12(0xc)
1c004a4c:	028009be 	addi.w	$r30,$r13,2(0x2)
1c004a50:	2a40307b 	ld.hu	$r27,$r3,12(0xc)
1c004a54:	02800dbc 	addi.w	$r28,$r13,3(0x3)
1c004a58:	2980307e 	st.w	$r30,$r3,12(0xc)
1c004a5c:	2a403071 	ld.hu	$r17,$r3,12(0xc)
1c004a60:	2980307c 	st.w	$r28,$r3,12(0xc)
1c004a64:	2a403070 	ld.hu	$r16,$r3,12(0xc)
1c004a68:	2980306d 	st.w	$r13,$r3,12(0xc)
1c004a6c:	0010329f 	add.w	$r31,$r20,$r12
1c004a70:	0280218c 	addi.w	$r12,$r12,8(0x8)
1c004a74:	001503fd 	move	$r29,$r31
1c004a78:	001503fa 	move	$r26,$r31
1c004a7c:	001503e8 	move	$r8,$r31
1c004a80:	02801252 	addi.w	$r18,$r18,4(0x4)
1c004a84:	028011ad 	addi.w	$r13,$r13,4(0x4)
1c004a88:	0020cccf 	mod.w	$r15,$r6,$r19
1c004a8c:	5c000a60 	bne	$r19,$r0,8(0x8) # 1c004a94 <core_init_matrix+0x2d4>
1c004a90:	002a0007 	break	0x7
1c004a94:	001c39e6 	mul.w	$r6,$r15,$r14
1c004a98:	2a40306e 	ld.hu	$r14,$r3,12(0xc)
1c004a9c:	00103dcf 	add.w	$r15,$r14,$r15
1c004aa0:	2980306f 	st.w	$r15,$r3,12(0xc)
1c004aa4:	2a40306f 	ld.hu	$r15,$r3,12(0xc)
1c004aa8:	001039ee 	add.w	$r14,$r15,$r14
1c004aac:	2980306e 	st.w	$r14,$r3,12(0xc)
1c004ab0:	297fe18f 	st.h	$r15,$r12,-8(0xff8)
1c004ab4:	2a00306f 	ld.bu	$r15,$r3,12(0xc)
1c004ab8:	294003ef 	st.h	$r15,$r31,0
1c004abc:	0020ccdf 	mod.w	$r31,$r6,$r19
1c004ac0:	5c000a60 	bne	$r19,$r0,8(0x8) # 1c004ac8 <core_init_matrix+0x308>
1c004ac4:	002a0007 	break	0x7
1c004ac8:	001c7bfe 	mul.w	$r30,$r31,$r30
1c004acc:	00107f66 	add.w	$r6,$r27,$r31
1c004ad0:	29803066 	st.w	$r6,$r3,12(0xc)
1c004ad4:	2a40306e 	ld.hu	$r14,$r3,12(0xc)
1c004ad8:	00106ddb 	add.w	$r27,$r14,$r27
1c004adc:	2980307b 	st.w	$r27,$r3,12(0xc)
1c004ae0:	2a00306f 	ld.bu	$r15,$r3,12(0xc)
1c004ae4:	297fe98e 	st.h	$r14,$r12,-6(0xffa)
1c004ae8:	29400baf 	st.h	$r15,$r29,2(0x2)
1c004aec:	0020cfdd 	mod.w	$r29,$r30,$r19
1c004af0:	5c000a60 	bne	$r19,$r0,8(0x8) # 1c004af8 <core_init_matrix+0x338>
1c004af4:	002a0007 	break	0x7
1c004af8:	001c73bc 	mul.w	$r28,$r29,$r28
1c004afc:	0010763f 	add.w	$r31,$r17,$r29
1c004b00:	2980307f 	st.w	$r31,$r3,12(0xc)
1c004b04:	2a40307e 	ld.hu	$r30,$r3,12(0xc)
1c004b08:	001047d1 	add.w	$r17,$r30,$r17
1c004b0c:	29803071 	st.w	$r17,$r3,12(0xc)
1c004b10:	2a003066 	ld.bu	$r6,$r3,12(0xc)
1c004b14:	297ff19e 	st.h	$r30,$r12,-4(0xffc)
1c004b18:	29401346 	st.h	$r6,$r26,4(0x4)
1c004b1c:	0020cf86 	mod.w	$r6,$r28,$r19
1c004b20:	5c000a60 	bne	$r19,$r0,8(0x8) # 1c004b28 <core_init_matrix+0x368>
1c004b24:	002a0007 	break	0x7
1c004b28:	00101a1a 	add.w	$r26,$r16,$r6
1c004b2c:	2980307a 	st.w	$r26,$r3,12(0xc)
1c004b30:	2a40306e 	ld.hu	$r14,$r3,12(0xc)
1c004b34:	001041d0 	add.w	$r16,$r14,$r16
1c004b38:	29803070 	st.w	$r16,$r3,12(0xc)
1c004b3c:	2a00307b 	ld.bu	$r27,$r3,12(0xc)
1c004b40:	297ff98e 	st.h	$r14,$r12,-2(0xffe)
1c004b44:	2940191b 	st.h	$r27,$r8,6(0x6)
1c004b48:	6bfefa44 	bltu	$r18,$r4,-264(0x3fef8) # 1c004a40 <core_init_matrix+0x280>
1c004b4c:	02800529 	addi.w	$r9,$r9,1(0x1)
1c004b50:	00105ca5 	add.w	$r5,$r5,$r23
1c004b54:	6bfdad24 	bltu	$r9,$r4,-596(0x3fdac) # 1c004900 <core_init_matrix+0x140>
1c004b58:	0010296a 	add.w	$r10,$r11,$r10
1c004b5c:	298010f8 	st.w	$r24,$r7,4(0x4)
1c004b60:	298020eb 	st.w	$r11,$r7,8(0x8)
1c004b64:	02bff017 	addi.w	$r23,$r0,-4(0xffc)
1c004b68:	02bffd4b 	addi.w	$r11,$r10,-1(0xfff)
1c004b6c:	298000f9 	st.w	$r25,$r7,0
1c004b70:	0014dd79 	and	$r25,$r11,$r23
1c004b74:	02801325 	addi.w	$r5,$r25,4(0x4)
1c004b78:	298030e5 	st.w	$r5,$r7,12(0xc)
1c004b7c:	2880f077 	ld.w	$r23,$r3,60(0x3c)
1c004b80:	2880e078 	ld.w	$r24,$r3,56(0x38)
1c004b84:	2880d079 	ld.w	$r25,$r3,52(0x34)
1c004b88:	2880c07a 	ld.w	$r26,$r3,48(0x30)
1c004b8c:	2880b07b 	ld.w	$r27,$r3,44(0x2c)
1c004b90:	2880a07c 	ld.w	$r28,$r3,40(0x28)
1c004b94:	2880907d 	ld.w	$r29,$r3,36(0x24)
1c004b98:	2880807e 	ld.w	$r30,$r3,32(0x20)
1c004b9c:	2880707f 	ld.w	$r31,$r3,28(0x1c)
1c004ba0:	02810063 	addi.w	$r3,$r3,64(0x40)
1c004ba4:	4c000020 	jirl	$r0,$r1,0
1c004ba8:	028018ab 	addi.w	$r11,$r5,6(0x6)
1c004bac:	02bffc19 	addi.w	$r25,$r0,-1(0xfff)
1c004bb0:	02bffc04 	addi.w	$r4,$r0,-1(0xfff)
1c004bb4:	0280080a 	addi.w	$r10,$r0,2(0x2)
1c004bb8:	53fd2fff 	b	-724(0xffffd2c) # 1c0048e4 <core_init_matrix+0x124>
1c004bbc:	03400000 	andi	$r0,$r0,0x0

1c004bc0 <matrix_sum>:
matrix_sum():
1c004bc0:	58049080 	beq	$r4,$r0,1168(0x490) # 1c005050 <matrix_sum+0x490>
1c004bc4:	02bff010 	addi.w	$r16,$r0,-4(0xffc)
1c004bc8:	02bfe011 	addi.w	$r17,$r0,-8(0xff8)
1c004bcc:	001c4090 	mul.w	$r16,$r4,$r16
1c004bd0:	0040888c 	slli.w	$r12,$r4,0x2
1c004bd4:	001030ad 	add.w	$r13,$r5,$r12
1c004bd8:	02bfc063 	addi.w	$r3,$r3,-16(0xff0)
1c004bdc:	0015000f 	move	$r15,$r0
1c004be0:	0015000c 	move	$r12,$r0
1c004be4:	00150005 	move	$r5,$r0
1c004be8:	00150013 	move	$r19,$r0
1c004bec:	001c4491 	mul.w	$r17,$r4,$r17
1c004bf0:	0010360e 	add.w	$r14,$r16,$r13
1c004bf4:	001139b4 	sub.w	$r20,$r13,$r14
1c004bf8:	02bff288 	addi.w	$r8,$r20,-4(0xffc)
1c004bfc:	00448909 	srli.w	$r9,$r8,0x2
1c004c00:	0280052a 	addi.w	$r10,$r9,1(0x1)
1c004c04:	03401d4b 	andi	$r11,$r10,0x7
1c004c08:	001501d2 	move	$r18,$r14
1c004c0c:	58027560 	beq	$r11,$r0,628(0x274) # 1c004e80 <matrix_sum+0x2c0>
1c004c10:	02800407 	addi.w	$r7,$r0,1(0x1)
1c004c14:	58013567 	beq	$r11,$r7,308(0x134) # 1c004d48 <matrix_sum+0x188>
1c004c18:	02800814 	addi.w	$r20,$r0,2(0x2)
1c004c1c:	58010174 	beq	$r11,$r20,256(0x100) # 1c004d1c <matrix_sum+0x15c>
1c004c20:	02800c08 	addi.w	$r8,$r0,3(0x3)
1c004c24:	5800cd68 	beq	$r11,$r8,204(0xcc) # 1c004cf0 <matrix_sum+0x130>
1c004c28:	02801009 	addi.w	$r9,$r0,4(0x4)
1c004c2c:	58009969 	beq	$r11,$r9,152(0x98) # 1c004cc4 <matrix_sum+0x104>
1c004c30:	0280140a 	addi.w	$r10,$r0,5(0x5)
1c004c34:	5800656a 	beq	$r11,$r10,100(0x64) # 1c004c98 <matrix_sum+0xd8>
1c004c38:	02801807 	addi.w	$r7,$r0,6(0x6)
1c004c3c:	58003167 	beq	$r11,$r7,48(0x30) # 1c004c6c <matrix_sum+0xac>
1c004c40:	288001cb 	ld.w	$r11,$r14,0
1c004c44:	2980306c 	st.w	$r12,$r3,12(0xc)
1c004c48:	2a403072 	ld.hu	$r18,$r3,12(0xc)
1c004c4c:	00102e73 	add.w	$r19,$r19,$r11
1c004c50:	6403ecd3 	bge	$r6,$r19,1004(0x3ec) # 1c00503c <matrix_sum+0x47c>
1c004c54:	02802a54 	addi.w	$r20,$r18,10(0xa)
1c004c58:	29803074 	st.w	$r20,$r3,12(0xc)
1c004c5c:	2840306c 	ld.h	$r12,$r3,12(0xc)
1c004c60:	00150013 	move	$r19,$r0
1c004c64:	028011d2 	addi.w	$r18,$r14,4(0x4)
1c004c68:	00150165 	move	$r5,$r11
1c004c6c:	28800248 	ld.w	$r8,$r18,0
1c004c70:	2980306c 	st.w	$r12,$r3,12(0xc)
1c004c74:	2a403069 	ld.hu	$r9,$r3,12(0xc)
1c004c78:	00102273 	add.w	$r19,$r19,$r8
1c004c7c:	6403acd3 	bge	$r6,$r19,940(0x3ac) # 1c005028 <matrix_sum+0x468>
1c004c80:	0280292b 	addi.w	$r11,$r9,10(0xa)
1c004c84:	2980306b 	st.w	$r11,$r3,12(0xc)
1c004c88:	2840306c 	ld.h	$r12,$r3,12(0xc)
1c004c8c:	00150013 	move	$r19,$r0
1c004c90:	02801252 	addi.w	$r18,$r18,4(0x4)
1c004c94:	00150105 	move	$r5,$r8
1c004c98:	28800254 	ld.w	$r20,$r18,0
1c004c9c:	2980306c 	st.w	$r12,$r3,12(0xc)
1c004ca0:	2a40306c 	ld.hu	$r12,$r3,12(0xc)
1c004ca4:	00105273 	add.w	$r19,$r19,$r20
1c004ca8:	64036cd3 	bge	$r6,$r19,876(0x36c) # 1c005014 <matrix_sum+0x454>
1c004cac:	02802989 	addi.w	$r9,$r12,10(0xa)
1c004cb0:	29803069 	st.w	$r9,$r3,12(0xc)
1c004cb4:	2840306c 	ld.h	$r12,$r3,12(0xc)
1c004cb8:	00150013 	move	$r19,$r0
1c004cbc:	02801252 	addi.w	$r18,$r18,4(0x4)
1c004cc0:	00150285 	move	$r5,$r20
1c004cc4:	2880024a 	ld.w	$r10,$r18,0
1c004cc8:	2980306c 	st.w	$r12,$r3,12(0xc)
1c004ccc:	2a403067 	ld.hu	$r7,$r3,12(0xc)
1c004cd0:	00102a73 	add.w	$r19,$r19,$r10
1c004cd4:	64032cd3 	bge	$r6,$r19,812(0x32c) # 1c005000 <matrix_sum+0x440>
1c004cd8:	028028ec 	addi.w	$r12,$r7,10(0xa)
1c004cdc:	2980306c 	st.w	$r12,$r3,12(0xc)
1c004ce0:	2840306c 	ld.h	$r12,$r3,12(0xc)
1c004ce4:	00150013 	move	$r19,$r0
1c004ce8:	02801252 	addi.w	$r18,$r18,4(0x4)
1c004cec:	00150145 	move	$r5,$r10
1c004cf0:	28800248 	ld.w	$r8,$r18,0
1c004cf4:	2980306c 	st.w	$r12,$r3,12(0xc)
1c004cf8:	2a403069 	ld.hu	$r9,$r3,12(0xc)
1c004cfc:	00102273 	add.w	$r19,$r19,$r8
1c004d00:	6402e8d3 	bge	$r6,$r19,744(0x2e8) # 1c004fe8 <matrix_sum+0x428>
1c004d04:	02802927 	addi.w	$r7,$r9,10(0xa)
1c004d08:	29803067 	st.w	$r7,$r3,12(0xc)
1c004d0c:	2840306c 	ld.h	$r12,$r3,12(0xc)
1c004d10:	00150013 	move	$r19,$r0
1c004d14:	02801252 	addi.w	$r18,$r18,4(0x4)
1c004d18:	00150105 	move	$r5,$r8
1c004d1c:	2880024b 	ld.w	$r11,$r18,0
1c004d20:	2980306c 	st.w	$r12,$r3,12(0xc)
1c004d24:	2a403074 	ld.hu	$r20,$r3,12(0xc)
1c004d28:	00102e73 	add.w	$r19,$r19,$r11
1c004d2c:	6402a8d3 	bge	$r6,$r19,680(0x2a8) # 1c004fd4 <matrix_sum+0x414>
1c004d30:	02802a89 	addi.w	$r9,$r20,10(0xa)
1c004d34:	29803069 	st.w	$r9,$r3,12(0xc)
1c004d38:	2840306c 	ld.h	$r12,$r3,12(0xc)
1c004d3c:	00150013 	move	$r19,$r0
1c004d40:	02801252 	addi.w	$r18,$r18,4(0x4)
1c004d44:	00150165 	move	$r5,$r11
1c004d48:	2880024a 	ld.w	$r10,$r18,0
1c004d4c:	2980306c 	st.w	$r12,$r3,12(0xc)
1c004d50:	2a403067 	ld.hu	$r7,$r3,12(0xc)
1c004d54:	00102a73 	add.w	$r19,$r19,$r10
1c004d58:	640268d3 	bge	$r6,$r19,616(0x268) # 1c004fc0 <matrix_sum+0x400>
1c004d5c:	028028f4 	addi.w	$r20,$r7,10(0xa)
1c004d60:	29803074 	st.w	$r20,$r3,12(0xc)
1c004d64:	2840306c 	ld.h	$r12,$r3,12(0xc)
1c004d68:	00150013 	move	$r19,$r0
1c004d6c:	02801252 	addi.w	$r18,$r18,4(0x4)
1c004d70:	00150145 	move	$r5,$r10
1c004d74:	5c010db2 	bne	$r13,$r18,268(0x10c) # 1c004e80 <matrix_sum+0x2c0>
1c004d78:	028005ef 	addi.w	$r15,$r15,1(0x1)
1c004d7c:	001145cd 	sub.w	$r13,$r14,$r17
1c004d80:	5ffe708f 	bne	$r4,$r15,-400(0x3fe70) # 1c004bf0 <matrix_sum+0x30>
1c004d84:	00150184 	move	$r4,$r12
1c004d88:	02804063 	addi.w	$r3,$r3,16(0x10)
1c004d8c:	4c000020 	jirl	$r0,$r1,0
1c004d90:	02802987 	addi.w	$r7,$r12,10(0xa)
1c004d94:	29803067 	st.w	$r7,$r3,12(0xc)
1c004d98:	2840306a 	ld.h	$r10,$r3,12(0xc)
1c004d9c:	2880124b 	ld.w	$r11,$r18,4(0x4)
1c004da0:	00150009 	move	$r9,$r0
1c004da4:	2980306a 	st.w	$r10,$r3,12(0xc)
1c004da8:	00102d33 	add.w	$r19,$r9,$r11
1c004dac:	2a40306c 	ld.hu	$r12,$r3,12(0xc)
1c004db0:	640130d3 	bge	$r6,$r19,304(0x130) # 1c004ee0 <matrix_sum+0x320>
1c004db4:	02802988 	addi.w	$r8,$r12,10(0xa)
1c004db8:	29803068 	st.w	$r8,$r3,12(0xc)
1c004dbc:	28403074 	ld.h	$r20,$r3,12(0xc)
1c004dc0:	2880224a 	ld.w	$r10,$r18,8(0x8)
1c004dc4:	00150013 	move	$r19,$r0
1c004dc8:	29803074 	st.w	$r20,$r3,12(0xc)
1c004dcc:	00102a73 	add.w	$r19,$r19,$r10
1c004dd0:	2a403067 	ld.hu	$r7,$r3,12(0xc)
1c004dd4:	640130d3 	bge	$r6,$r19,304(0x130) # 1c004f04 <matrix_sum+0x344>
1c004dd8:	028028e9 	addi.w	$r9,$r7,10(0xa)
1c004ddc:	29803069 	st.w	$r9,$r3,12(0xc)
1c004de0:	28403065 	ld.h	$r5,$r3,12(0xc)
1c004de4:	28803254 	ld.w	$r20,$r18,12(0xc)
1c004de8:	00150013 	move	$r19,$r0
1c004dec:	29803065 	st.w	$r5,$r3,12(0xc)
1c004df0:	00105267 	add.w	$r7,$r19,$r20
1c004df4:	2a403068 	ld.hu	$r8,$r3,12(0xc)
1c004df8:	640130c7 	bge	$r6,$r7,304(0x130) # 1c004f28 <matrix_sum+0x368>
1c004dfc:	0280290c 	addi.w	$r12,$r8,10(0xa)
1c004e00:	2980306c 	st.w	$r12,$r3,12(0xc)
1c004e04:	2840306b 	ld.h	$r11,$r3,12(0xc)
1c004e08:	28804245 	ld.w	$r5,$r18,16(0x10)
1c004e0c:	00150007 	move	$r7,$r0
1c004e10:	2980306b 	st.w	$r11,$r3,12(0xc)
1c004e14:	001014e8 	add.w	$r8,$r7,$r5
1c004e18:	2a403069 	ld.hu	$r9,$r3,12(0xc)
1c004e1c:	640130c8 	bge	$r6,$r8,304(0x130) # 1c004f4c <matrix_sum+0x38c>
1c004e20:	02802933 	addi.w	$r19,$r9,10(0xa)
1c004e24:	29803073 	st.w	$r19,$r3,12(0xc)
1c004e28:	2840306a 	ld.h	$r10,$r3,12(0xc)
1c004e2c:	2880524b 	ld.w	$r11,$r18,20(0x14)
1c004e30:	00150008 	move	$r8,$r0
1c004e34:	2980306a 	st.w	$r10,$r3,12(0xc)
1c004e38:	00102d09 	add.w	$r9,$r8,$r11
1c004e3c:	2a40306c 	ld.hu	$r12,$r3,12(0xc)
1c004e40:	640130c9 	bge	$r6,$r9,304(0x130) # 1c004f70 <matrix_sum+0x3b0>
1c004e44:	02802987 	addi.w	$r7,$r12,10(0xa)
1c004e48:	29803067 	st.w	$r7,$r3,12(0xc)
1c004e4c:	28403074 	ld.h	$r20,$r3,12(0xc)
1c004e50:	28806245 	ld.w	$r5,$r18,24(0x18)
1c004e54:	00150009 	move	$r9,$r0
1c004e58:	29803074 	st.w	$r20,$r3,12(0xc)
1c004e5c:	00101533 	add.w	$r19,$r9,$r5
1c004e60:	2a40306a 	ld.hu	$r10,$r3,12(0xc)
1c004e64:	640130d3 	bge	$r6,$r19,304(0x130) # 1c004f94 <matrix_sum+0x3d4>
1c004e68:	02802949 	addi.w	$r9,$r10,10(0xa)
1c004e6c:	29803069 	st.w	$r9,$r3,12(0xc)
1c004e70:	2840306c 	ld.h	$r12,$r3,12(0xc)
1c004e74:	00150013 	move	$r19,$r0
1c004e78:	02807252 	addi.w	$r18,$r18,28(0x1c)
1c004e7c:	5bfefdb2 	beq	$r13,$r18,-260(0x3fefc) # 1c004d78 <matrix_sum+0x1b8>
1c004e80:	28800248 	ld.w	$r8,$r18,0
1c004e84:	2980306c 	st.w	$r12,$r3,12(0xc)
1c004e88:	2a40306c 	ld.hu	$r12,$r3,12(0xc)
1c004e8c:	00102273 	add.w	$r19,$r19,$r8
1c004e90:	600118d3 	blt	$r6,$r19,280(0x118) # 1c004fa8 <matrix_sum+0x3e8>
1c004e94:	001220a9 	slt	$r9,$r5,$r8
1c004e98:	0010258a 	add.w	$r10,$r12,$r9
1c004e9c:	2980306a 	st.w	$r10,$r3,12(0xc)
1c004ea0:	2840306b 	ld.h	$r11,$r3,12(0xc)
1c004ea4:	28801245 	ld.w	$r5,$r18,4(0x4)
1c004ea8:	2980306b 	st.w	$r11,$r3,12(0xc)
1c004eac:	02801252 	addi.w	$r18,$r18,4(0x4)
1c004eb0:	00101669 	add.w	$r9,$r19,$r5
1c004eb4:	2a40306c 	ld.hu	$r12,$r3,12(0xc)
1c004eb8:	63fed8c9 	blt	$r6,$r9,-296(0x3fed8) # 1c004d90 <matrix_sum+0x1d0>
1c004ebc:	00121514 	slt	$r20,$r8,$r5
1c004ec0:	00105188 	add.w	$r8,$r12,$r20
1c004ec4:	29803068 	st.w	$r8,$r3,12(0xc)
1c004ec8:	2840306a 	ld.h	$r10,$r3,12(0xc)
1c004ecc:	2880124b 	ld.w	$r11,$r18,4(0x4)
1c004ed0:	2980306a 	st.w	$r10,$r3,12(0xc)
1c004ed4:	00102d33 	add.w	$r19,$r9,$r11
1c004ed8:	2a40306c 	ld.hu	$r12,$r3,12(0xc)
1c004edc:	63fed8d3 	blt	$r6,$r19,-296(0x3fed8) # 1c004db4 <matrix_sum+0x1f4>
1c004ee0:	00122ca5 	slt	$r5,$r5,$r11
1c004ee4:	00101589 	add.w	$r9,$r12,$r5
1c004ee8:	29803069 	st.w	$r9,$r3,12(0xc)
1c004eec:	28403074 	ld.h	$r20,$r3,12(0xc)
1c004ef0:	2880224a 	ld.w	$r10,$r18,8(0x8)
1c004ef4:	29803074 	st.w	$r20,$r3,12(0xc)
1c004ef8:	00102a73 	add.w	$r19,$r19,$r10
1c004efc:	2a403067 	ld.hu	$r7,$r3,12(0xc)
1c004f00:	63fed8d3 	blt	$r6,$r19,-296(0x3fed8) # 1c004dd8 <matrix_sum+0x218>
1c004f04:	0012296b 	slt	$r11,$r11,$r10
1c004f08:	00102cec 	add.w	$r12,$r7,$r11
1c004f0c:	2980306c 	st.w	$r12,$r3,12(0xc)
1c004f10:	28403065 	ld.h	$r5,$r3,12(0xc)
1c004f14:	28803254 	ld.w	$r20,$r18,12(0xc)
1c004f18:	29803065 	st.w	$r5,$r3,12(0xc)
1c004f1c:	00105267 	add.w	$r7,$r19,$r20
1c004f20:	2a403068 	ld.hu	$r8,$r3,12(0xc)
1c004f24:	63fed8c7 	blt	$r6,$r7,-296(0x3fed8) # 1c004dfc <matrix_sum+0x23c>
1c004f28:	0012514a 	slt	$r10,$r10,$r20
1c004f2c:	00102913 	add.w	$r19,$r8,$r10
1c004f30:	29803073 	st.w	$r19,$r3,12(0xc)
1c004f34:	2840306b 	ld.h	$r11,$r3,12(0xc)
1c004f38:	28804245 	ld.w	$r5,$r18,16(0x10)
1c004f3c:	2980306b 	st.w	$r11,$r3,12(0xc)
1c004f40:	001014e8 	add.w	$r8,$r7,$r5
1c004f44:	2a403069 	ld.hu	$r9,$r3,12(0xc)
1c004f48:	63fed8c8 	blt	$r6,$r8,-296(0x3fed8) # 1c004e20 <matrix_sum+0x260>
1c004f4c:	00121694 	slt	$r20,$r20,$r5
1c004f50:	00105127 	add.w	$r7,$r9,$r20
1c004f54:	29803067 	st.w	$r7,$r3,12(0xc)
1c004f58:	2840306a 	ld.h	$r10,$r3,12(0xc)
1c004f5c:	2880524b 	ld.w	$r11,$r18,20(0x14)
1c004f60:	2980306a 	st.w	$r10,$r3,12(0xc)
1c004f64:	00102d09 	add.w	$r9,$r8,$r11
1c004f68:	2a40306c 	ld.hu	$r12,$r3,12(0xc)
1c004f6c:	63fed8c9 	blt	$r6,$r9,-296(0x3fed8) # 1c004e44 <matrix_sum+0x284>
1c004f70:	00122ca5 	slt	$r5,$r5,$r11
1c004f74:	00101588 	add.w	$r8,$r12,$r5
1c004f78:	29803068 	st.w	$r8,$r3,12(0xc)
1c004f7c:	28403074 	ld.h	$r20,$r3,12(0xc)
1c004f80:	28806245 	ld.w	$r5,$r18,24(0x18)
1c004f84:	29803074 	st.w	$r20,$r3,12(0xc)
1c004f88:	00101533 	add.w	$r19,$r9,$r5
1c004f8c:	2a40306a 	ld.hu	$r10,$r3,12(0xc)
1c004f90:	63fed8d3 	blt	$r6,$r19,-296(0x3fed8) # 1c004e68 <matrix_sum+0x2a8>
1c004f94:	0012156b 	slt	$r11,$r11,$r5
1c004f98:	00102d4c 	add.w	$r12,$r10,$r11
1c004f9c:	2980306c 	st.w	$r12,$r3,12(0xc)
1c004fa0:	2840306c 	ld.h	$r12,$r3,12(0xc)
1c004fa4:	53fed7ff 	b	-300(0xffffed4) # 1c004e78 <matrix_sum+0x2b8>
1c004fa8:	02802987 	addi.w	$r7,$r12,10(0xa)
1c004fac:	29803067 	st.w	$r7,$r3,12(0xc)
1c004fb0:	00150013 	move	$r19,$r0
1c004fb4:	2840306b 	ld.h	$r11,$r3,12(0xc)
1c004fb8:	53feefff 	b	-276(0xffffeec) # 1c004ea4 <matrix_sum+0x2e4>
1c004fbc:	03400000 	andi	$r0,$r0,0x0
1c004fc0:	001228a5 	slt	$r5,$r5,$r10
1c004fc4:	001014eb 	add.w	$r11,$r7,$r5
1c004fc8:	2980306b 	st.w	$r11,$r3,12(0xc)
1c004fcc:	2840306c 	ld.h	$r12,$r3,12(0xc)
1c004fd0:	53fd9fff 	b	-612(0xffffd9c) # 1c004d6c <matrix_sum+0x1ac>
1c004fd4:	00122cac 	slt	$r12,$r5,$r11
1c004fd8:	00103288 	add.w	$r8,$r20,$r12
1c004fdc:	29803068 	st.w	$r8,$r3,12(0xc)
1c004fe0:	2840306c 	ld.h	$r12,$r3,12(0xc)
1c004fe4:	53fd5fff 	b	-676(0xffffd5c) # 1c004d40 <matrix_sum+0x180>
1c004fe8:	001220a5 	slt	$r5,$r5,$r8
1c004fec:	0010152a 	add.w	$r10,$r9,$r5
1c004ff0:	2980306a 	st.w	$r10,$r3,12(0xc)
1c004ff4:	2840306c 	ld.h	$r12,$r3,12(0xc)
1c004ff8:	53fd1fff 	b	-740(0xffffd1c) # 1c004d14 <matrix_sum+0x154>
1c004ffc:	03400000 	andi	$r0,$r0,0x0
1c005000:	001228ab 	slt	$r11,$r5,$r10
1c005004:	00102cf4 	add.w	$r20,$r7,$r11
1c005008:	29803074 	st.w	$r20,$r3,12(0xc)
1c00500c:	2840306c 	ld.h	$r12,$r3,12(0xc)
1c005010:	53fcdbff 	b	-808(0xffffcd8) # 1c004ce8 <matrix_sum+0x128>
1c005014:	001250a5 	slt	$r5,$r5,$r20
1c005018:	00101588 	add.w	$r8,$r12,$r5
1c00501c:	29803068 	st.w	$r8,$r3,12(0xc)
1c005020:	2840306c 	ld.h	$r12,$r3,12(0xc)
1c005024:	53fc9bff 	b	-872(0xffffc98) # 1c004cbc <matrix_sum+0xfc>
1c005028:	001220aa 	slt	$r10,$r5,$r8
1c00502c:	00102927 	add.w	$r7,$r9,$r10
1c005030:	29803067 	st.w	$r7,$r3,12(0xc)
1c005034:	2840306c 	ld.h	$r12,$r3,12(0xc)
1c005038:	53fc5bff 	b	-936(0xffffc58) # 1c004c90 <matrix_sum+0xd0>
1c00503c:	00122ca5 	slt	$r5,$r5,$r11
1c005040:	0010164c 	add.w	$r12,$r18,$r5
1c005044:	2980306c 	st.w	$r12,$r3,12(0xc)
1c005048:	2840306c 	ld.h	$r12,$r3,12(0xc)
1c00504c:	53fc1bff 	b	-1000(0xffffc18) # 1c004c64 <matrix_sum+0xa4>
1c005050:	00150004 	move	$r4,$r0
1c005054:	4c000020 	jirl	$r0,$r1,0
1c005058:	03400000 	andi	$r0,$r0,0x0
1c00505c:	03400000 	andi	$r0,$r0,0x0

1c005060 <matrix_mul_const>:
matrix_mul_const():
1c005060:	58029080 	beq	$r4,$r0,656(0x290) # 1c0052f0 <matrix_mul_const+0x290>
1c005064:	02bff809 	addi.w	$r9,$r0,-2(0xffe)
1c005068:	02bff00a 	addi.w	$r10,$r0,-4(0xffc)
1c00506c:	001c2489 	mul.w	$r9,$r4,$r9
1c005070:	0040848f 	slli.w	$r15,$r4,0x1
1c005074:	0040888b 	slli.w	$r11,$r4,0x2
1c005078:	00103ccf 	add.w	$r15,$r6,$r15
1c00507c:	00150008 	move	$r8,$r0
1c005080:	001c288a 	mul.w	$r10,$r4,$r10
1c005084:	001025f0 	add.w	$r16,$r15,$r9
1c005088:	001141ee 	sub.w	$r14,$r15,$r16
1c00508c:	02bff9c6 	addi.w	$r6,$r14,-2(0xffe)
1c005090:	004484d1 	srli.w	$r17,$r6,0x1
1c005094:	02800632 	addi.w	$r18,$r17,1(0x1)
1c005098:	03401e53 	andi	$r19,$r18,0x7
1c00509c:	001500ad 	move	$r13,$r5
1c0050a0:	0015020c 	move	$r12,$r16
1c0050a4:	5800c660 	beq	$r19,$r0,196(0xc4) # 1c005168 <matrix_mul_const+0x108>
1c0050a8:	02800414 	addi.w	$r20,$r0,1(0x1)
1c0050ac:	5800a674 	beq	$r19,$r20,164(0xa4) # 1c005150 <matrix_mul_const+0xf0>
1c0050b0:	0280080e 	addi.w	$r14,$r0,2(0x2)
1c0050b4:	58008a6e 	beq	$r19,$r14,136(0x88) # 1c00513c <matrix_mul_const+0xdc>
1c0050b8:	02800c06 	addi.w	$r6,$r0,3(0x3)
1c0050bc:	58006e66 	beq	$r19,$r6,108(0x6c) # 1c005128 <matrix_mul_const+0xc8>
1c0050c0:	02801011 	addi.w	$r17,$r0,4(0x4)
1c0050c4:	58005271 	beq	$r19,$r17,80(0x50) # 1c005114 <matrix_mul_const+0xb4>
1c0050c8:	02801412 	addi.w	$r18,$r0,5(0x5)
1c0050cc:	58003672 	beq	$r19,$r18,52(0x34) # 1c005100 <matrix_mul_const+0xa0>
1c0050d0:	02801814 	addi.w	$r20,$r0,6(0x6)
1c0050d4:	58001a74 	beq	$r19,$r20,24(0x18) # 1c0050ec <matrix_mul_const+0x8c>
1c0050d8:	28400213 	ld.h	$r19,$r16,0
1c0050dc:	02800a0c 	addi.w	$r12,$r16,2(0x2)
1c0050e0:	028010ad 	addi.w	$r13,$r5,4(0x4)
1c0050e4:	001c1e6e 	mul.w	$r14,$r19,$r7
1c0050e8:	298000ae 	st.w	$r14,$r5,0
1c0050ec:	28400186 	ld.h	$r6,$r12,0
1c0050f0:	028011ad 	addi.w	$r13,$r13,4(0x4)
1c0050f4:	0280098c 	addi.w	$r12,$r12,2(0x2)
1c0050f8:	001c1cd1 	mul.w	$r17,$r6,$r7
1c0050fc:	29bff1b1 	st.w	$r17,$r13,-4(0xffc)
1c005100:	28400192 	ld.h	$r18,$r12,0
1c005104:	028011ad 	addi.w	$r13,$r13,4(0x4)
1c005108:	0280098c 	addi.w	$r12,$r12,2(0x2)
1c00510c:	001c1e54 	mul.w	$r20,$r18,$r7
1c005110:	29bff1b4 	st.w	$r20,$r13,-4(0xffc)
1c005114:	28400193 	ld.h	$r19,$r12,0
1c005118:	028011ad 	addi.w	$r13,$r13,4(0x4)
1c00511c:	0280098c 	addi.w	$r12,$r12,2(0x2)
1c005120:	001c1e6e 	mul.w	$r14,$r19,$r7
1c005124:	29bff1ae 	st.w	$r14,$r13,-4(0xffc)
1c005128:	28400186 	ld.h	$r6,$r12,0
1c00512c:	028011ad 	addi.w	$r13,$r13,4(0x4)
1c005130:	0280098c 	addi.w	$r12,$r12,2(0x2)
1c005134:	001c1cd1 	mul.w	$r17,$r6,$r7
1c005138:	29bff1b1 	st.w	$r17,$r13,-4(0xffc)
1c00513c:	28400192 	ld.h	$r18,$r12,0
1c005140:	028011ad 	addi.w	$r13,$r13,4(0x4)
1c005144:	0280098c 	addi.w	$r12,$r12,2(0x2)
1c005148:	001c1e54 	mul.w	$r20,$r18,$r7
1c00514c:	29bff1b4 	st.w	$r20,$r13,-4(0xffc)
1c005150:	28400193 	ld.h	$r19,$r12,0
1c005154:	028011ad 	addi.w	$r13,$r13,4(0x4)
1c005158:	0280098c 	addi.w	$r12,$r12,2(0x2)
1c00515c:	001c1e6e 	mul.w	$r14,$r19,$r7
1c005160:	29bff1ae 	st.w	$r14,$r13,-4(0xffc)
1c005164:	58017dec 	beq	$r15,$r12,380(0x17c) # 1c0052e0 <matrix_mul_const+0x280>
1c005168:	02bfc063 	addi.w	$r3,$r3,-16(0xff0)
1c00516c:	29803077 	st.w	$r23,$r3,12(0xc)
1c005170:	29802078 	st.w	$r24,$r3,8(0x8)
1c005174:	28400198 	ld.h	$r24,$r12,0
1c005178:	28400997 	ld.h	$r23,$r12,2(0x2)
1c00517c:	28401186 	ld.h	$r6,$r12,4(0x4)
1c005180:	28401994 	ld.h	$r20,$r12,6(0x6)
1c005184:	28402193 	ld.h	$r19,$r12,8(0x8)
1c005188:	28402992 	ld.h	$r18,$r12,10(0xa)
1c00518c:	28403191 	ld.h	$r17,$r12,12(0xc)
1c005190:	2840398e 	ld.h	$r14,$r12,14(0xe)
1c005194:	001c1f18 	mul.w	$r24,$r24,$r7
1c005198:	028081ad 	addi.w	$r13,$r13,32(0x20)
1c00519c:	0280418c 	addi.w	$r12,$r12,16(0x10)
1c0051a0:	001c1ef7 	mul.w	$r23,$r23,$r7
1c0051a4:	001c1cc6 	mul.w	$r6,$r6,$r7
1c0051a8:	29bf81b8 	st.w	$r24,$r13,-32(0xfe0)
1c0051ac:	29bf91b7 	st.w	$r23,$r13,-28(0xfe4)
1c0051b0:	001c1e94 	mul.w	$r20,$r20,$r7
1c0051b4:	001c1e73 	mul.w	$r19,$r19,$r7
1c0051b8:	29bfa1a6 	st.w	$r6,$r13,-24(0xfe8)
1c0051bc:	29bfb1b4 	st.w	$r20,$r13,-20(0xfec)
1c0051c0:	001c1e52 	mul.w	$r18,$r18,$r7
1c0051c4:	001c1e31 	mul.w	$r17,$r17,$r7
1c0051c8:	29bfc1b3 	st.w	$r19,$r13,-16(0xff0)
1c0051cc:	29bfd1b2 	st.w	$r18,$r13,-12(0xff4)
1c0051d0:	001c1dce 	mul.w	$r14,$r14,$r7
1c0051d4:	29bfe1b1 	st.w	$r17,$r13,-8(0xff8)
1c0051d8:	29bff1ae 	st.w	$r14,$r13,-4(0xffc)
1c0051dc:	5fff99ec 	bne	$r15,$r12,-104(0x3ff98) # 1c005174 <matrix_mul_const+0x114>
1c0051e0:	02800508 	addi.w	$r8,$r8,1(0x1)
1c0051e4:	00102ca5 	add.w	$r5,$r5,$r11
1c0051e8:	00112a0f 	sub.w	$r15,$r16,$r10
1c0051ec:	5800e488 	beq	$r4,$r8,228(0xe4) # 1c0052d0 <matrix_mul_const+0x270>
1c0051f0:	001025f0 	add.w	$r16,$r15,$r9
1c0051f4:	001141f8 	sub.w	$r24,$r15,$r16
1c0051f8:	02bffb17 	addi.w	$r23,$r24,-2(0xffe)
1c0051fc:	004486e6 	srli.w	$r6,$r23,0x1
1c005200:	028004d4 	addi.w	$r20,$r6,1(0x1)
1c005204:	03401e93 	andi	$r19,$r20,0x7
1c005208:	001500ad 	move	$r13,$r5
1c00520c:	0015020c 	move	$r12,$r16
1c005210:	5bff6660 	beq	$r19,$r0,-156(0x3ff64) # 1c005174 <matrix_mul_const+0x114>
1c005214:	02800412 	addi.w	$r18,$r0,1(0x1)
1c005218:	58009272 	beq	$r19,$r18,144(0x90) # 1c0052a8 <matrix_mul_const+0x248>
1c00521c:	02800811 	addi.w	$r17,$r0,2(0x2)
1c005220:	58007671 	beq	$r19,$r17,116(0x74) # 1c005294 <matrix_mul_const+0x234>
1c005224:	02800c0e 	addi.w	$r14,$r0,3(0x3)
1c005228:	58005a6e 	beq	$r19,$r14,88(0x58) # 1c005280 <matrix_mul_const+0x220>
1c00522c:	02801018 	addi.w	$r24,$r0,4(0x4)
1c005230:	58003e78 	beq	$r19,$r24,60(0x3c) # 1c00526c <matrix_mul_const+0x20c>
1c005234:	02801417 	addi.w	$r23,$r0,5(0x5)
1c005238:	58002277 	beq	$r19,$r23,32(0x20) # 1c005258 <matrix_mul_const+0x1f8>
1c00523c:	02801806 	addi.w	$r6,$r0,6(0x6)
1c005240:	5c00b666 	bne	$r19,$r6,180(0xb4) # 1c0052f4 <matrix_mul_const+0x294>
1c005244:	28400192 	ld.h	$r18,$r12,0
1c005248:	028011ad 	addi.w	$r13,$r13,4(0x4)
1c00524c:	0280098c 	addi.w	$r12,$r12,2(0x2)
1c005250:	001c1e51 	mul.w	$r17,$r18,$r7
1c005254:	29bff1b1 	st.w	$r17,$r13,-4(0xffc)
1c005258:	2840018e 	ld.h	$r14,$r12,0
1c00525c:	028011ad 	addi.w	$r13,$r13,4(0x4)
1c005260:	0280098c 	addi.w	$r12,$r12,2(0x2)
1c005264:	001c1dd8 	mul.w	$r24,$r14,$r7
1c005268:	29bff1b8 	st.w	$r24,$r13,-4(0xffc)
1c00526c:	28400197 	ld.h	$r23,$r12,0
1c005270:	028011ad 	addi.w	$r13,$r13,4(0x4)
1c005274:	0280098c 	addi.w	$r12,$r12,2(0x2)
1c005278:	001c1ee6 	mul.w	$r6,$r23,$r7
1c00527c:	29bff1a6 	st.w	$r6,$r13,-4(0xffc)
1c005280:	28400194 	ld.h	$r20,$r12,0
1c005284:	028011ad 	addi.w	$r13,$r13,4(0x4)
1c005288:	0280098c 	addi.w	$r12,$r12,2(0x2)
1c00528c:	001c1e93 	mul.w	$r19,$r20,$r7
1c005290:	29bff1b3 	st.w	$r19,$r13,-4(0xffc)
1c005294:	28400192 	ld.h	$r18,$r12,0
1c005298:	028011ad 	addi.w	$r13,$r13,4(0x4)
1c00529c:	0280098c 	addi.w	$r12,$r12,2(0x2)
1c0052a0:	001c1e51 	mul.w	$r17,$r18,$r7
1c0052a4:	29bff1b1 	st.w	$r17,$r13,-4(0xffc)
1c0052a8:	2840018e 	ld.h	$r14,$r12,0
1c0052ac:	028011ad 	addi.w	$r13,$r13,4(0x4)
1c0052b0:	0280098c 	addi.w	$r12,$r12,2(0x2)
1c0052b4:	001c1dd8 	mul.w	$r24,$r14,$r7
1c0052b8:	29bff1b8 	st.w	$r24,$r13,-4(0xffc)
1c0052bc:	5ffeb9ec 	bne	$r15,$r12,-328(0x3feb8) # 1c005174 <matrix_mul_const+0x114>
1c0052c0:	02800508 	addi.w	$r8,$r8,1(0x1)
1c0052c4:	00102ca5 	add.w	$r5,$r5,$r11
1c0052c8:	00112a0f 	sub.w	$r15,$r16,$r10
1c0052cc:	5fff2488 	bne	$r4,$r8,-220(0x3ff24) # 1c0051f0 <matrix_mul_const+0x190>
1c0052d0:	28803077 	ld.w	$r23,$r3,12(0xc)
1c0052d4:	28802078 	ld.w	$r24,$r3,8(0x8)
1c0052d8:	02804063 	addi.w	$r3,$r3,16(0x10)
1c0052dc:	4c000020 	jirl	$r0,$r1,0
1c0052e0:	02800508 	addi.w	$r8,$r8,1(0x1)
1c0052e4:	00102ca5 	add.w	$r5,$r5,$r11
1c0052e8:	00112a0f 	sub.w	$r15,$r16,$r10
1c0052ec:	5ffd9888 	bne	$r4,$r8,-616(0x3fd98) # 1c005084 <matrix_mul_const+0x24>
1c0052f0:	4c000020 	jirl	$r0,$r1,0
1c0052f4:	28400214 	ld.h	$r20,$r16,0
1c0052f8:	02800a0c 	addi.w	$r12,$r16,2(0x2)
1c0052fc:	028010ad 	addi.w	$r13,$r5,4(0x4)
1c005300:	001c1e93 	mul.w	$r19,$r20,$r7
1c005304:	298000b3 	st.w	$r19,$r5,0
1c005308:	53ff3fff 	b	-196(0xfffff3c) # 1c005244 <matrix_mul_const+0x1e4>
1c00530c:	03400000 	andi	$r0,$r0,0x0

1c005310 <matrix_add_const>:
matrix_add_const():
1c005310:	02bfc063 	addi.w	$r3,$r3,-16(0xff0)
1c005314:	29803066 	st.w	$r6,$r3,12(0xc)
1c005318:	58016080 	beq	$r4,$r0,352(0x160) # 1c005478 <matrix_add_const+0x168>
1c00531c:	02bff808 	addi.w	$r8,$r0,-2(0xffe)
1c005320:	02bff009 	addi.w	$r9,$r0,-4(0xffc)
1c005324:	001c2088 	mul.w	$r8,$r4,$r8
1c005328:	2a40306e 	ld.hu	$r14,$r3,12(0xc)
1c00532c:	0040848c 	slli.w	$r12,$r4,0x1
1c005330:	001030af 	add.w	$r15,$r5,$r12
1c005334:	00150007 	move	$r7,$r0
1c005338:	001c2489 	mul.w	$r9,$r4,$r9
1c00533c:	03400000 	andi	$r0,$r0,0x0
1c005340:	00103d10 	add.w	$r16,$r8,$r15
1c005344:	001141ed 	sub.w	$r13,$r15,$r16
1c005348:	02bff9a5 	addi.w	$r5,$r13,-2(0xffe)
1c00534c:	004484aa 	srli.w	$r10,$r5,0x1
1c005350:	0280054b 	addi.w	$r11,$r10,1(0x1)
1c005354:	03401d72 	andi	$r18,$r11,0x7
1c005358:	0015020c 	move	$r12,$r16
1c00535c:	5800aa40 	beq	$r18,$r0,168(0xa8) # 1c005404 <matrix_add_const+0xf4>
1c005360:	02800411 	addi.w	$r17,$r0,1(0x1)
1c005364:	58008e51 	beq	$r18,$r17,140(0x8c) # 1c0053f0 <matrix_add_const+0xe0>
1c005368:	02800813 	addi.w	$r19,$r0,2(0x2)
1c00536c:	58007653 	beq	$r18,$r19,116(0x74) # 1c0053e0 <matrix_add_const+0xd0>
1c005370:	02800c14 	addi.w	$r20,$r0,3(0x3)
1c005374:	58005e54 	beq	$r18,$r20,92(0x5c) # 1c0053d0 <matrix_add_const+0xc0>
1c005378:	02801006 	addi.w	$r6,$r0,4(0x4)
1c00537c:	58004646 	beq	$r18,$r6,68(0x44) # 1c0053c0 <matrix_add_const+0xb0>
1c005380:	0280140d 	addi.w	$r13,$r0,5(0x5)
1c005384:	58002e4d 	beq	$r18,$r13,44(0x2c) # 1c0053b0 <matrix_add_const+0xa0>
1c005388:	02801805 	addi.w	$r5,$r0,6(0x6)
1c00538c:	58001645 	beq	$r18,$r5,20(0x14) # 1c0053a0 <matrix_add_const+0x90>
1c005390:	2a40020a 	ld.hu	$r10,$r16,0
1c005394:	02800a0c 	addi.w	$r12,$r16,2(0x2)
1c005398:	001029cb 	add.w	$r11,$r14,$r10
1c00539c:	2940020b 	st.h	$r11,$r16,0
1c0053a0:	2a400192 	ld.hu	$r18,$r12,0
1c0053a4:	0280098c 	addi.w	$r12,$r12,2(0x2)
1c0053a8:	001049d1 	add.w	$r17,$r14,$r18
1c0053ac:	297ff991 	st.h	$r17,$r12,-2(0xffe)
1c0053b0:	2a400193 	ld.hu	$r19,$r12,0
1c0053b4:	0280098c 	addi.w	$r12,$r12,2(0x2)
1c0053b8:	00104dd4 	add.w	$r20,$r14,$r19
1c0053bc:	297ff994 	st.h	$r20,$r12,-2(0xffe)
1c0053c0:	2a400186 	ld.hu	$r6,$r12,0
1c0053c4:	0280098c 	addi.w	$r12,$r12,2(0x2)
1c0053c8:	001019cd 	add.w	$r13,$r14,$r6
1c0053cc:	297ff98d 	st.h	$r13,$r12,-2(0xffe)
1c0053d0:	2a400185 	ld.hu	$r5,$r12,0
1c0053d4:	0280098c 	addi.w	$r12,$r12,2(0x2)
1c0053d8:	001015ca 	add.w	$r10,$r14,$r5
1c0053dc:	297ff98a 	st.h	$r10,$r12,-2(0xffe)
1c0053e0:	2a40018b 	ld.hu	$r11,$r12,0
1c0053e4:	0280098c 	addi.w	$r12,$r12,2(0x2)
1c0053e8:	00102dd2 	add.w	$r18,$r14,$r11
1c0053ec:	297ff992 	st.h	$r18,$r12,-2(0xffe)
1c0053f0:	2a400191 	ld.hu	$r17,$r12,0
1c0053f4:	0280098c 	addi.w	$r12,$r12,2(0x2)
1c0053f8:	001045d3 	add.w	$r19,$r14,$r17
1c0053fc:	297ff993 	st.h	$r19,$r12,-2(0xffe)
1c005400:	58006dec 	beq	$r15,$r12,108(0x6c) # 1c00546c <matrix_add_const+0x15c>
1c005404:	2a40218b 	ld.hu	$r11,$r12,8(0x8)
1c005408:	2a402992 	ld.hu	$r18,$r12,10(0xa)
1c00540c:	2a40018a 	ld.hu	$r10,$r12,0
1c005410:	2a400986 	ld.hu	$r6,$r12,2(0x2)
1c005414:	2a401185 	ld.hu	$r5,$r12,4(0x4)
1c005418:	2a401994 	ld.hu	$r20,$r12,6(0x6)
1c00541c:	2a403191 	ld.hu	$r17,$r12,12(0xc)
1c005420:	2a40398d 	ld.hu	$r13,$r12,14(0xe)
1c005424:	00102dd3 	add.w	$r19,$r14,$r11
1c005428:	0280418c 	addi.w	$r12,$r12,16(0x10)
1c00542c:	001049cb 	add.w	$r11,$r14,$r18
1c005430:	001029ca 	add.w	$r10,$r14,$r10
1c005434:	001045d2 	add.w	$r18,$r14,$r17
1c005438:	001019c6 	add.w	$r6,$r14,$r6
1c00543c:	001015c5 	add.w	$r5,$r14,$r5
1c005440:	001051d4 	add.w	$r20,$r14,$r20
1c005444:	001035d1 	add.w	$r17,$r14,$r13
1c005448:	297fc18a 	st.h	$r10,$r12,-16(0xff0)
1c00544c:	297fc986 	st.h	$r6,$r12,-14(0xff2)
1c005450:	297fd185 	st.h	$r5,$r12,-12(0xff4)
1c005454:	297fd994 	st.h	$r20,$r12,-10(0xff6)
1c005458:	297fe193 	st.h	$r19,$r12,-8(0xff8)
1c00545c:	297fe98b 	st.h	$r11,$r12,-6(0xffa)
1c005460:	297ff192 	st.h	$r18,$r12,-4(0xffc)
1c005464:	297ff991 	st.h	$r17,$r12,-2(0xffe)
1c005468:	5fff9dec 	bne	$r15,$r12,-100(0x3ff9c) # 1c005404 <matrix_add_const+0xf4>
1c00546c:	028004e7 	addi.w	$r7,$r7,1(0x1)
1c005470:	0011260f 	sub.w	$r15,$r16,$r9
1c005474:	5ffecc87 	bne	$r4,$r7,-308(0x3fecc) # 1c005340 <matrix_add_const+0x30>
1c005478:	02804063 	addi.w	$r3,$r3,16(0x10)
1c00547c:	4c000020 	jirl	$r0,$r1,0

1c005480 <matrix_mul_vect>:
matrix_mul_vect():
1c005480:	58022880 	beq	$r4,$r0,552(0x228) # 1c0056a8 <matrix_mul_vect+0x228>
1c005484:	02bf8063 	addi.w	$r3,$r3,-32(0xfe0)
1c005488:	001500ac 	move	$r12,$r5
1c00548c:	2980307a 	st.w	$r26,$r3,12(0xc)
1c005490:	0040889a 	slli.w	$r26,$r4,0x2
1c005494:	29805078 	st.w	$r24,$r3,20(0x14)
1c005498:	29804079 	st.w	$r25,$r3,16(0x10)
1c00549c:	00150098 	move	$r24,$r4
1c0054a0:	001500d9 	move	$r25,$r6
1c0054a4:	00150005 	move	$r5,$r0
1c0054a8:	00150346 	move	$r6,$r26
1c0054ac:	00150184 	move	$r4,$r12
1c0054b0:	29806077 	st.w	$r23,$r3,24(0x18)
1c0054b4:	29807061 	st.w	$r1,$r3,28(0x1c)
1c0054b8:	001500f7 	move	$r23,$r7
1c0054bc:	2980207b 	st.w	$r27,$r3,8(0x8)
1c0054c0:	2980107c 	st.w	$r28,$r3,4(0x4)
1c0054c4:	54467c00 	bl	18044(0x467c) # 1c009b40 <memset>
1c0054c8:	02bff807 	addi.w	$r7,$r0,-2(0xffe)
1c0054cc:	02bff008 	addi.w	$r8,$r0,-4(0xffc)
1c0054d0:	001c1f07 	mul.w	$r7,$r24,$r7
1c0054d4:	00408706 	slli.w	$r6,$r24,0x1
1c0054d8:	00150085 	move	$r5,$r4
1c0054dc:	00101b32 	add.w	$r18,$r25,$r6
1c0054e0:	00106884 	add.w	$r4,$r4,$r26
1c0054e4:	001c2308 	mul.w	$r8,$r24,$r8
1c0054e8:	001048f3 	add.w	$r19,$r7,$r18
1c0054ec:	00114e50 	sub.w	$r16,$r18,$r19
1c0054f0:	02bffa01 	addi.w	$r1,$r16,-2(0xffe)
1c0054f4:	00448429 	srli.w	$r9,$r1,0x1
1c0054f8:	0280052a 	addi.w	$r10,$r9,1(0x1)
1c0054fc:	03401d4b 	andi	$r11,$r10,0x7
1c005500:	001502ed 	move	$r13,$r23
1c005504:	00150011 	move	$r17,$r0
1c005508:	0015026c 	move	$r12,$r19
1c00550c:	5800dd60 	beq	$r11,$r0,220(0xdc) # 1c0055e8 <matrix_mul_vect+0x168>
1c005510:	0280040e 	addi.w	$r14,$r0,1(0x1)
1c005514:	5800b96e 	beq	$r11,$r14,184(0xb8) # 1c0055cc <matrix_mul_vect+0x14c>
1c005518:	0280080f 	addi.w	$r15,$r0,2(0x2)
1c00551c:	5800996f 	beq	$r11,$r15,152(0x98) # 1c0055b4 <matrix_mul_vect+0x134>
1c005520:	02800c14 	addi.w	$r20,$r0,3(0x3)
1c005524:	58007974 	beq	$r11,$r20,120(0x78) # 1c00559c <matrix_mul_vect+0x11c>
1c005528:	0280101b 	addi.w	$r27,$r0,4(0x4)
1c00552c:	5800597b 	beq	$r11,$r27,88(0x58) # 1c005584 <matrix_mul_vect+0x104>
1c005530:	0280141c 	addi.w	$r28,$r0,5(0x5)
1c005534:	5800397c 	beq	$r11,$r28,56(0x38) # 1c00556c <matrix_mul_vect+0xec>
1c005538:	02801819 	addi.w	$r25,$r0,6(0x6)
1c00553c:	58001979 	beq	$r11,$r25,24(0x18) # 1c005554 <matrix_mul_vect+0xd4>
1c005540:	28400271 	ld.h	$r17,$r19,0
1c005544:	284002f8 	ld.h	$r24,$r23,0
1c005548:	02800a6c 	addi.w	$r12,$r19,2(0x2)
1c00554c:	02800aed 	addi.w	$r13,$r23,2(0x2)
1c005550:	001c6231 	mul.w	$r17,$r17,$r24
1c005554:	2840019a 	ld.h	$r26,$r12,0
1c005558:	284001a6 	ld.h	$r6,$r13,0
1c00555c:	0280098c 	addi.w	$r12,$r12,2(0x2)
1c005560:	028009ad 	addi.w	$r13,$r13,2(0x2)
1c005564:	001c1b50 	mul.w	$r16,$r26,$r6
1c005568:	00104231 	add.w	$r17,$r17,$r16
1c00556c:	28400181 	ld.h	$r1,$r12,0
1c005570:	284001a9 	ld.h	$r9,$r13,0
1c005574:	0280098c 	addi.w	$r12,$r12,2(0x2)
1c005578:	028009ad 	addi.w	$r13,$r13,2(0x2)
1c00557c:	001c242a 	mul.w	$r10,$r1,$r9
1c005580:	00102a31 	add.w	$r17,$r17,$r10
1c005584:	2840018b 	ld.h	$r11,$r12,0
1c005588:	284001ae 	ld.h	$r14,$r13,0
1c00558c:	0280098c 	addi.w	$r12,$r12,2(0x2)
1c005590:	028009ad 	addi.w	$r13,$r13,2(0x2)
1c005594:	001c396f 	mul.w	$r15,$r11,$r14
1c005598:	00103e31 	add.w	$r17,$r17,$r15
1c00559c:	28400194 	ld.h	$r20,$r12,0
1c0055a0:	284001bb 	ld.h	$r27,$r13,0
1c0055a4:	0280098c 	addi.w	$r12,$r12,2(0x2)
1c0055a8:	028009ad 	addi.w	$r13,$r13,2(0x2)
1c0055ac:	001c6e9c 	mul.w	$r28,$r20,$r27
1c0055b0:	00107231 	add.w	$r17,$r17,$r28
1c0055b4:	28400199 	ld.h	$r25,$r12,0
1c0055b8:	284001b8 	ld.h	$r24,$r13,0
1c0055bc:	0280098c 	addi.w	$r12,$r12,2(0x2)
1c0055c0:	028009ad 	addi.w	$r13,$r13,2(0x2)
1c0055c4:	001c633a 	mul.w	$r26,$r25,$r24
1c0055c8:	00106a31 	add.w	$r17,$r17,$r26
1c0055cc:	28400186 	ld.h	$r6,$r12,0
1c0055d0:	284001b0 	ld.h	$r16,$r13,0
1c0055d4:	0280098c 	addi.w	$r12,$r12,2(0x2)
1c0055d8:	028009ad 	addi.w	$r13,$r13,2(0x2)
1c0055dc:	001c40c1 	mul.w	$r1,$r6,$r16
1c0055e0:	00100631 	add.w	$r17,$r17,$r1
1c0055e4:	5800924c 	beq	$r18,$r12,144(0x90) # 1c005674 <matrix_mul_vect+0x1f4>
1c0055e8:	28400198 	ld.h	$r24,$r12,0
1c0055ec:	284001af 	ld.h	$r15,$r13,0
1c0055f0:	2840098e 	ld.h	$r14,$r12,2(0x2)
1c0055f4:	284009b4 	ld.h	$r20,$r13,2(0x2)
1c0055f8:	28401199 	ld.h	$r25,$r12,4(0x4)
1c0055fc:	001c3f01 	mul.w	$r1,$r24,$r15
1c005600:	284011ab 	ld.h	$r11,$r13,4(0x4)
1c005604:	284019b0 	ld.h	$r16,$r13,6(0x6)
1c005608:	2840198a 	ld.h	$r10,$r12,6(0x6)
1c00560c:	284021a9 	ld.h	$r9,$r13,8(0x8)
1c005610:	2840219c 	ld.h	$r28,$r12,8(0x8)
1c005614:	28402986 	ld.h	$r6,$r12,10(0xa)
1c005618:	284029bb 	ld.h	$r27,$r13,10(0xa)
1c00561c:	2840318f 	ld.h	$r15,$r12,12(0xc)
1c005620:	284031ba 	ld.h	$r26,$r13,12(0xc)
1c005624:	0280418c 	addi.w	$r12,$r12,16(0x10)
1c005628:	028041ad 	addi.w	$r13,$r13,16(0x10)
1c00562c:	001c51d8 	mul.w	$r24,$r14,$r20
1c005630:	287ff98e 	ld.h	$r14,$r12,-2(0xffe)
1c005634:	00100631 	add.w	$r17,$r17,$r1
1c005638:	001c2f2b 	mul.w	$r11,$r25,$r11
1c00563c:	287ff9b9 	ld.h	$r25,$r13,-2(0xffe)
1c005640:	001c414a 	mul.w	$r10,$r10,$r16
1c005644:	001c279c 	mul.w	$r28,$r28,$r9
1c005648:	001c6cc9 	mul.w	$r9,$r6,$r27
1c00564c:	00106226 	add.w	$r6,$r17,$r24
1c005650:	00102cdb 	add.w	$r27,$r6,$r11
1c005654:	00102b61 	add.w	$r1,$r27,$r10
1c005658:	00107038 	add.w	$r24,$r1,$r28
1c00565c:	001c69f4 	mul.w	$r20,$r15,$r26
1c005660:	0010270f 	add.w	$r15,$r24,$r9
1c005664:	001c65d0 	mul.w	$r16,$r14,$r25
1c005668:	001051fa 	add.w	$r26,$r15,$r20
1c00566c:	00104351 	add.w	$r17,$r26,$r16
1c005670:	5fff7a4c 	bne	$r18,$r12,-136(0x3ff78) # 1c0055e8 <matrix_mul_vect+0x168>
1c005674:	298000b1 	st.w	$r17,$r5,0
1c005678:	028010a5 	addi.w	$r5,$r5,4(0x4)
1c00567c:	00112272 	sub.w	$r18,$r19,$r8
1c005680:	5ffe6885 	bne	$r4,$r5,-408(0x3fe68) # 1c0054e8 <matrix_mul_vect+0x68>
1c005684:	28807061 	ld.w	$r1,$r3,28(0x1c)
1c005688:	28806077 	ld.w	$r23,$r3,24(0x18)
1c00568c:	28805078 	ld.w	$r24,$r3,20(0x14)
1c005690:	28804079 	ld.w	$r25,$r3,16(0x10)
1c005694:	2880307a 	ld.w	$r26,$r3,12(0xc)
1c005698:	2880207b 	ld.w	$r27,$r3,8(0x8)
1c00569c:	2880107c 	ld.w	$r28,$r3,4(0x4)
1c0056a0:	02808063 	addi.w	$r3,$r3,32(0x20)
1c0056a4:	4c000020 	jirl	$r0,$r1,0
1c0056a8:	4c000020 	jirl	$r0,$r1,0
1c0056ac:	03400000 	andi	$r0,$r0,0x0

1c0056b0 <matrix_mul_matrix>:
matrix_mul_matrix():
1c0056b0:	58027480 	beq	$r4,$r0,628(0x274) # 1c005924 <matrix_mul_matrix+0x274>
1c0056b4:	02bf4063 	addi.w	$r3,$r3,-48(0xfd0)
1c0056b8:	29807079 	st.w	$r25,$r3,28(0x1c)
1c0056bc:	2980307d 	st.w	$r29,$r3,12(0xc)
1c0056c0:	00408499 	slli.w	$r25,$r4,0x1
1c0056c4:	0040889d 	slli.w	$r29,$r4,0x2
1c0056c8:	29809077 	st.w	$r23,$r3,36(0x24)
1c0056cc:	29808078 	st.w	$r24,$r3,32(0x20)
1c0056d0:	2980607a 	st.w	$r26,$r3,24(0x18)
1c0056d4:	2980507b 	st.w	$r27,$r3,20(0x14)
1c0056d8:	2980407c 	st.w	$r28,$r3,16(0x10)
1c0056dc:	2980207e 	st.w	$r30,$r3,8(0x8)
1c0056e0:	2980b061 	st.w	$r1,$r3,44(0x2c)
1c0056e4:	2980a076 	st.w	$r22,$r3,40(0x28)
1c0056e8:	2980107f 	st.w	$r31,$r3,4(0x4)
1c0056ec:	001500f8 	move	$r24,$r7
1c0056f0:	001500b0 	move	$r16,$r5
1c0056f4:	00150097 	move	$r23,$r4
1c0056f8:	001500db 	move	$r27,$r6
1c0056fc:	001074bc 	add.w	$r28,$r5,$r29
1c005700:	001064da 	add.w	$r26,$r6,$r25
1c005704:	0015001e 	move	$r30,$r0
1c005708:	00150204 	move	$r4,$r16
1c00570c:	001503a6 	move	$r6,$r29
1c005710:	00150005 	move	$r5,$r0
1c005714:	54442c00 	bl	17452(0x442c) # 1c009b40 <memset>
1c005718:	00150090 	move	$r16,$r4
1c00571c:	00150312 	move	$r18,$r24
1c005720:	00150091 	move	$r17,$r4
1c005724:	00116f4e 	sub.w	$r14,$r26,$r27
1c005728:	02bff9c1 	addi.w	$r1,$r14,-2(0xffe)
1c00572c:	00448424 	srli.w	$r4,$r1,0x1
1c005730:	02800485 	addi.w	$r5,$r4,1(0x1)
1c005734:	03401ca6 	andi	$r6,$r5,0x7
1c005738:	0015024d 	move	$r13,$r18
1c00573c:	0015036c 	move	$r12,$r27
1c005740:	00150013 	move	$r19,$r0
1c005744:	5800dcc0 	beq	$r6,$r0,220(0xdc) # 1c005820 <matrix_mul_matrix+0x170>
1c005748:	0280040f 	addi.w	$r15,$r0,1(0x1)
1c00574c:	5800b8cf 	beq	$r6,$r15,184(0xb8) # 1c005804 <matrix_mul_matrix+0x154>
1c005750:	02800807 	addi.w	$r7,$r0,2(0x2)
1c005754:	580098c7 	beq	$r6,$r7,152(0x98) # 1c0057ec <matrix_mul_matrix+0x13c>
1c005758:	02800c08 	addi.w	$r8,$r0,3(0x3)
1c00575c:	580078c8 	beq	$r6,$r8,120(0x78) # 1c0057d4 <matrix_mul_matrix+0x124>
1c005760:	02801009 	addi.w	$r9,$r0,4(0x4)
1c005764:	580058c9 	beq	$r6,$r9,88(0x58) # 1c0057bc <matrix_mul_matrix+0x10c>
1c005768:	0280140a 	addi.w	$r10,$r0,5(0x5)
1c00576c:	580038ca 	beq	$r6,$r10,56(0x38) # 1c0057a4 <matrix_mul_matrix+0xf4>
1c005770:	0280180b 	addi.w	$r11,$r0,6(0x6)
1c005774:	580018cb 	beq	$r6,$r11,24(0x18) # 1c00578c <matrix_mul_matrix+0xdc>
1c005778:	28400373 	ld.h	$r19,$r27,0
1c00577c:	28400254 	ld.h	$r20,$r18,0
1c005780:	02800b6c 	addi.w	$r12,$r27,2(0x2)
1c005784:	0010664d 	add.w	$r13,$r18,$r25
1c005788:	001c5273 	mul.w	$r19,$r19,$r20
1c00578c:	28400196 	ld.h	$r22,$r12,0
1c005790:	284001bf 	ld.h	$r31,$r13,0
1c005794:	0280098c 	addi.w	$r12,$r12,2(0x2)
1c005798:	001065ad 	add.w	$r13,$r13,$r25
1c00579c:	001c7ece 	mul.w	$r14,$r22,$r31
1c0057a0:	00103a73 	add.w	$r19,$r19,$r14
1c0057a4:	28400181 	ld.h	$r1,$r12,0
1c0057a8:	284001a4 	ld.h	$r4,$r13,0
1c0057ac:	0280098c 	addi.w	$r12,$r12,2(0x2)
1c0057b0:	001065ad 	add.w	$r13,$r13,$r25
1c0057b4:	001c1025 	mul.w	$r5,$r1,$r4
1c0057b8:	00101673 	add.w	$r19,$r19,$r5
1c0057bc:	28400186 	ld.h	$r6,$r12,0
1c0057c0:	284001af 	ld.h	$r15,$r13,0
1c0057c4:	0280098c 	addi.w	$r12,$r12,2(0x2)
1c0057c8:	001065ad 	add.w	$r13,$r13,$r25
1c0057cc:	001c3cc7 	mul.w	$r7,$r6,$r15
1c0057d0:	00101e73 	add.w	$r19,$r19,$r7
1c0057d4:	28400188 	ld.h	$r8,$r12,0
1c0057d8:	284001a9 	ld.h	$r9,$r13,0
1c0057dc:	0280098c 	addi.w	$r12,$r12,2(0x2)
1c0057e0:	001065ad 	add.w	$r13,$r13,$r25
1c0057e4:	001c250a 	mul.w	$r10,$r8,$r9
1c0057e8:	00102a73 	add.w	$r19,$r19,$r10
1c0057ec:	2840018b 	ld.h	$r11,$r12,0
1c0057f0:	284001b4 	ld.h	$r20,$r13,0
1c0057f4:	0280098c 	addi.w	$r12,$r12,2(0x2)
1c0057f8:	001065ad 	add.w	$r13,$r13,$r25
1c0057fc:	001c5176 	mul.w	$r22,$r11,$r20
1c005800:	00105a73 	add.w	$r19,$r19,$r22
1c005804:	2840019f 	ld.h	$r31,$r12,0
1c005808:	284001ae 	ld.h	$r14,$r13,0
1c00580c:	0280098c 	addi.w	$r12,$r12,2(0x2)
1c005810:	001065ad 	add.w	$r13,$r13,$r25
1c005814:	001c3be1 	mul.w	$r1,$r31,$r14
1c005818:	00100673 	add.w	$r19,$r19,$r1
1c00581c:	5800af4c 	beq	$r26,$r12,172(0xac) # 1c0058c8 <matrix_mul_matrix+0x218>
1c005820:	001065a4 	add.w	$r4,$r13,$r25
1c005824:	2840018a 	ld.h	$r10,$r12,0
1c005828:	284001af 	ld.h	$r15,$r13,0
1c00582c:	00106485 	add.w	$r5,$r4,$r25
1c005830:	28400996 	ld.h	$r22,$r12,2(0x2)
1c005834:	28400089 	ld.h	$r9,$r4,0
1c005838:	001c3d41 	mul.w	$r1,$r10,$r15
1c00583c:	001064bf 	add.w	$r31,$r5,$r25
1c005840:	28401188 	ld.h	$r8,$r12,4(0x4)
1c005844:	28401987 	ld.h	$r7,$r12,6(0x6)
1c005848:	284000ab 	ld.h	$r11,$r5,0
1c00584c:	001067f4 	add.w	$r20,$r31,$r25
1c005850:	284003e4 	ld.h	$r4,$r31,0
1c005854:	28402186 	ld.h	$r6,$r12,8(0x8)
1c005858:	2840298e 	ld.h	$r14,$r12,10(0xa)
1c00585c:	0010668d 	add.w	$r13,$r20,$r25
1c005860:	28400285 	ld.h	$r5,$r20,0
1c005864:	001065aa 	add.w	$r10,$r13,$r25
1c005868:	2840318f 	ld.h	$r15,$r12,12(0xc)
1c00586c:	2840399f 	ld.h	$r31,$r12,14(0xe)
1c005870:	0280418c 	addi.w	$r12,$r12,16(0x10)
1c005874:	001c26c9 	mul.w	$r9,$r22,$r9
1c005878:	284001b6 	ld.h	$r22,$r13,0
1c00587c:	00100673 	add.w	$r19,$r19,$r1
1c005880:	001c2d08 	mul.w	$r8,$r8,$r11
1c005884:	0010654b 	add.w	$r11,$r10,$r25
1c005888:	28400174 	ld.h	$r20,$r11,0
1c00588c:	0010656d 	add.w	$r13,$r11,$r25
1c005890:	001c10e7 	mul.w	$r7,$r7,$r4
1c005894:	28400144 	ld.h	$r4,$r10,0
1c005898:	001c14c6 	mul.w	$r6,$r6,$r5
1c00589c:	001c59c5 	mul.w	$r5,$r14,$r22
1c0058a0:	0010266e 	add.w	$r14,$r19,$r9
1c0058a4:	001021c1 	add.w	$r1,$r14,$r8
1c0058a8:	001c11ea 	mul.w	$r10,$r15,$r4
1c0058ac:	00101c2f 	add.w	$r15,$r1,$r7
1c0058b0:	001019e9 	add.w	$r9,$r15,$r6
1c0058b4:	00101528 	add.w	$r8,$r9,$r5
1c0058b8:	001c53f6 	mul.w	$r22,$r31,$r20
1c0058bc:	0010291f 	add.w	$r31,$r8,$r10
1c0058c0:	00105bf3 	add.w	$r19,$r31,$r22
1c0058c4:	5fff5f4c 	bne	$r26,$r12,-164(0x3ff5c) # 1c005820 <matrix_mul_matrix+0x170>
1c0058c8:	29800233 	st.w	$r19,$r17,0
1c0058cc:	02801231 	addi.w	$r17,$r17,4(0x4)
1c0058d0:	02800a52 	addi.w	$r18,$r18,2(0x2)
1c0058d4:	5ffe5391 	bne	$r28,$r17,-432(0x3fe50) # 1c005724 <matrix_mul_matrix+0x74>
1c0058d8:	028007de 	addi.w	$r30,$r30,1(0x1)
1c0058dc:	00107610 	add.w	$r16,$r16,$r29
1c0058e0:	0010779c 	add.w	$r28,$r28,$r29
1c0058e4:	0010677b 	add.w	$r27,$r27,$r25
1c0058e8:	0010675a 	add.w	$r26,$r26,$r25
1c0058ec:	5ffe1efe 	bne	$r23,$r30,-484(0x3fe1c) # 1c005708 <matrix_mul_matrix+0x58>
1c0058f0:	2880b061 	ld.w	$r1,$r3,44(0x2c)
1c0058f4:	2880a076 	ld.w	$r22,$r3,40(0x28)
1c0058f8:	28809077 	ld.w	$r23,$r3,36(0x24)
1c0058fc:	28808078 	ld.w	$r24,$r3,32(0x20)
1c005900:	28807079 	ld.w	$r25,$r3,28(0x1c)
1c005904:	2880607a 	ld.w	$r26,$r3,24(0x18)
1c005908:	2880507b 	ld.w	$r27,$r3,20(0x14)
1c00590c:	2880407c 	ld.w	$r28,$r3,16(0x10)
1c005910:	2880307d 	ld.w	$r29,$r3,12(0xc)
1c005914:	2880207e 	ld.w	$r30,$r3,8(0x8)
1c005918:	2880107f 	ld.w	$r31,$r3,4(0x4)
1c00591c:	0280c063 	addi.w	$r3,$r3,48(0x30)
1c005920:	4c000020 	jirl	$r0,$r1,0
1c005924:	4c000020 	jirl	$r0,$r1,0
1c005928:	03400000 	andi	$r0,$r0,0x0
1c00592c:	03400000 	andi	$r0,$r0,0x0

1c005930 <matrix_mul_matrix_bitextract>:
matrix_mul_matrix_bitextract():
1c005930:	58022480 	beq	$r4,$r0,548(0x224) # 1c005b54 <matrix_mul_matrix_bitextract+0x224>
1c005934:	02bf4063 	addi.w	$r3,$r3,-48(0xfd0)
1c005938:	29808079 	st.w	$r25,$r3,32(0x20)
1c00593c:	2980407d 	st.w	$r29,$r3,16(0x10)
1c005940:	00408499 	slli.w	$r25,$r4,0x1
1c005944:	0040889d 	slli.w	$r29,$r4,0x2
1c005948:	2980a077 	st.w	$r23,$r3,40(0x28)
1c00594c:	29809078 	st.w	$r24,$r3,36(0x24)
1c005950:	2980707a 	st.w	$r26,$r3,28(0x1c)
1c005954:	2980607b 	st.w	$r27,$r3,24(0x18)
1c005958:	2980507c 	st.w	$r28,$r3,20(0x14)
1c00595c:	2980307e 	st.w	$r30,$r3,12(0xc)
1c005960:	2980b061 	st.w	$r1,$r3,44(0x2c)
1c005964:	001500f8 	move	$r24,$r7
1c005968:	001500b1 	move	$r17,$r5
1c00596c:	00150097 	move	$r23,$r4
1c005970:	001500db 	move	$r27,$r6
1c005974:	001074bc 	add.w	$r28,$r5,$r29
1c005978:	001064da 	add.w	$r26,$r6,$r25
1c00597c:	0015001e 	move	$r30,$r0
1c005980:	00150224 	move	$r4,$r17
1c005984:	001503a6 	move	$r6,$r29
1c005988:	00150005 	move	$r5,$r0
1c00598c:	5441b400 	bl	16820(0x41b4) # 1c009b40 <memset>
1c005990:	00150091 	move	$r17,$r4
1c005994:	00150314 	move	$r20,$r24
1c005998:	00150093 	move	$r19,$r4
1c00599c:	03400000 	andi	$r0,$r0,0x0
1c0059a0:	00116f4c 	sub.w	$r12,$r26,$r27
1c0059a4:	02bff981 	addi.w	$r1,$r12,-2(0xffe)
1c0059a8:	00448425 	srli.w	$r5,$r1,0x1
1c0059ac:	028004a6 	addi.w	$r6,$r5,1(0x1)
1c0059b0:	03400cc7 	andi	$r7,$r6,0x3
1c0059b4:	00150292 	move	$r18,$r20
1c0059b8:	00150370 	move	$r16,$r27
1c0059bc:	00150004 	move	$r4,$r0
1c0059c0:	580098e0 	beq	$r7,$r0,152(0x98) # 1c005a58 <matrix_mul_matrix_bitextract+0x128>
1c0059c4:	0280040d 	addi.w	$r13,$r0,1(0x1)
1c0059c8:	580060ed 	beq	$r7,$r13,96(0x60) # 1c005a28 <matrix_mul_matrix_bitextract+0xf8>
1c0059cc:	02800808 	addi.w	$r8,$r0,2(0x2)
1c0059d0:	58002ce8 	beq	$r7,$r8,44(0x2c) # 1c0059fc <matrix_mul_matrix_bitextract+0xcc>
1c0059d4:	28400364 	ld.h	$r4,$r27,0
1c0059d8:	28400289 	ld.h	$r9,$r20,0
1c0059dc:	02800b70 	addi.w	$r16,$r27,2(0x2)
1c0059e0:	00106692 	add.w	$r18,$r20,$r25
1c0059e4:	001c248a 	mul.w	$r10,$r4,$r9
1c0059e8:	0048894e 	srai.w	$r14,$r10,0x2
1c0059ec:	0048954b 	srai.w	$r11,$r10,0x5
1c0059f0:	03403dcf 	andi	$r15,$r14,0xf
1c0059f4:	0341fd6c 	andi	$r12,$r11,0x7f
1c0059f8:	001c31e4 	mul.w	$r4,$r15,$r12
1c0059fc:	28400201 	ld.h	$r1,$r16,0
1c005a00:	28400245 	ld.h	$r5,$r18,0
1c005a04:	02800a10 	addi.w	$r16,$r16,2(0x2)
1c005a08:	00106652 	add.w	$r18,$r18,$r25
1c005a0c:	001c1426 	mul.w	$r6,$r1,$r5
1c005a10:	004888c7 	srai.w	$r7,$r6,0x2
1c005a14:	004894c8 	srai.w	$r8,$r6,0x5
1c005a18:	03403ced 	andi	$r13,$r7,0xf
1c005a1c:	0341fd09 	andi	$r9,$r8,0x7f
1c005a20:	001c25aa 	mul.w	$r10,$r13,$r9
1c005a24:	00102884 	add.w	$r4,$r4,$r10
1c005a28:	2840020e 	ld.h	$r14,$r16,0
1c005a2c:	2840024b 	ld.h	$r11,$r18,0
1c005a30:	02800a10 	addi.w	$r16,$r16,2(0x2)
1c005a34:	00106652 	add.w	$r18,$r18,$r25
1c005a38:	001c2dcf 	mul.w	$r15,$r14,$r11
1c005a3c:	004889e1 	srai.w	$r1,$r15,0x2
1c005a40:	004895ec 	srai.w	$r12,$r15,0x5
1c005a44:	03403c25 	andi	$r5,$r1,0xf
1c005a48:	0341fd86 	andi	$r6,$r12,0x7f
1c005a4c:	001c18a7 	mul.w	$r7,$r5,$r6
1c005a50:	00101c84 	add.w	$r4,$r4,$r7
1c005a54:	5800af50 	beq	$r26,$r16,172(0xac) # 1c005b00 <matrix_mul_matrix_bitextract+0x1d0>
1c005a58:	00106648 	add.w	$r8,$r18,$r25
1c005a5c:	2840020a 	ld.h	$r10,$r16,0
1c005a60:	28400249 	ld.h	$r9,$r18,0
1c005a64:	0010650d 	add.w	$r13,$r8,$r25
1c005a68:	28400a0e 	ld.h	$r14,$r16,2(0x2)
1c005a6c:	2840010b 	ld.h	$r11,$r8,0
1c005a70:	001c254f 	mul.w	$r15,$r10,$r9
1c005a74:	28401201 	ld.h	$r1,$r16,4(0x4)
1c005a78:	28401a05 	ld.h	$r5,$r16,6(0x6)
1c005a7c:	001065b2 	add.w	$r18,$r13,$r25
1c005a80:	284001a6 	ld.h	$r6,$r13,0
1c005a84:	2840024c 	ld.h	$r12,$r18,0
1c005a88:	02802210 	addi.w	$r16,$r16,8(0x8)
1c005a8c:	00106652 	add.w	$r18,$r18,$r25
1c005a90:	001c2dc7 	mul.w	$r7,$r14,$r11
1c005a94:	004889e9 	srai.w	$r9,$r15,0x2
1c005a98:	004895ee 	srai.w	$r14,$r15,0x5
1c005a9c:	03403d2d 	andi	$r13,$r9,0xf
1c005aa0:	0341fdcb 	andi	$r11,$r14,0x7f
1c005aa4:	001c1828 	mul.w	$r8,$r1,$r6
1c005aa8:	004888e1 	srai.w	$r1,$r7,0x2
1c005aac:	03403c26 	andi	$r6,$r1,0xf
1c005ab0:	001c30aa 	mul.w	$r10,$r5,$r12
1c005ab4:	004894e5 	srai.w	$r5,$r7,0x5
1c005ab8:	0341fcac 	andi	$r12,$r5,0x7f
1c005abc:	00488907 	srai.w	$r7,$r8,0x2
1c005ac0:	00489508 	srai.w	$r8,$r8,0x5
1c005ac4:	03403cee 	andi	$r14,$r7,0xf
1c005ac8:	001c2daf 	mul.w	$r15,$r13,$r11
1c005acc:	0048894b 	srai.w	$r11,$r10,0x2
1c005ad0:	0341fd0d 	andi	$r13,$r8,0x7f
1c005ad4:	0048954a 	srai.w	$r10,$r10,0x5
1c005ad8:	03403d61 	andi	$r1,$r11,0xf
1c005adc:	001c30c9 	mul.w	$r9,$r6,$r12
1c005ae0:	0341fd46 	andi	$r6,$r10,0x7f
1c005ae4:	00103c84 	add.w	$r4,$r4,$r15
1c005ae8:	001c35c5 	mul.w	$r5,$r14,$r13
1c005aec:	0010248f 	add.w	$r15,$r4,$r9
1c005af0:	001c182c 	mul.w	$r12,$r1,$r6
1c005af4:	001015e7 	add.w	$r7,$r15,$r5
1c005af8:	001030e4 	add.w	$r4,$r7,$r12
1c005afc:	5fff5f50 	bne	$r26,$r16,-164(0x3ff5c) # 1c005a58 <matrix_mul_matrix_bitextract+0x128>
1c005b00:	29800264 	st.w	$r4,$r19,0
1c005b04:	02801273 	addi.w	$r19,$r19,4(0x4)
1c005b08:	02800a94 	addi.w	$r20,$r20,2(0x2)
1c005b0c:	5ffe9793 	bne	$r28,$r19,-364(0x3fe94) # 1c0059a0 <matrix_mul_matrix_bitextract+0x70>
1c005b10:	028007de 	addi.w	$r30,$r30,1(0x1)
1c005b14:	00107631 	add.w	$r17,$r17,$r29
1c005b18:	0010779c 	add.w	$r28,$r28,$r29
1c005b1c:	0010677b 	add.w	$r27,$r27,$r25
1c005b20:	0010675a 	add.w	$r26,$r26,$r25
1c005b24:	5ffe5efe 	bne	$r23,$r30,-420(0x3fe5c) # 1c005980 <matrix_mul_matrix_bitextract+0x50>
1c005b28:	2880b061 	ld.w	$r1,$r3,44(0x2c)
1c005b2c:	2880a077 	ld.w	$r23,$r3,40(0x28)
1c005b30:	28809078 	ld.w	$r24,$r3,36(0x24)
1c005b34:	28808079 	ld.w	$r25,$r3,32(0x20)
1c005b38:	2880707a 	ld.w	$r26,$r3,28(0x1c)
1c005b3c:	2880607b 	ld.w	$r27,$r3,24(0x18)
1c005b40:	2880507c 	ld.w	$r28,$r3,20(0x14)
1c005b44:	2880407d 	ld.w	$r29,$r3,16(0x10)
1c005b48:	2880307e 	ld.w	$r30,$r3,12(0xc)
1c005b4c:	0280c063 	addi.w	$r3,$r3,48(0x30)
1c005b50:	4c000020 	jirl	$r0,$r1,0
1c005b54:	4c000020 	jirl	$r0,$r1,0
1c005b58:	03400000 	andi	$r0,$r0,0x0
1c005b5c:	03400000 	andi	$r0,$r0,0x0

1c005b60 <portable_malloc>:
portable_malloc():
1c005b60:	00150004 	move	$r4,$r0
1c005b64:	4c000020 	jirl	$r0,$r1,0
1c005b68:	03400000 	andi	$r0,$r0,0x0
1c005b6c:	03400000 	andi	$r0,$r0,0x0

1c005b70 <portable_free>:
portable_free():
1c005b70:	4c000020 	jirl	$r0,$r1,0
1c005b74:	03400000 	andi	$r0,$r0,0x0
1c005b78:	03400000 	andi	$r0,$r0,0x0
1c005b7c:	03400000 	andi	$r0,$r0,0x0

1c005b80 <start_time>:
start_time():
1c005b80:	1c000f65 	pcaddu12i	$r5,123(0x7b)
1c005b84:	02b2c0a5 	addi.w	$r5,$r5,-848(0xcb0)
1c005b88:	00150004 	move	$r4,$r0
1c005b8c:	50412400 	b	16676(0x4124) # 1c009cb0 <clock_gettime>

1c005b90 <stop_time>:
stop_time():
1c005b90:	1c000f65 	pcaddu12i	$r5,123(0x7b)
1c005b94:	02b240a5 	addi.w	$r5,$r5,-880(0xc90)
1c005b98:	00150004 	move	$r4,$r0
1c005b9c:	50411400 	b	16660(0x4114) # 1c009cb0 <clock_gettime>

1c005ba0 <get_time>:
get_time():
1c005ba0:	1c000f6e 	pcaddu12i	$r14,123(0x7b)
1c005ba4:	02b201ce 	addi.w	$r14,$r14,-896(0xc80)
1c005ba8:	1c000f6f 	pcaddu12i	$r15,123(0x7b)
1c005bac:	02b221ef 	addi.w	$r15,$r15,-888(0xc88)
1c005bb0:	288001cc 	ld.w	$r12,$r14,0
1c005bb4:	288001f0 	ld.w	$r16,$r15,0
1c005bb8:	028fa004 	addi.w	$r4,$r0,1000(0x3e8)
1c005bbc:	288011c5 	ld.w	$r5,$r14,4(0x4)
1c005bc0:	00114188 	sub.w	$r8,$r12,$r16
1c005bc4:	001c110a 	mul.w	$r10,$r8,$r4
1c005bc8:	288011e6 	ld.w	$r6,$r15,4(0x4)
1c005bcc:	14001e8d 	lu12i.w	$r13,244(0xf4)
1c005bd0:	038901a7 	ori	$r7,$r13,0x240
1c005bd4:	001118a9 	sub.w	$r9,$r5,$r6
1c005bd8:	00211d2b 	div.wu	$r11,$r9,$r7
1c005bdc:	5c0008e0 	bne	$r7,$r0,8(0x8) # 1c005be4 <get_time+0x44>
1c005be0:	002a0007 	break	0x7
1c005be4:	00102d44 	add.w	$r4,$r10,$r11
1c005be8:	4c000020 	jirl	$r0,$r1,0
1c005bec:	03400000 	andi	$r0,$r0,0x0

1c005bf0 <time_in_secs>:
time_in_secs():
1c005bf0:	028fa00c 	addi.w	$r12,$r0,1000(0x3e8)
1c005bf4:	0015008d 	move	$r13,$r4
1c005bf8:	002131a4 	div.wu	$r4,$r13,$r12
1c005bfc:	5c000980 	bne	$r12,$r0,8(0x8) # 1c005c04 <time_in_secs+0x14>
1c005c00:	002a0007 	break	0x7
1c005c04:	4c000020 	jirl	$r0,$r1,0
1c005c08:	03400000 	andi	$r0,$r0,0x0
1c005c0c:	03400000 	andi	$r0,$r0,0x0

1c005c10 <portable_init>:
portable_init():
1c005c10:	0280040c 	addi.w	$r12,$r0,1(0x1)
1c005c14:	2900008c 	st.b	$r12,$r4,0
1c005c18:	4c000020 	jirl	$r0,$r1,0
1c005c1c:	03400000 	andi	$r0,$r0,0x0

1c005c20 <portable_fini>:
portable_fini():
1c005c20:	29000080 	st.b	$r0,$r4,0
1c005c24:	4c000020 	jirl	$r0,$r1,0
1c005c28:	03400000 	andi	$r0,$r0,0x0
1c005c2c:	03400000 	andi	$r0,$r0,0x0

1c005c30 <core_bench_state>:
core_bench_state():
1c005c30:	02bd4063 	addi.w	$r3,$r3,-176(0xf50)
1c005c34:	2982a076 	st.w	$r22,$r3,168(0xa8)
1c005c38:	2982107f 	st.w	$r31,$r3,132(0x84)
1c005c3c:	2982b061 	st.w	$r1,$r3,172(0xac)
1c005c40:	29829077 	st.w	$r23,$r3,164(0xa4)
1c005c44:	29828078 	st.w	$r24,$r3,160(0xa0)
1c005c48:	29827079 	st.w	$r25,$r3,156(0x9c)
1c005c4c:	2982607a 	st.w	$r26,$r3,152(0x98)
1c005c50:	2982507b 	st.w	$r27,$r3,148(0x94)
1c005c54:	2982407c 	st.w	$r28,$r3,144(0x90)
1c005c58:	2982307d 	st.w	$r29,$r3,140(0x8c)
1c005c5c:	2982207e 	st.w	$r30,$r3,136(0x88)
1c005c60:	2a0000ac 	ld.bu	$r12,$r5,0
1c005c64:	02818076 	addi.w	$r22,$r3,96(0x60)
1c005c68:	29818060 	st.w	$r0,$r3,96(0x60)
1c005c6c:	298012c0 	st.w	$r0,$r22,4(0x4)
1c005c70:	298022c0 	st.w	$r0,$r22,8(0x8)
1c005c74:	298032c0 	st.w	$r0,$r22,12(0xc)
1c005c78:	298042c0 	st.w	$r0,$r22,16(0x10)
1c005c7c:	298052c0 	st.w	$r0,$r22,20(0x14)
1c005c80:	298062c0 	st.w	$r0,$r22,24(0x18)
1c005c84:	298072c0 	st.w	$r0,$r22,28(0x1c)
1c005c88:	29810060 	st.w	$r0,$r3,64(0x40)
1c005c8c:	29811060 	st.w	$r0,$r3,68(0x44)
1c005c90:	29812060 	st.w	$r0,$r3,72(0x48)
1c005c94:	29813060 	st.w	$r0,$r3,76(0x4c)
1c005c98:	29814060 	st.w	$r0,$r3,80(0x50)
1c005c9c:	29815060 	st.w	$r0,$r3,84(0x54)
1c005ca0:	29816060 	st.w	$r0,$r3,88(0x58)
1c005ca4:	29817060 	st.w	$r0,$r3,92(0x5c)
1c005ca8:	2980f064 	st.w	$r4,$r3,60(0x3c)
1c005cac:	2980e067 	st.w	$r7,$r3,56(0x38)
1c005cb0:	001500b3 	move	$r19,$r5
1c005cb4:	001500df 	move	$r31,$r6
1c005cb8:	00150125 	move	$r5,$r9
1c005cbc:	580a4d80 	beq	$r12,$r0,2636(0xa4c) # 1c006708 <core_bench_state+0xad8>
1c005cc0:	2881907b 	ld.w	$r27,$r3,100(0x64)
1c005cc4:	2881a06b 	ld.w	$r11,$r3,104(0x68)
1c005cc8:	2881c07a 	ld.w	$r26,$r3,112(0x70)
1c005ccc:	2881d079 	ld.w	$r25,$r3,116(0x74)
1c005cd0:	2881b061 	ld.w	$r1,$r3,108(0x6c)
1c005cd4:	2881e077 	ld.w	$r23,$r3,120(0x78)
1c005cd8:	2a00067e 	ld.bu	$r30,$r19,1(0x1)
1c005cdc:	0280067d 	addi.w	$r29,$r19,1(0x1)
1c005ce0:	2980607b 	st.w	$r27,$r3,24(0x18)
1c005ce4:	2980706b 	st.w	$r11,$r3,28(0x1c)
1c005ce8:	2980807a 	st.w	$r26,$r3,32(0x20)
1c005cec:	29809079 	st.w	$r25,$r3,36(0x24)
1c005cf0:	2980c061 	st.w	$r1,$r3,48(0x30)
1c005cf4:	2980d077 	st.w	$r23,$r3,52(0x34)
1c005cf8:	2980b07e 	st.w	$r30,$r3,44(0x2c)
1c005cfc:	2980a07d 	st.w	$r29,$r3,40(0x28)
1c005d00:	0280b00d 	addi.w	$r13,$r0,44(0x2c)
1c005d04:	580ab18d 	beq	$r12,$r13,2736(0xab0) # 1c0067b4 <core_bench_state+0xb84>
1c005d08:	0015018d 	move	$r13,$r12
1c005d0c:	00150007 	move	$r7,$r0
1c005d10:	0015026f 	move	$r15,$r19
1c005d14:	0015000a 	move	$r10,$r0
1c005d18:	00150014 	move	$r20,$r0
1c005d1c:	00150004 	move	$r4,$r0
1c005d20:	29805060 	st.w	$r0,$r3,20(0x14)
1c005d24:	0015001c 	move	$r28,$r0
1c005d28:	29804060 	st.w	$r0,$r3,16(0x10)
1c005d2c:	03400000 	andi	$r0,$r0,0x0
1c005d30:	02bf41b8 	addi.w	$r24,$r13,-48(0xfd0)
1c005d34:	29803078 	st.w	$r24,$r3,12(0xc)
1c005d38:	2a00306e 	ld.bu	$r14,$r3,12(0xc)
1c005d3c:	02802412 	addi.w	$r18,$r0,9(0x9)
1c005d40:	028004e7 	addi.w	$r7,$r7,1(0x1)
1c005d44:	68034e4e 	bltu	$r18,$r14,844(0x34c) # 1c006090 <core_bench_state+0x460>
1c005d48:	0280100e 	addi.w	$r14,$r0,4(0x4)
1c005d4c:	02800410 	addi.w	$r16,$r0,1(0x1)
1c005d50:	5805dbc0 	beq	$r30,$r0,1496(0x5d8) # 1c006328 <core_bench_state+0x6f8>
1c005d54:	0280b00d 	addi.w	$r13,$r0,44(0x2c)
1c005d58:	028007a6 	addi.w	$r6,$r29,1(0x1)
1c005d5c:	580997cd 	beq	$r30,$r13,2452(0x994) # 1c0066f0 <core_bench_state+0xac0>
1c005d60:	2a0009f1 	ld.bu	$r17,$r15,2(0x2)
1c005d64:	001503cd 	move	$r13,$r30
1c005d68:	001503af 	move	$r15,$r29
1c005d6c:	0280b809 	addi.w	$r9,$r0,46(0x2e)
1c005d70:	02802418 	addi.w	$r24,$r0,9(0x9)
1c005d74:	0280b01d 	addi.w	$r29,$r0,44(0x2c)
1c005d78:	02bf41b0 	addi.w	$r16,$r13,-48(0xfd0)
1c005d7c:	580349a9 	beq	$r13,$r9,840(0x348) # 1c0060c4 <core_bench_state+0x494>
1c005d80:	29803070 	st.w	$r16,$r3,12(0xc)
1c005d84:	2a00306e 	ld.bu	$r14,$r3,12(0xc)
1c005d88:	02801012 	addi.w	$r18,$r0,4(0x4)
1c005d8c:	02800410 	addi.w	$r16,$r0,1(0x1)
1c005d90:	028004de 	addi.w	$r30,$r6,1(0x1)
1c005d94:	0015022d 	move	$r13,$r17
1c005d98:	001500cf 	move	$r15,$r6
1c005d9c:	6c04970e 	bgeu	$r24,$r14,1172(0x494) # 1c006230 <core_bench_state+0x600>
1c005da0:	02800406 	addi.w	$r6,$r0,1(0x1)
1c005da4:	0280075a 	addi.w	$r26,$r26,1(0x1)
1c005da8:	0280040e 	addi.w	$r14,$r0,1(0x1)
1c005dac:	29805066 	st.w	$r6,$r3,20(0x14)
1c005db0:	004089d1 	slli.w	$r17,$r14,0x2
1c005db4:	02820066 	addi.w	$r6,$r3,128(0x80)
1c005db8:	001044c9 	add.w	$r9,$r6,$r17
1c005dbc:	28bf0138 	ld.w	$r24,$r9,-64(0xfc0)
1c005dc0:	0280b012 	addi.w	$r18,$r0,44(0x2c)
1c005dc4:	028005fd 	addi.w	$r29,$r15,1(0x1)
1c005dc8:	0280071e 	addi.w	$r30,$r24,1(0x1)
1c005dcc:	29bf013e 	st.w	$r30,$r9,-64(0xfc0)
1c005dd0:	0015000e 	move	$r14,$r0
1c005dd4:	58003da0 	beq	$r13,$r0,60(0x3c) # 1c005e10 <core_bench_state+0x1e0>
1c005dd8:	2a0005fe 	ld.bu	$r30,$r15,1(0x1)
1c005ddc:	5fff55b2 	bne	$r13,$r18,-172(0x3ff54) # 1c005d30 <core_bench_state+0x100>
1c005de0:	004089d1 	slli.w	$r17,$r14,0x2
1c005de4:	02820066 	addi.w	$r6,$r3,128(0x80)
1c005de8:	001044c9 	add.w	$r9,$r6,$r17
1c005dec:	28bf0138 	ld.w	$r24,$r9,-64(0xfc0)
1c005df0:	001503cd 	move	$r13,$r30
1c005df4:	001503af 	move	$r15,$r29
1c005df8:	0280071e 	addi.w	$r30,$r24,1(0x1)
1c005dfc:	29bf013e 	st.w	$r30,$r9,-64(0xfc0)
1c005e00:	028005fd 	addi.w	$r29,$r15,1(0x1)
1c005e04:	0015000e 	move	$r14,$r0
1c005e08:	5fffd1a0 	bne	$r13,$r0,-48(0x3ffd0) # 1c005dd8 <core_bench_state+0x1a8>
1c005e0c:	03400000 	andi	$r0,$r0,0x0
1c005e10:	2880407d 	ld.w	$r29,$r3,16(0x10)
1c005e14:	58000fa0 	beq	$r29,$r0,12(0xc) # 1c005e20 <core_bench_state+0x1f0>
1c005e18:	2980607b 	st.w	$r27,$r3,24(0x18)
1c005e1c:	2981907b 	st.w	$r27,$r3,100(0x64)
1c005e20:	5808e200 	beq	$r16,$r0,2272(0x8e0) # 1c006700 <core_bench_state+0xad0>
1c005e24:	29818067 	st.w	$r7,$r3,96(0x60)
1c005e28:	58000f80 	beq	$r28,$r0,12(0xc) # 1c005e34 <core_bench_state+0x204>
1c005e2c:	2980706b 	st.w	$r11,$r3,28(0x1c)
1c005e30:	2981a06b 	st.w	$r11,$r3,104(0x68)
1c005e34:	28805070 	ld.w	$r16,$r3,20(0x14)
1c005e38:	58000e00 	beq	$r16,$r0,12(0xc) # 1c005e44 <core_bench_state+0x214>
1c005e3c:	2980807a 	st.w	$r26,$r3,32(0x20)
1c005e40:	2981c07a 	st.w	$r26,$r3,112(0x70)
1c005e44:	58000c80 	beq	$r4,$r0,12(0xc) # 1c005e50 <core_bench_state+0x220>
1c005e48:	29809079 	st.w	$r25,$r3,36(0x24)
1c005e4c:	2981d079 	st.w	$r25,$r3,116(0x74)
1c005e50:	58000e80 	beq	$r20,$r0,12(0xc) # 1c005e5c <core_bench_state+0x22c>
1c005e54:	2980c061 	st.w	$r1,$r3,48(0x30)
1c005e58:	2981b061 	st.w	$r1,$r3,108(0x6c)
1c005e5c:	58000d40 	beq	$r10,$r0,12(0xc) # 1c005e68 <core_bench_state+0x238>
1c005e60:	2980d077 	st.w	$r23,$r3,52(0x34)
1c005e64:	2981e077 	st.w	$r23,$r3,120(0x78)
1c005e68:	2880f06d 	ld.w	$r13,$r3,60(0x3c)
1c005e6c:	2880a07e 	ld.w	$r30,$r3,40(0x28)
1c005e70:	00103678 	add.w	$r24,$r19,$r13
1c005e74:	6c007278 	bgeu	$r19,$r24,112(0x70) # 1c005ee4 <core_bench_state+0x2b4>
1c005e78:	0015026c 	move	$r12,$r19
1c005e7c:	0280b00f 	addi.w	$r15,$r0,44(0x2c)
1c005e80:	2a00018a 	ld.bu	$r10,$r12,0
1c005e84:	0015fd54 	xor	$r20,$r10,$r31
1c005e88:	5800094f 	beq	$r10,$r15,8(0x8) # 1c005e90 <core_bench_state+0x260>
1c005e8c:	29000194 	st.b	$r20,$r12,0
1c005e90:	0010218c 	add.w	$r12,$r12,$r8
1c005e94:	6bffed98 	bltu	$r12,$r24,-20(0x3ffec) # 1c005e80 <core_bench_state+0x250>
1c005e98:	2a00026c 	ld.bu	$r12,$r19,0
1c005e9c:	58017180 	beq	$r12,$r0,368(0x170) # 1c00600c <core_bench_state+0x3dc>
1c005ea0:	2881907f 	ld.w	$r31,$r3,100(0x64)
1c005ea4:	2881a064 	ld.w	$r4,$r3,104(0x68)
1c005ea8:	2881c07c 	ld.w	$r28,$r3,112(0x70)
1c005eac:	2881d072 	ld.w	$r18,$r3,116(0x74)
1c005eb0:	2881b071 	ld.w	$r17,$r3,108(0x6c)
1c005eb4:	2881e06e 	ld.w	$r14,$r3,120(0x78)
1c005eb8:	2a000666 	ld.bu	$r6,$r19,1(0x1)
1c005ebc:	0280067d 	addi.w	$r29,$r19,1(0x1)
1c005ec0:	2980607f 	st.w	$r31,$r3,24(0x18)
1c005ec4:	29807064 	st.w	$r4,$r3,28(0x1c)
1c005ec8:	2980807c 	st.w	$r28,$r3,32(0x20)
1c005ecc:	29809072 	st.w	$r18,$r3,36(0x24)
1c005ed0:	2980c071 	st.w	$r17,$r3,48(0x30)
1c005ed4:	2980d06e 	st.w	$r14,$r3,52(0x34)
1c005ed8:	2980b066 	st.w	$r6,$r3,44(0x2c)
1c005edc:	2980a07d 	st.w	$r29,$r3,40(0x28)
1c005ee0:	001503be 	move	$r30,$r29
1c005ee4:	0280b010 	addi.w	$r16,$r0,44(0x2c)
1c005ee8:	2880607b 	ld.w	$r27,$r3,24(0x18)
1c005eec:	2880706b 	ld.w	$r11,$r3,28(0x1c)
1c005ef0:	2880807a 	ld.w	$r26,$r3,32(0x20)
1c005ef4:	28809079 	ld.w	$r25,$r3,36(0x24)
1c005ef8:	2880c061 	ld.w	$r1,$r3,48(0x30)
1c005efc:	2880d077 	ld.w	$r23,$r3,52(0x34)
1c005f00:	2880b069 	ld.w	$r9,$r3,44(0x2c)
1c005f04:	58088590 	beq	$r12,$r16,2180(0x884) # 1c006788 <core_bench_state+0xb58>
1c005f08:	0015026e 	move	$r14,$r19
1c005f0c:	29804060 	st.w	$r0,$r3,16(0x10)
1c005f10:	0015001f 	move	$r31,$r0
1c005f14:	00150014 	move	$r20,$r0
1c005f18:	0015001c 	move	$r28,$r0
1c005f1c:	0015000a 	move	$r10,$r0
1c005f20:	00150012 	move	$r18,$r0
1c005f24:	02bf4191 	addi.w	$r17,$r12,-48(0xfd0)
1c005f28:	29803071 	st.w	$r17,$r3,12(0xc)
1c005f2c:	2a00306d 	ld.bu	$r13,$r3,12(0xc)
1c005f30:	02802406 	addi.w	$r6,$r0,9(0x9)
1c005f34:	028004e7 	addi.w	$r7,$r7,1(0x1)
1c005f38:	6c0418cd 	bgeu	$r6,$r13,1048(0x418) # 1c006350 <core_bench_state+0x720>
1c005f3c:	0280ac04 	addi.w	$r4,$r0,43(0x2b)
1c005f40:	58060184 	beq	$r12,$r4,1536(0x600) # 1c006540 <core_bench_state+0x910>
1c005f44:	0280b41d 	addi.w	$r29,$r0,45(0x2d)
1c005f48:	5805f99d 	beq	$r12,$r29,1528(0x5f8) # 1c006540 <core_bench_state+0x910>
1c005f4c:	0280b810 	addi.w	$r16,$r0,46(0x2e)
1c005f50:	5806a990 	beq	$r12,$r16,1704(0x6a8) # 1c0065f8 <core_bench_state+0x9c8>
1c005f54:	0280077b 	addi.w	$r27,$r27,1(0x1)
1c005f58:	001503ce 	move	$r14,$r30
1c005f5c:	0015012c 	move	$r12,$r9
1c005f60:	0280040d 	addi.w	$r13,$r0,1(0x1)
1c005f64:	0280041f 	addi.w	$r31,$r0,1(0x1)
1c005f68:	0280040f 	addi.w	$r15,$r0,1(0x1)
1c005f6c:	03400000 	andi	$r0,$r0,0x0
1c005f70:	004089a6 	slli.w	$r6,$r13,0x2
1c005f74:	02820064 	addi.w	$r4,$r3,128(0x80)
1c005f78:	0010189d 	add.w	$r29,$r4,$r6
1c005f7c:	28bf03b0 	ld.w	$r16,$r29,-64(0xfc0)
1c005f80:	0280b011 	addi.w	$r17,$r0,44(0x2c)
1c005f84:	028005de 	addi.w	$r30,$r14,1(0x1)
1c005f88:	02800609 	addi.w	$r9,$r16,1(0x1)
1c005f8c:	29bf03a9 	st.w	$r9,$r29,-64(0xfc0)
1c005f90:	0015000d 	move	$r13,$r0
1c005f94:	58003d80 	beq	$r12,$r0,60(0x3c) # 1c005fd0 <core_bench_state+0x3a0>
1c005f98:	2a0005c9 	ld.bu	$r9,$r14,1(0x1)
1c005f9c:	5fff8991 	bne	$r12,$r17,-120(0x3ff88) # 1c005f24 <core_bench_state+0x2f4>
1c005fa0:	004089a6 	slli.w	$r6,$r13,0x2
1c005fa4:	02820064 	addi.w	$r4,$r3,128(0x80)
1c005fa8:	0010189d 	add.w	$r29,$r4,$r6
1c005fac:	28bf03b0 	ld.w	$r16,$r29,-64(0xfc0)
1c005fb0:	0015012c 	move	$r12,$r9
1c005fb4:	001503ce 	move	$r14,$r30
1c005fb8:	02800609 	addi.w	$r9,$r16,1(0x1)
1c005fbc:	29bf03a9 	st.w	$r9,$r29,-64(0xfc0)
1c005fc0:	028005de 	addi.w	$r30,$r14,1(0x1)
1c005fc4:	0015000d 	move	$r13,$r0
1c005fc8:	5fffd180 	bne	$r12,$r0,-48(0x3ffd0) # 1c005f98 <core_bench_state+0x368>
1c005fcc:	03400000 	andi	$r0,$r0,0x0
1c005fd0:	58000be0 	beq	$r31,$r0,8(0x8) # 1c005fd8 <core_bench_state+0x3a8>
1c005fd4:	2981907b 	st.w	$r27,$r3,100(0x64)
1c005fd8:	580009e0 	beq	$r15,$r0,8(0x8) # 1c005fe0 <core_bench_state+0x3b0>
1c005fdc:	29818067 	st.w	$r7,$r3,96(0x60)
1c005fe0:	58000b80 	beq	$r28,$r0,8(0x8) # 1c005fe8 <core_bench_state+0x3b8>
1c005fe4:	2981a06b 	st.w	$r11,$r3,104(0x68)
1c005fe8:	28804067 	ld.w	$r7,$r3,16(0x10)
1c005fec:	580008e0 	beq	$r7,$r0,8(0x8) # 1c005ff4 <core_bench_state+0x3c4>
1c005ff0:	2981c07a 	st.w	$r26,$r3,112(0x70)
1c005ff4:	58000a80 	beq	$r20,$r0,8(0x8) # 1c005ffc <core_bench_state+0x3cc>
1c005ff8:	2981d079 	st.w	$r25,$r3,116(0x74)
1c005ffc:	58000a40 	beq	$r18,$r0,8(0x8) # 1c006004 <core_bench_state+0x3d4>
1c006000:	2981b061 	st.w	$r1,$r3,108(0x6c)
1c006004:	58000940 	beq	$r10,$r0,8(0x8) # 1c00600c <core_bench_state+0x3dc>
1c006008:	2981e077 	st.w	$r23,$r3,120(0x78)
1c00600c:	0280b01e 	addi.w	$r30,$r0,44(0x2c)
1c006010:	2880e06f 	ld.w	$r15,$r3,56(0x38)
1c006014:	6c001e78 	bgeu	$r19,$r24,28(0x1c) # 1c006030 <core_bench_state+0x400>
1c006018:	2a00026c 	ld.bu	$r12,$r19,0
1c00601c:	0015bd9b 	xor	$r27,$r12,$r15
1c006020:	5800099e 	beq	$r12,$r30,8(0x8) # 1c006028 <core_bench_state+0x3f8>
1c006024:	2900027b 	st.b	$r27,$r19,0
1c006028:	00102273 	add.w	$r19,$r19,$r8
1c00602c:	6bffee78 	bltu	$r19,$r24,-20(0x3ffec) # 1c006018 <core_bench_state+0x3e8>
1c006030:	0281007a 	addi.w	$r26,$r3,64(0x40)
1c006034:	001502d8 	move	$r24,$r22
1c006038:	28800344 	ld.w	$r4,$r26,0
1c00603c:	02801318 	addi.w	$r24,$r24,4(0x4)
1c006040:	0280135a 	addi.w	$r26,$r26,4(0x4)
1c006044:	5414bc00 	bl	5308(0x14bc) # 1c007500 <crcu32>
1c006048:	00150085 	move	$r5,$r4
1c00604c:	28bff304 	ld.w	$r4,$r24,-4(0xffc)
1c006050:	5414b000 	bl	5296(0x14b0) # 1c007500 <crcu32>
1c006054:	00150085 	move	$r5,$r4
1c006058:	5fffe2da 	bne	$r22,$r26,-32(0x3ffe0) # 1c006038 <core_bench_state+0x408>
1c00605c:	2882b061 	ld.w	$r1,$r3,172(0xac)
1c006060:	2882a076 	ld.w	$r22,$r3,168(0xa8)
1c006064:	28829077 	ld.w	$r23,$r3,164(0xa4)
1c006068:	28828078 	ld.w	$r24,$r3,160(0xa0)
1c00606c:	28827079 	ld.w	$r25,$r3,156(0x9c)
1c006070:	2882607a 	ld.w	$r26,$r3,152(0x98)
1c006074:	2882507b 	ld.w	$r27,$r3,148(0x94)
1c006078:	2882407c 	ld.w	$r28,$r3,144(0x90)
1c00607c:	2882307d 	ld.w	$r29,$r3,140(0x8c)
1c006080:	2882207e 	ld.w	$r30,$r3,136(0x88)
1c006084:	2882107f 	ld.w	$r31,$r3,132(0x84)
1c006088:	0282c063 	addi.w	$r3,$r3,176(0xb0)
1c00608c:	4c000020 	jirl	$r0,$r1,0
1c006090:	0280ac09 	addi.w	$r9,$r0,43(0x2b)
1c006094:	5801b5a9 	beq	$r13,$r9,436(0x1b4) # 1c006248 <core_bench_state+0x618>
1c006098:	0280b411 	addi.w	$r17,$r0,45(0x2d)
1c00609c:	5801adb1 	beq	$r13,$r17,428(0x1ac) # 1c006248 <core_bench_state+0x618>
1c0060a0:	0280b810 	addi.w	$r16,$r0,46(0x2e)
1c0060a4:	58025db0 	beq	$r13,$r16,604(0x25c) # 1c006300 <core_bench_state+0x6d0>
1c0060a8:	02800410 	addi.w	$r16,$r0,1(0x1)
1c0060ac:	0280077b 	addi.w	$r27,$r27,1(0x1)
1c0060b0:	001503cd 	move	$r13,$r30
1c0060b4:	001503af 	move	$r15,$r29
1c0060b8:	0280040e 	addi.w	$r14,$r0,1(0x1)
1c0060bc:	29804070 	st.w	$r16,$r3,16(0x10)
1c0060c0:	53fcf3ff 	b	-784(0xffffcf0) # 1c005db0 <core_bench_state+0x180>
1c0060c4:	02800409 	addi.w	$r9,$r0,1(0x1)
1c0060c8:	29805069 	st.w	$r9,$r3,20(0x14)
1c0060cc:	0280075a 	addi.w	$r26,$r26,1(0x1)
1c0060d0:	0280140e 	addi.w	$r14,$r0,5(0x5)
1c0060d4:	02800410 	addi.w	$r16,$r0,1(0x1)
1c0060d8:	58026e20 	beq	$r17,$r0,620(0x26c) # 1c006344 <core_bench_state+0x714>
1c0060dc:	0280b018 	addi.w	$r24,$r0,44(0x2c)
1c0060e0:	028004c9 	addi.w	$r9,$r6,1(0x1)
1c0060e4:	58064638 	beq	$r17,$r24,1604(0x644) # 1c006728 <core_bench_state+0xaf8>
1c0060e8:	2a0009f2 	ld.bu	$r18,$r15,2(0x2)
1c0060ec:	02811418 	addi.w	$r24,$r0,69(0x45)
1c0060f0:	0280241d 	addi.w	$r29,$r0,9(0x9)
1c0060f4:	0280b01e 	addi.w	$r30,$r0,44(0x2c)
1c0060f8:	02bf4230 	addi.w	$r16,$r17,-48(0xfd0)
1c0060fc:	29803070 	st.w	$r16,$r3,12(0xc)
1c006100:	03437e2e 	andi	$r14,$r17,0xdf
1c006104:	2a00306d 	ld.bu	$r13,$r3,12(0xc)
1c006108:	580039d8 	beq	$r14,$r24,56(0x38) # 1c006140 <core_bench_state+0x510>
1c00610c:	0280140e 	addi.w	$r14,$r0,5(0x5)
1c006110:	02800410 	addi.w	$r16,$r0,1(0x1)
1c006114:	0280052f 	addi.w	$r15,$r9,1(0x1)
1c006118:	00150251 	move	$r17,$r18
1c00611c:	00150126 	move	$r6,$r9
1c006120:	6c01c7ad 	bgeu	$r29,$r13,452(0x1c4) # 1c0062e4 <core_bench_state+0x6b4>
1c006124:	02800739 	addi.w	$r25,$r25,1(0x1)
1c006128:	0015024d 	move	$r13,$r18
1c00612c:	0015012f 	move	$r15,$r9
1c006130:	0280040e 	addi.w	$r14,$r0,1(0x1)
1c006134:	02800404 	addi.w	$r4,$r0,1(0x1)
1c006138:	53fc7bff 	b	-904(0xffffc78) # 1c005db0 <core_bench_state+0x180>
1c00613c:	03400000 	andi	$r0,$r0,0x0
1c006140:	02800739 	addi.w	$r25,$r25,1(0x1)
1c006144:	02800c0e 	addi.w	$r14,$r0,3(0x3)
1c006148:	02800410 	addi.w	$r16,$r0,1(0x1)
1c00614c:	02800404 	addi.w	$r4,$r0,1(0x1)
1c006150:	5801e640 	beq	$r18,$r0,484(0x1e4) # 1c006334 <core_bench_state+0x704>
1c006154:	0280b018 	addi.w	$r24,$r0,44(0x2c)
1c006158:	0280052f 	addi.w	$r15,$r9,1(0x1)
1c00615c:	58051658 	beq	$r18,$r24,1300(0x514) # 1c006670 <core_bench_state+0xa40>
1c006160:	02bf5654 	addi.w	$r20,$r18,-43(0xfd5)
1c006164:	2a0008cd 	ld.bu	$r13,$r6,2(0x2)
1c006168:	0343f686 	andi	$r6,$r20,0xfd
1c00616c:	02800421 	addi.w	$r1,$r1,1(0x1)
1c006170:	0280040e 	addi.w	$r14,$r0,1(0x1)
1c006174:	00150090 	move	$r16,$r4
1c006178:	02800414 	addi.w	$r20,$r0,1(0x1)
1c00617c:	5ffc34c0 	bne	$r6,$r0,-972(0x3fc34) # 1c005db0 <core_bench_state+0x180>
1c006180:	0280180e 	addi.w	$r14,$r0,6(0x6)
1c006184:	5bfc2da0 	beq	$r13,$r0,-980(0x3fc2c) # 1c005db0 <core_bench_state+0x180>
1c006188:	0280092f 	addi.w	$r15,$r9,2(0x2)
1c00618c:	5804f5b8 	beq	$r13,$r24,1268(0x4f4) # 1c006680 <core_bench_state+0xa50>
1c006190:	02bf41a4 	addi.w	$r4,$r13,-48(0xfd0)
1c006194:	29803064 	st.w	$r4,$r3,12(0xc)
1c006198:	2a000931 	ld.bu	$r17,$r9,2(0x2)
1c00619c:	2a00307d 	ld.bu	$r29,$r3,12(0xc)
1c0061a0:	0280241e 	addi.w	$r30,$r0,9(0x9)
1c0061a4:	028006f7 	addi.w	$r23,$r23,1(0x1)
1c0061a8:	0280040e 	addi.w	$r14,$r0,1(0x1)
1c0061ac:	00150290 	move	$r16,$r20
1c0061b0:	00150284 	move	$r4,$r20
1c0061b4:	0280040a 	addi.w	$r10,$r0,1(0x1)
1c0061b8:	0015022d 	move	$r13,$r17
1c0061bc:	6bfbf7dd 	bltu	$r30,$r29,-1036(0x3fbf4) # 1c005db0 <core_bench_state+0x180>
1c0061c0:	02801c0e 	addi.w	$r14,$r0,7(0x7)
1c0061c4:	5bfbee20 	beq	$r17,$r0,-1044(0x3fbec) # 1c005db0 <core_bench_state+0x180>
1c0061c8:	02800d2f 	addi.w	$r15,$r9,3(0x3)
1c0061cc:	5804d9b8 	beq	$r13,$r24,1240(0x4d8) # 1c0066a4 <core_bench_state+0xa74>
1c0061d0:	2a000d2d 	ld.bu	$r13,$r9,3(0x3)
1c0061d4:	02802418 	addi.w	$r24,$r0,9(0x9)
1c0061d8:	0280b009 	addi.w	$r9,$r0,44(0x2c)
1c0061dc:	02bf422a 	addi.w	$r10,$r17,-48(0xfd0)
1c0061e0:	2980306a 	st.w	$r10,$r3,12(0xc)
1c0061e4:	2a003072 	ld.bu	$r18,$r3,12(0xc)
1c0061e8:	02801c0e 	addi.w	$r14,$r0,7(0x7)
1c0061ec:	02800410 	addi.w	$r16,$r0,1(0x1)
1c0061f0:	02800404 	addi.w	$r4,$r0,1(0x1)
1c0061f4:	02800414 	addi.w	$r20,$r0,1(0x1)
1c0061f8:	0280040a 	addi.w	$r10,$r0,1(0x1)
1c0061fc:	001501b1 	move	$r17,$r13
1c006200:	6c001712 	bgeu	$r24,$r18,20(0x14) # 1c006214 <core_bench_state+0x5e4>
1c006204:	0280077b 	addi.w	$r27,$r27,1(0x1)
1c006208:	0280040e 	addi.w	$r14,$r0,1(0x1)
1c00620c:	29804070 	st.w	$r16,$r3,16(0x10)
1c006210:	53fba3ff 	b	-1120(0xffffba0) # 1c005db0 <core_bench_state+0x180>
1c006214:	5bfb9da0 	beq	$r13,$r0,-1124(0x3fb9c) # 1c005db0 <core_bench_state+0x180>
1c006218:	2a0005e6 	ld.bu	$r6,$r15,1(0x1)
1c00621c:	028005ef 	addi.w	$r15,$r15,1(0x1)
1c006220:	580471a9 	beq	$r13,$r9,1136(0x470) # 1c006690 <core_bench_state+0xa60>
1c006224:	001500cd 	move	$r13,$r6
1c006228:	53ffb7ff 	b	-76(0xfffffb4) # 1c0061dc <core_bench_state+0x5ac>
1c00622c:	03400000 	andi	$r0,$r0,0x0
1c006230:	58011220 	beq	$r17,$r0,272(0x110) # 1c006340 <core_bench_state+0x710>
1c006234:	2a0004ce 	ld.bu	$r14,$r6,1(0x1)
1c006238:	5805023d 	beq	$r17,$r29,1280(0x500) # 1c006738 <core_bench_state+0xb08>
1c00623c:	001503c6 	move	$r6,$r30
1c006240:	001501d1 	move	$r17,$r14
1c006244:	53fb37ff 	b	-1228(0xffffb34) # 1c005d78 <core_bench_state+0x148>
1c006248:	0280080e 	addi.w	$r14,$r0,2(0x2)
1c00624c:	02800410 	addi.w	$r16,$r0,1(0x1)
1c006250:	5800dbc0 	beq	$r30,$r0,216(0xd8) # 1c006328 <core_bench_state+0x6f8>
1c006254:	0280b006 	addi.w	$r6,$r0,44(0x2c)
1c006258:	028007b8 	addi.w	$r24,$r29,1(0x1)
1c00625c:	5804ffc6 	beq	$r30,$r6,1276(0x4fc) # 1c006758 <core_bench_state+0xb28>
1c006260:	02bf43dc 	addi.w	$r28,$r30,-48(0xfd0)
1c006264:	2980307c 	st.w	$r28,$r3,12(0xc)
1c006268:	2a00306e 	ld.bu	$r14,$r3,12(0xc)
1c00626c:	02802412 	addi.w	$r18,$r0,9(0x9)
1c006270:	2a0009ed 	ld.bu	$r13,$r15,2(0x2)
1c006274:	0280056b 	addi.w	$r11,$r11,1(0x1)
1c006278:	0015030f 	move	$r15,$r24
1c00627c:	6c00464e 	bgeu	$r18,$r14,68(0x44) # 1c0062c0 <core_bench_state+0x690>
1c006280:	0280b809 	addi.w	$r9,$r0,46(0x2e)
1c006284:	0280040e 	addi.w	$r14,$r0,1(0x1)
1c006288:	02800410 	addi.w	$r16,$r0,1(0x1)
1c00628c:	0280041c 	addi.w	$r28,$r0,1(0x1)
1c006290:	5ffb23c9 	bne	$r30,$r9,-1248(0x3fb20) # 1c005db0 <core_bench_state+0x180>
1c006294:	0280140e 	addi.w	$r14,$r0,5(0x5)
1c006298:	00150390 	move	$r16,$r28
1c00629c:	5bfb15a0 	beq	$r13,$r0,-1260(0x3fb14) # 1c005db0 <core_bench_state+0x180>
1c0062a0:	0280b01e 	addi.w	$r30,$r0,44(0x2c)
1c0062a4:	028005e9 	addi.w	$r9,$r15,1(0x1)
1c0062a8:	5804c9be 	beq	$r13,$r30,1224(0x4c8) # 1c006770 <core_bench_state+0xb40>
1c0062ac:	2a000bb2 	ld.bu	$r18,$r29,2(0x2)
1c0062b0:	001501e6 	move	$r6,$r15
1c0062b4:	001501b1 	move	$r17,$r13
1c0062b8:	53fe37ff 	b	-460(0xffffe34) # 1c0060ec <core_bench_state+0x4bc>
1c0062bc:	03400000 	andi	$r0,$r0,0x0
1c0062c0:	0280100e 	addi.w	$r14,$r0,4(0x4)
1c0062c4:	02800410 	addi.w	$r16,$r0,1(0x1)
1c0062c8:	0280041c 	addi.w	$r28,$r0,1(0x1)
1c0062cc:	5bfae5a0 	beq	$r13,$r0,-1308(0x3fae4) # 1c005db0 <core_bench_state+0x180>
1c0062d0:	0280b011 	addi.w	$r17,$r0,44(0x2c)
1c0062d4:	028005e6 	addi.w	$r6,$r15,1(0x1)
1c0062d8:	5803c1b1 	beq	$r13,$r17,960(0x3c0) # 1c006698 <core_bench_state+0xa68>
1c0062dc:	2a000bb1 	ld.bu	$r17,$r29,2(0x2)
1c0062e0:	53fa8fff 	b	-1396(0xffffa8c) # 1c005d6c <core_bench_state+0x13c>
1c0062e4:	58005240 	beq	$r18,$r0,80(0x50) # 1c006334 <core_bench_state+0x704>
1c0062e8:	2a00052d 	ld.bu	$r13,$r9,1(0x1)
1c0062ec:	5bfac65e 	beq	$r18,$r30,-1340(0x3fac4) # 1c005db0 <core_bench_state+0x180>
1c0062f0:	001501e9 	move	$r9,$r15
1c0062f4:	001501b2 	move	$r18,$r13
1c0062f8:	53fe03ff 	b	-512(0xffffe00) # 1c0060f8 <core_bench_state+0x4c8>
1c0062fc:	03400000 	andi	$r0,$r0,0x0
1c006300:	0280140e 	addi.w	$r14,$r0,5(0x5)
1c006304:	02800410 	addi.w	$r16,$r0,1(0x1)
1c006308:	580023c0 	beq	$r30,$r0,32(0x20) # 1c006328 <core_bench_state+0x6f8>
1c00630c:	0280b00d 	addi.w	$r13,$r0,44(0x2c)
1c006310:	028007a9 	addi.w	$r9,$r29,1(0x1)
1c006314:	5804dfcd 	beq	$r30,$r13,1244(0x4dc) # 1c0067f0 <core_bench_state+0xbc0>
1c006318:	2a0009f2 	ld.bu	$r18,$r15,2(0x2)
1c00631c:	001503a6 	move	$r6,$r29
1c006320:	001503d1 	move	$r17,$r30
1c006324:	53fdcbff 	b	-568(0xffffdc8) # 1c0060ec <core_bench_state+0x4bc>
1c006328:	001503af 	move	$r15,$r29
1c00632c:	0015000d 	move	$r13,$r0
1c006330:	53fa83ff 	b	-1408(0xffffa80) # 1c005db0 <core_bench_state+0x180>
1c006334:	0015012f 	move	$r15,$r9
1c006338:	0015000d 	move	$r13,$r0
1c00633c:	53fa77ff 	b	-1420(0xffffa74) # 1c005db0 <core_bench_state+0x180>
1c006340:	0015024e 	move	$r14,$r18
1c006344:	001500cf 	move	$r15,$r6
1c006348:	0015000d 	move	$r13,$r0
1c00634c:	53fa67ff 	b	-1436(0xffffa64) # 1c005db0 <core_bench_state+0x180>
1c006350:	0280100d 	addi.w	$r13,$r0,4(0x4)
1c006354:	0280040f 	addi.w	$r15,$r0,1(0x1)
1c006358:	5802c920 	beq	$r9,$r0,712(0x2c8) # 1c006620 <core_bench_state+0x9f0>
1c00635c:	0280b010 	addi.w	$r16,$r0,44(0x2c)
1c006360:	028007c6 	addi.w	$r6,$r30,1(0x1)
1c006364:	58035530 	beq	$r9,$r16,852(0x354) # 1c0066b8 <core_bench_state+0xa88>
1c006368:	2a0009d0 	ld.bu	$r16,$r14,2(0x2)
1c00636c:	0015012c 	move	$r12,$r9
1c006370:	001503ce 	move	$r14,$r30
1c006374:	0280b804 	addi.w	$r4,$r0,46(0x2e)
1c006378:	02802409 	addi.w	$r9,$r0,9(0x9)
1c00637c:	0280b01d 	addi.w	$r29,$r0,44(0x2c)
1c006380:	02bf419e 	addi.w	$r30,$r12,-48(0xfd0)
1c006384:	58003d84 	beq	$r12,$r4,60(0x3c) # 1c0063c0 <core_bench_state+0x790>
1c006388:	2980307e 	st.w	$r30,$r3,12(0xc)
1c00638c:	2a00306d 	ld.bu	$r13,$r3,12(0xc)
1c006390:	02801011 	addi.w	$r17,$r0,4(0x4)
1c006394:	0280040f 	addi.w	$r15,$r0,1(0x1)
1c006398:	028004de 	addi.w	$r30,$r6,1(0x1)
1c00639c:	0015020c 	move	$r12,$r16
1c0063a0:	001500ce 	move	$r14,$r6
1c0063a4:	6c01852d 	bgeu	$r9,$r13,388(0x184) # 1c006528 <core_bench_state+0x8f8>
1c0063a8:	0280040c 	addi.w	$r12,$r0,1(0x1)
1c0063ac:	2980406c 	st.w	$r12,$r3,16(0x10)
1c0063b0:	0280075a 	addi.w	$r26,$r26,1(0x1)
1c0063b4:	0280040d 	addi.w	$r13,$r0,1(0x1)
1c0063b8:	0015020c 	move	$r12,$r16
1c0063bc:	53fbb7ff 	b	-1100(0xffffbb4) # 1c005f70 <core_bench_state+0x340>
1c0063c0:	02800404 	addi.w	$r4,$r0,1(0x1)
1c0063c4:	29804064 	st.w	$r4,$r3,16(0x10)
1c0063c8:	0280075a 	addi.w	$r26,$r26,1(0x1)
1c0063cc:	0280140d 	addi.w	$r13,$r0,5(0x5)
1c0063d0:	0280040f 	addi.w	$r15,$r0,1(0x1)
1c0063d4:	58027200 	beq	$r16,$r0,624(0x270) # 1c006644 <core_bench_state+0xa14>
1c0063d8:	0280b00f 	addi.w	$r15,$r0,44(0x2c)
1c0063dc:	028004c4 	addi.w	$r4,$r6,1(0x1)
1c0063e0:	58033a0f 	beq	$r16,$r15,824(0x338) # 1c006718 <core_bench_state+0xae8>
1c0063e4:	2a0009d1 	ld.bu	$r17,$r14,2(0x2)
1c0063e8:	02811409 	addi.w	$r9,$r0,69(0x45)
1c0063ec:	0280241d 	addi.w	$r29,$r0,9(0x9)
1c0063f0:	0280b01e 	addi.w	$r30,$r0,44(0x2c)
1c0063f4:	02bf420e 	addi.w	$r14,$r16,-48(0xfd0)
1c0063f8:	2980306e 	st.w	$r14,$r3,12(0xc)
1c0063fc:	03437e0d 	andi	$r13,$r16,0xdf
1c006400:	2a00306c 	ld.bu	$r12,$r3,12(0xc)
1c006404:	580035a9 	beq	$r13,$r9,52(0x34) # 1c006438 <core_bench_state+0x808>
1c006408:	0280140d 	addi.w	$r13,$r0,5(0x5)
1c00640c:	0280040f 	addi.w	$r15,$r0,1(0x1)
1c006410:	0280048e 	addi.w	$r14,$r4,1(0x1)
1c006414:	00150230 	move	$r16,$r17
1c006418:	00150086 	move	$r6,$r4
1c00641c:	6c01c7ac 	bgeu	$r29,$r12,452(0x1c4) # 1c0065e0 <core_bench_state+0x9b0>
1c006420:	02800739 	addi.w	$r25,$r25,1(0x1)
1c006424:	0280040d 	addi.w	$r13,$r0,1(0x1)
1c006428:	0015022c 	move	$r12,$r17
1c00642c:	0015008e 	move	$r14,$r4
1c006430:	02800414 	addi.w	$r20,$r0,1(0x1)
1c006434:	53fb3fff 	b	-1220(0xffffb3c) # 1c005f70 <core_bench_state+0x340>
1c006438:	02800739 	addi.w	$r25,$r25,1(0x1)
1c00643c:	02800c0d 	addi.w	$r13,$r0,3(0x3)
1c006440:	0280040f 	addi.w	$r15,$r0,1(0x1)
1c006444:	02800414 	addi.w	$r20,$r0,1(0x1)
1c006448:	5801ea20 	beq	$r17,$r0,488(0x1e8) # 1c006630 <core_bench_state+0xa00>
1c00644c:	0280b009 	addi.w	$r9,$r0,44(0x2c)
1c006450:	0280048e 	addi.w	$r14,$r4,1(0x1)
1c006454:	58020e29 	beq	$r17,$r9,524(0x20c) # 1c006660 <core_bench_state+0xa30>
1c006458:	02bf5632 	addi.w	$r18,$r17,-43(0xfd5)
1c00645c:	2a0008cc 	ld.bu	$r12,$r6,2(0x2)
1c006460:	0343f646 	andi	$r6,$r18,0xfd
1c006464:	02800421 	addi.w	$r1,$r1,1(0x1)
1c006468:	0280040d 	addi.w	$r13,$r0,1(0x1)
1c00646c:	0015028f 	move	$r15,$r20
1c006470:	02800412 	addi.w	$r18,$r0,1(0x1)
1c006474:	5ffafcc0 	bne	$r6,$r0,-1284(0x3fafc) # 1c005f70 <core_bench_state+0x340>
1c006478:	0280180d 	addi.w	$r13,$r0,6(0x6)
1c00647c:	5bfaf580 	beq	$r12,$r0,-1292(0x3faf4) # 1c005f70 <core_bench_state+0x340>
1c006480:	0280088e 	addi.w	$r14,$r4,2(0x2)
1c006484:	5801cd89 	beq	$r12,$r9,460(0x1cc) # 1c006650 <core_bench_state+0xa20>
1c006488:	02bf4194 	addi.w	$r20,$r12,-48(0xfd0)
1c00648c:	29803074 	st.w	$r20,$r3,12(0xc)
1c006490:	2a000890 	ld.bu	$r16,$r4,2(0x2)
1c006494:	2a00307d 	ld.bu	$r29,$r3,12(0xc)
1c006498:	0280241e 	addi.w	$r30,$r0,9(0x9)
1c00649c:	028006f7 	addi.w	$r23,$r23,1(0x1)
1c0064a0:	0280040d 	addi.w	$r13,$r0,1(0x1)
1c0064a4:	0015024f 	move	$r15,$r18
1c0064a8:	00150254 	move	$r20,$r18
1c0064ac:	0280040a 	addi.w	$r10,$r0,1(0x1)
1c0064b0:	0015020c 	move	$r12,$r16
1c0064b4:	6bfabfdd 	bltu	$r30,$r29,-1348(0x3fabc) # 1c005f70 <core_bench_state+0x340>
1c0064b8:	02801c0d 	addi.w	$r13,$r0,7(0x7)
1c0064bc:	5bfab600 	beq	$r16,$r0,-1356(0x3fab4) # 1c005f70 <core_bench_state+0x340>
1c0064c0:	02800c8e 	addi.w	$r14,$r4,3(0x3)
1c0064c4:	58020d89 	beq	$r12,$r9,524(0x20c) # 1c0066d0 <core_bench_state+0xaa0>
1c0064c8:	2a000c8c 	ld.bu	$r12,$r4,3(0x3)
1c0064cc:	0280b009 	addi.w	$r9,$r0,44(0x2c)
1c0064d0:	02802404 	addi.w	$r4,$r0,9(0x9)
1c0064d4:	02bf420a 	addi.w	$r10,$r16,-48(0xfd0)
1c0064d8:	2980306a 	st.w	$r10,$r3,12(0xc)
1c0064dc:	2a003071 	ld.bu	$r17,$r3,12(0xc)
1c0064e0:	02801c0d 	addi.w	$r13,$r0,7(0x7)
1c0064e4:	0280040f 	addi.w	$r15,$r0,1(0x1)
1c0064e8:	02800414 	addi.w	$r20,$r0,1(0x1)
1c0064ec:	02800412 	addi.w	$r18,$r0,1(0x1)
1c0064f0:	0280040a 	addi.w	$r10,$r0,1(0x1)
1c0064f4:	00150190 	move	$r16,$r12
1c0064f8:	6c001891 	bgeu	$r4,$r17,24(0x18) # 1c006510 <core_bench_state+0x8e0>
1c0064fc:	0280077b 	addi.w	$r27,$r27,1(0x1)
1c006500:	0280040d 	addi.w	$r13,$r0,1(0x1)
1c006504:	0280041f 	addi.w	$r31,$r0,1(0x1)
1c006508:	53fa6bff 	b	-1432(0xffffa68) # 1c005f70 <core_bench_state+0x340>
1c00650c:	03400000 	andi	$r0,$r0,0x0
1c006510:	5bfa6180 	beq	$r12,$r0,-1440(0x3fa60) # 1c005f70 <core_bench_state+0x340>
1c006514:	2a0005c6 	ld.bu	$r6,$r14,1(0x1)
1c006518:	028005ce 	addi.w	$r14,$r14,1(0x1)
1c00651c:	5801c989 	beq	$r12,$r9,456(0x1c8) # 1c0066e4 <core_bench_state+0xab4>
1c006520:	001500cc 	move	$r12,$r6
1c006524:	53ffb3ff 	b	-80(0xfffffb0) # 1c0064d4 <core_bench_state+0x8a4>
1c006528:	58011a00 	beq	$r16,$r0,280(0x118) # 1c006640 <core_bench_state+0xa10>
1c00652c:	2a0004cd 	ld.bu	$r13,$r6,1(0x1)
1c006530:	58021a1d 	beq	$r16,$r29,536(0x218) # 1c006748 <core_bench_state+0xb18>
1c006534:	001503c6 	move	$r6,$r30
1c006538:	001501b0 	move	$r16,$r13
1c00653c:	53fe47ff 	b	-444(0xffffe44) # 1c006380 <core_bench_state+0x750>
1c006540:	0280080d 	addi.w	$r13,$r0,2(0x2)
1c006544:	0280040f 	addi.w	$r15,$r0,1(0x1)
1c006548:	5800d920 	beq	$r9,$r0,216(0xd8) # 1c006620 <core_bench_state+0x9f0>
1c00654c:	0280b011 	addi.w	$r17,$r0,44(0x2c)
1c006550:	028007c6 	addi.w	$r6,$r30,1(0x1)
1c006554:	58021131 	beq	$r9,$r17,528(0x210) # 1c006764 <core_bench_state+0xb34>
1c006558:	02bf413c 	addi.w	$r28,$r9,-48(0xfd0)
1c00655c:	2980307c 	st.w	$r28,$r3,12(0xc)
1c006560:	2a00306d 	ld.bu	$r13,$r3,12(0xc)
1c006564:	0280240f 	addi.w	$r15,$r0,9(0x9)
1c006568:	2a0009cc 	ld.bu	$r12,$r14,2(0x2)
1c00656c:	0280056b 	addi.w	$r11,$r11,1(0x1)
1c006570:	001500ce 	move	$r14,$r6
1c006574:	68002ded 	bltu	$r15,$r13,44(0x2c) # 1c0065a0 <core_bench_state+0x970>
1c006578:	0280100d 	addi.w	$r13,$r0,4(0x4)
1c00657c:	0280040f 	addi.w	$r15,$r0,1(0x1)
1c006580:	0280041c 	addi.w	$r28,$r0,1(0x1)
1c006584:	5bf9ed80 	beq	$r12,$r0,-1556(0x3f9ec) # 1c005f70 <core_bench_state+0x340>
1c006588:	0280b01d 	addi.w	$r29,$r0,44(0x2c)
1c00658c:	028005c6 	addi.w	$r6,$r14,1(0x1)
1c006590:	5801359d 	beq	$r12,$r29,308(0x134) # 1c0066c4 <core_bench_state+0xa94>
1c006594:	2a000bd0 	ld.bu	$r16,$r30,2(0x2)
1c006598:	53fddfff 	b	-548(0xffffddc) # 1c006374 <core_bench_state+0x744>
1c00659c:	03400000 	andi	$r0,$r0,0x0
1c0065a0:	0280b804 	addi.w	$r4,$r0,46(0x2e)
1c0065a4:	0280040d 	addi.w	$r13,$r0,1(0x1)
1c0065a8:	0280040f 	addi.w	$r15,$r0,1(0x1)
1c0065ac:	0280041c 	addi.w	$r28,$r0,1(0x1)
1c0065b0:	5ff9c124 	bne	$r9,$r4,-1600(0x3f9c0) # 1c005f70 <core_bench_state+0x340>
1c0065b4:	0280140d 	addi.w	$r13,$r0,5(0x5)
1c0065b8:	0015038f 	move	$r15,$r28
1c0065bc:	5bf9b580 	beq	$r12,$r0,-1612(0x3f9b4) # 1c005f70 <core_bench_state+0x340>
1c0065c0:	0280b009 	addi.w	$r9,$r0,44(0x2c)
1c0065c4:	028005c4 	addi.w	$r4,$r14,1(0x1)
1c0065c8:	5801b589 	beq	$r12,$r9,436(0x1b4) # 1c00677c <core_bench_state+0xb4c>
1c0065cc:	2a000bd1 	ld.bu	$r17,$r30,2(0x2)
1c0065d0:	001501c6 	move	$r6,$r14
1c0065d4:	00150190 	move	$r16,$r12
1c0065d8:	53fe13ff 	b	-496(0xffffe10) # 1c0063e8 <core_bench_state+0x7b8>
1c0065dc:	03400000 	andi	$r0,$r0,0x0
1c0065e0:	58005220 	beq	$r17,$r0,80(0x50) # 1c006630 <core_bench_state+0xa00>
1c0065e4:	2a00048c 	ld.bu	$r12,$r4,1(0x1)
1c0065e8:	5bf98a3e 	beq	$r17,$r30,-1656(0x3f988) # 1c005f70 <core_bench_state+0x340>
1c0065ec:	001501c4 	move	$r4,$r14
1c0065f0:	00150191 	move	$r17,$r12
1c0065f4:	53fe03ff 	b	-512(0xffffe00) # 1c0063f4 <core_bench_state+0x7c4>
1c0065f8:	0280140d 	addi.w	$r13,$r0,5(0x5)
1c0065fc:	0280040f 	addi.w	$r15,$r0,1(0x1)
1c006600:	58002120 	beq	$r9,$r0,32(0x20) # 1c006620 <core_bench_state+0x9f0>
1c006604:	0280b00c 	addi.w	$r12,$r0,44(0x2c)
1c006608:	028007c4 	addi.w	$r4,$r30,1(0x1)
1c00660c:	5801d92c 	beq	$r9,$r12,472(0x1d8) # 1c0067e4 <core_bench_state+0xbb4>
1c006610:	2a0009d1 	ld.bu	$r17,$r14,2(0x2)
1c006614:	001503c6 	move	$r6,$r30
1c006618:	00150130 	move	$r16,$r9
1c00661c:	53fdcfff 	b	-564(0xffffdcc) # 1c0063e8 <core_bench_state+0x7b8>
1c006620:	001503ce 	move	$r14,$r30
1c006624:	0015000c 	move	$r12,$r0
1c006628:	53f94bff 	b	-1720(0xffff948) # 1c005f70 <core_bench_state+0x340>
1c00662c:	03400000 	andi	$r0,$r0,0x0
1c006630:	0015008e 	move	$r14,$r4
1c006634:	0015000c 	move	$r12,$r0
1c006638:	53f93bff 	b	-1736(0xffff938) # 1c005f70 <core_bench_state+0x340>
1c00663c:	03400000 	andi	$r0,$r0,0x0
1c006640:	0015022d 	move	$r13,$r17
1c006644:	001500ce 	move	$r14,$r6
1c006648:	0015000c 	move	$r12,$r0
1c00664c:	53f927ff 	b	-1756(0xffff924) # 1c005f70 <core_bench_state+0x340>
1c006650:	2a00088c 	ld.bu	$r12,$r4,2(0x2)
1c006654:	0015024f 	move	$r15,$r18
1c006658:	00150254 	move	$r20,$r18
1c00665c:	53f917ff 	b	-1772(0xffff914) # 1c005f70 <core_bench_state+0x340>
1c006660:	2a0008cc 	ld.bu	$r12,$r6,2(0x2)
1c006664:	0015028f 	move	$r15,$r20
1c006668:	53f90bff 	b	-1784(0xffff908) # 1c005f70 <core_bench_state+0x340>
1c00666c:	03400000 	andi	$r0,$r0,0x0
1c006670:	2a0008cd 	ld.bu	$r13,$r6,2(0x2)
1c006674:	00150090 	move	$r16,$r4
1c006678:	53f73bff 	b	-2248(0xffff738) # 1c005db0 <core_bench_state+0x180>
1c00667c:	03400000 	andi	$r0,$r0,0x0
1c006680:	2a00092d 	ld.bu	$r13,$r9,2(0x2)
1c006684:	00150290 	move	$r16,$r20
1c006688:	00150284 	move	$r4,$r20
1c00668c:	53f727ff 	b	-2268(0xffff724) # 1c005db0 <core_bench_state+0x180>
1c006690:	001500cd 	move	$r13,$r6
1c006694:	53f71fff 	b	-2276(0xffff71c) # 1c005db0 <core_bench_state+0x180>
1c006698:	2a000bad 	ld.bu	$r13,$r29,2(0x2)
1c00669c:	001500cf 	move	$r15,$r6
1c0066a0:	53f713ff 	b	-2288(0xffff710) # 1c005db0 <core_bench_state+0x180>
1c0066a4:	2a000d2d 	ld.bu	$r13,$r9,3(0x3)
1c0066a8:	00150150 	move	$r16,$r10
1c0066ac:	00150144 	move	$r4,$r10
1c0066b0:	00150154 	move	$r20,$r10
1c0066b4:	53f6ffff 	b	-2308(0xffff6fc) # 1c005db0 <core_bench_state+0x180>
1c0066b8:	2a0009cc 	ld.bu	$r12,$r14,2(0x2)
1c0066bc:	001500ce 	move	$r14,$r6
1c0066c0:	53f8b3ff 	b	-1872(0xffff8b0) # 1c005f70 <core_bench_state+0x340>
1c0066c4:	2a000bcc 	ld.bu	$r12,$r30,2(0x2)
1c0066c8:	001500ce 	move	$r14,$r6
1c0066cc:	53f8a7ff 	b	-1884(0xffff8a4) # 1c005f70 <core_bench_state+0x340>
1c0066d0:	2a000c8c 	ld.bu	$r12,$r4,3(0x3)
1c0066d4:	0015014f 	move	$r15,$r10
1c0066d8:	00150154 	move	$r20,$r10
1c0066dc:	00150152 	move	$r18,$r10
1c0066e0:	53f893ff 	b	-1904(0xffff890) # 1c005f70 <core_bench_state+0x340>
1c0066e4:	001500cc 	move	$r12,$r6
1c0066e8:	53f88bff 	b	-1912(0xffff888) # 1c005f70 <core_bench_state+0x340>
1c0066ec:	03400000 	andi	$r0,$r0,0x0
1c0066f0:	2a0009ed 	ld.bu	$r13,$r15,2(0x2)
1c0066f4:	001500cf 	move	$r15,$r6
1c0066f8:	53f6bbff 	b	-2376(0xffff6b8) # 1c005db0 <core_bench_state+0x180>
1c0066fc:	03400000 	andi	$r0,$r0,0x0
1c006700:	00150007 	move	$r7,$r0
1c006704:	53f727ff 	b	-2268(0xffff724) # 1c005e28 <core_bench_state+0x1f8>
1c006708:	00101278 	add.w	$r24,$r19,$r4
1c00670c:	00150007 	move	$r7,$r0
1c006710:	6bf76a78 	bltu	$r19,$r24,-2200(0x3f768) # 1c005e78 <core_bench_state+0x248>
1c006714:	53f91fff 	b	-1764(0xffff91c) # 1c006030 <core_bench_state+0x400>
1c006718:	2a0009cc 	ld.bu	$r12,$r14,2(0x2)
1c00671c:	0280040f 	addi.w	$r15,$r0,1(0x1)
1c006720:	0015008e 	move	$r14,$r4
1c006724:	53f84fff 	b	-1972(0xffff84c) # 1c005f70 <core_bench_state+0x340>
1c006728:	2a0009ed 	ld.bu	$r13,$r15,2(0x2)
1c00672c:	02800410 	addi.w	$r16,$r0,1(0x1)
1c006730:	0015012f 	move	$r15,$r9
1c006734:	53f67fff 	b	-2436(0xffff67c) # 1c005db0 <core_bench_state+0x180>
1c006738:	001501cd 	move	$r13,$r14
1c00673c:	001503cf 	move	$r15,$r30
1c006740:	0015024e 	move	$r14,$r18
1c006744:	53f66fff 	b	-2452(0xffff66c) # 1c005db0 <core_bench_state+0x180>
1c006748:	001501ac 	move	$r12,$r13
1c00674c:	001503ce 	move	$r14,$r30
1c006750:	0015022d 	move	$r13,$r17
1c006754:	53f81fff 	b	-2020(0xffff81c) # 1c005f70 <core_bench_state+0x340>
1c006758:	2a0009ed 	ld.bu	$r13,$r15,2(0x2)
1c00675c:	0015030f 	move	$r15,$r24
1c006760:	53f653ff 	b	-2480(0xffff650) # 1c005db0 <core_bench_state+0x180>
1c006764:	2a0009cc 	ld.bu	$r12,$r14,2(0x2)
1c006768:	001500ce 	move	$r14,$r6
1c00676c:	53f807ff 	b	-2044(0xffff804) # 1c005f70 <core_bench_state+0x340>
1c006770:	2a000bad 	ld.bu	$r13,$r29,2(0x2)
1c006774:	0015012f 	move	$r15,$r9
1c006778:	53f63bff 	b	-2504(0xffff638) # 1c005db0 <core_bench_state+0x180>
1c00677c:	2a000bcc 	ld.bu	$r12,$r30,2(0x2)
1c006780:	0015008e 	move	$r14,$r4
1c006784:	53f7efff 	b	-2068(0xffff7ec) # 1c005f70 <core_bench_state+0x340>
1c006788:	0015012c 	move	$r12,$r9
1c00678c:	001503ce 	move	$r14,$r30
1c006790:	0015001f 	move	$r31,$r0
1c006794:	0015000a 	move	$r10,$r0
1c006798:	00150012 	move	$r18,$r0
1c00679c:	00150014 	move	$r20,$r0
1c0067a0:	29804060 	st.w	$r0,$r3,16(0x10)
1c0067a4:	0015001c 	move	$r28,$r0
1c0067a8:	0015000f 	move	$r15,$r0
1c0067ac:	0015000d 	move	$r13,$r0
1c0067b0:	53f7c3ff 	b	-2112(0xffff7c0) # 1c005f70 <core_bench_state+0x340>
1c0067b4:	001503cd 	move	$r13,$r30
1c0067b8:	001503af 	move	$r15,$r29
1c0067bc:	00150007 	move	$r7,$r0
1c0067c0:	29804060 	st.w	$r0,$r3,16(0x10)
1c0067c4:	0015000a 	move	$r10,$r0
1c0067c8:	00150014 	move	$r20,$r0
1c0067cc:	00150004 	move	$r4,$r0
1c0067d0:	29805060 	st.w	$r0,$r3,20(0x14)
1c0067d4:	0015001c 	move	$r28,$r0
1c0067d8:	00150010 	move	$r16,$r0
1c0067dc:	0015000e 	move	$r14,$r0
1c0067e0:	53f5d3ff 	b	-2608(0xffff5d0) # 1c005db0 <core_bench_state+0x180>
1c0067e4:	2a0009cc 	ld.bu	$r12,$r14,2(0x2)
1c0067e8:	0015008e 	move	$r14,$r4
1c0067ec:	53f787ff 	b	-2172(0xffff784) # 1c005f70 <core_bench_state+0x340>
1c0067f0:	2a0009ed 	ld.bu	$r13,$r15,2(0x2)
1c0067f4:	0015012f 	move	$r15,$r9
1c0067f8:	53f5bbff 	b	-2632(0xffff5b8) # 1c005db0 <core_bench_state+0x180>
1c0067fc:	03400000 	andi	$r0,$r0,0x0

1c006800 <core_init_state>:
core_init_state():
1c006800:	0280040c 	addi.w	$r12,$r0,1(0x1)
1c006804:	02bffc90 	addi.w	$r16,$r4,-1(0xfff)
1c006808:	001500d1 	move	$r17,$r6
1c00680c:	0015000e 	move	$r14,$r0
1c006810:	6c01dd90 	bgeu	$r12,$r16,476(0x1dc) # 1c0069ec <core_init_state+0x1ec>
1c006814:	02bf8063 	addi.w	$r3,$r3,-32(0xfe0)
1c006818:	028004a5 	addi.w	$r5,$r5,1(0x1)
1c00681c:	29803065 	st.w	$r5,$r3,12(0xc)
1c006820:	28403065 	ld.h	$r5,$r3,12(0xc)
1c006824:	29806078 	st.w	$r24,$r3,24(0x18)
1c006828:	29807077 	st.w	$r23,$r3,28(0x1c)
1c00682c:	03401caa 	andi	$r10,$r5,0x7
1c006830:	02bff54b 	addi.w	$r11,$r10,-3(0xffd)
1c006834:	2980306b 	st.w	$r11,$r3,12(0xc)
1c006838:	2a403078 	ld.hu	$r24,$r3,12(0xc)
1c00683c:	00488cad 	srai.w	$r13,$r5,0x3
1c006840:	29805079 	st.w	$r25,$r3,20(0x14)
1c006844:	0280100f 	addi.w	$r15,$r0,4(0x4)
1c006848:	1c000f48 	pcaddu12i	$r8,122(0x7a)
1c00684c:	02b6b108 	addi.w	$r8,$r8,-596(0xdac)
1c006850:	1c000f53 	pcaddu12i	$r19,122(0x7a)
1c006854:	02b58273 	addi.w	$r19,$r19,-672(0xd60)
1c006858:	1c000f47 	pcaddu12i	$r7,122(0x7a)
1c00685c:	02b5b0e7 	addi.w	$r7,$r7,-660(0xd6c)
1c006860:	1c000f46 	pcaddu12i	$r6,122(0x7a)
1c006864:	02b5d0c6 	addi.w	$r6,$r6,-652(0xd74)
1c006868:	1c000f54 	pcaddu12i	$r20,122(0x7a)
1c00686c:	02b5f294 	addi.w	$r20,$r20,-644(0xd7c)
1c006870:	02802009 	addi.w	$r9,$r0,8(0x8)
1c006874:	0280b012 	addi.w	$r18,$r0,44(0x2c)
1c006878:	03400db7 	andi	$r23,$r13,0x3
1c00687c:	6800a9f8 	bltu	$r15,$r24,168(0xa8) # 1c006924 <core_init_state+0x124>
1c006880:	00408b19 	slli.w	$r25,$r24,0x2
1c006884:	0010666c 	add.w	$r12,$r19,$r25
1c006888:	2880018b 	ld.w	$r11,$r12,0
1c00688c:	00408aed 	slli.w	$r13,$r23,0x2
1c006890:	028025ca 	addi.w	$r10,$r14,9(0x9)
1c006894:	4c000160 	jirl	$r0,$r11,0
1c006898:	00103697 	add.w	$r23,$r20,$r13
1c00689c:	288002ed 	ld.w	$r13,$r23,0
1c0068a0:	6c010550 	bgeu	$r10,$r16,260(0x104) # 1c0069a4 <core_init_state+0x1a4>
1c0068a4:	028011cc 	addi.w	$r12,$r14,4(0x4)
1c0068a8:	0010322b 	add.w	$r11,$r17,$r12
1c0068ac:	00103a2e 	add.w	$r14,$r17,$r14
1c0068b0:	028011b9 	addi.w	$r25,$r13,4(0x4)
1c0068b4:	0012e5d7 	sltu	$r23,$r14,$r25
1c0068b8:	001539ac 	or	$r12,$r13,$r14
1c0068bc:	0012adb8 	sltu	$r24,$r13,$r11
1c0068c0:	03c00718 	xori	$r24,$r24,0x1
1c0068c4:	03c006f7 	xori	$r23,$r23,0x1
1c0068c8:	03400d8c 	andi	$r12,$r12,0x3
1c0068cc:	0240058c 	sltui	$r12,$r12,1(0x1)
1c0068d0:	001562f7 	or	$r23,$r23,$r24
1c0068d4:	0014dd98 	and	$r24,$r12,$r23
1c0068d8:	58012700 	beq	$r24,$r0,292(0x124) # 1c0069fc <core_init_state+0x1fc>
1c0068dc:	288001ab 	ld.w	$r11,$r13,0
1c0068e0:	02802018 	addi.w	$r24,$r0,8(0x8)
1c0068e4:	298001cb 	st.w	$r11,$r14,0
1c0068e8:	288011ad 	ld.w	$r13,$r13,4(0x4)
1c0068ec:	298011cd 	st.w	$r13,$r14,4(0x4)
1c0068f0:	028004a5 	addi.w	$r5,$r5,1(0x1)
1c0068f4:	29803065 	st.w	$r5,$r3,12(0xc)
1c0068f8:	28403065 	ld.h	$r5,$r3,12(0xc)
1c0068fc:	001061d8 	add.w	$r24,$r14,$r24
1c006900:	0015014e 	move	$r14,$r10
1c006904:	03401caa 	andi	$r10,$r5,0x7
1c006908:	02bff54b 	addi.w	$r11,$r10,-3(0xffd)
1c00690c:	2980306b 	st.w	$r11,$r3,12(0xc)
1c006910:	29000312 	st.b	$r18,$r24,0
1c006914:	2a403078 	ld.hu	$r24,$r3,12(0xc)
1c006918:	00488cad 	srai.w	$r13,$r5,0x3
1c00691c:	03400db7 	andi	$r23,$r13,0x3
1c006920:	6fff61f8 	bgeu	$r15,$r24,-160(0x3ff60) # 1c006880 <core_init_state+0x80>
1c006924:	00408af9 	slli.w	$r25,$r23,0x2
1c006928:	0010650c 	add.w	$r12,$r8,$r25
1c00692c:	028015ca 	addi.w	$r10,$r14,5(0x5)
1c006930:	2880018d 	ld.w	$r13,$r12,0
1c006934:	6c007150 	bgeu	$r10,$r16,112(0x70) # 1c0069a4 <core_init_state+0x1a4>
1c006938:	028011d7 	addi.w	$r23,$r14,4(0x4)
1c00693c:	028011b9 	addi.w	$r25,$r13,4(0x4)
1c006940:	00103a2e 	add.w	$r14,$r17,$r14
1c006944:	02801018 	addi.w	$r24,$r0,4(0x4)
1c006948:	00105e2b 	add.w	$r11,$r17,$r23
1c00694c:	2a0001ac 	ld.bu	$r12,$r13,0
1c006950:	290001cc 	st.b	$r12,$r14,0
1c006954:	2a0005b7 	ld.bu	$r23,$r13,1(0x1)
1c006958:	290005d7 	st.b	$r23,$r14,1(0x1)
1c00695c:	2a0009ac 	ld.bu	$r12,$r13,2(0x2)
1c006960:	290009cc 	st.b	$r12,$r14,2(0x2)
1c006964:	2a000db7 	ld.bu	$r23,$r13,3(0x3)
1c006968:	29000dd7 	st.b	$r23,$r14,3(0x3)
1c00696c:	5bff870f 	beq	$r24,$r15,-124(0x3ff84) # 1c0068f0 <core_init_state+0xf0>
1c006970:	2a000339 	ld.bu	$r25,$r25,0
1c006974:	29000179 	st.b	$r25,$r11,0
1c006978:	2a0015ab 	ld.bu	$r11,$r13,5(0x5)
1c00697c:	290015cb 	st.b	$r11,$r14,5(0x5)
1c006980:	2a0019ac 	ld.bu	$r12,$r13,6(0x6)
1c006984:	290019cc 	st.b	$r12,$r14,6(0x6)
1c006988:	5fff6b09 	bne	$r24,$r9,-152(0x3ff68) # 1c0068f0 <core_init_state+0xf0>
1c00698c:	2a001dad 	ld.bu	$r13,$r13,7(0x7)
1c006990:	29001dcd 	st.b	$r13,$r14,7(0x7)
1c006994:	53ff5fff 	b	-164(0xfffff5c) # 1c0068f0 <core_init_state+0xf0>
1c006998:	001034d8 	add.w	$r24,$r6,$r13
1c00699c:	2880030d 	ld.w	$r13,$r24,0
1c0069a0:	6bff0550 	bltu	$r10,$r16,-252(0x3ff04) # 1c0068a4 <core_init_state+0xa4>
1c0069a4:	6c0035c4 	bgeu	$r14,$r4,52(0x34) # 1c0069d8 <core_init_state+0x1d8>
1c0069a8:	28807077 	ld.w	$r23,$r3,28(0x1c)
1c0069ac:	28806078 	ld.w	$r24,$r3,24(0x18)
1c0069b0:	28805079 	ld.w	$r25,$r3,20(0x14)
1c0069b4:	00113886 	sub.w	$r6,$r4,$r14
1c0069b8:	00150005 	move	$r5,$r0
1c0069bc:	00103a24 	add.w	$r4,$r17,$r14
1c0069c0:	02808063 	addi.w	$r3,$r3,32(0x20)
1c0069c4:	50317c00 	b	12668(0x317c) # 1c009b40 <memset>
1c0069c8:	001034f9 	add.w	$r25,$r7,$r13
1c0069cc:	2880032d 	ld.w	$r13,$r25,0
1c0069d0:	6bfed550 	bltu	$r10,$r16,-300(0x3fed4) # 1c0068a4 <core_init_state+0xa4>
1c0069d4:	6bffd5c4 	bltu	$r14,$r4,-44(0x3ffd4) # 1c0069a8 <core_init_state+0x1a8>
1c0069d8:	28807077 	ld.w	$r23,$r3,28(0x1c)
1c0069dc:	28806078 	ld.w	$r24,$r3,24(0x18)
1c0069e0:	28805079 	ld.w	$r25,$r3,20(0x14)
1c0069e4:	02808063 	addi.w	$r3,$r3,32(0x20)
1c0069e8:	4c000020 	jirl	$r0,$r1,0
1c0069ec:	00113886 	sub.w	$r6,$r4,$r14
1c0069f0:	00150005 	move	$r5,$r0
1c0069f4:	00103a24 	add.w	$r4,$r17,$r14
1c0069f8:	50314800 	b	12616(0x3148) # 1c009b40 <memset>
1c0069fc:	02802018 	addi.w	$r24,$r0,8(0x8)
1c006a00:	53ff4fff 	b	-180(0xfffff4c) # 1c00694c <core_init_state+0x14c>
1c006a04:	03400000 	andi	$r0,$r0,0x0
1c006a08:	03400000 	andi	$r0,$r0,0x0
1c006a0c:	03400000 	andi	$r0,$r0,0x0

1c006a10 <core_state_transition>:
core_state_transition():
1c006a10:	2880008d 	ld.w	$r13,$r4,0
1c006a14:	00150091 	move	$r17,$r4
1c006a18:	00150004 	move	$r4,$r0
1c006a1c:	2a0001af 	ld.bu	$r15,$r13,0
1c006a20:	001501ae 	move	$r14,$r13
1c006a24:	5802f9e0 	beq	$r15,$r0,760(0x2f8) # 1c006d1c <core_state_transition+0x30c>
1c006a28:	0280b010 	addi.w	$r16,$r0,44(0x2c)
1c006a2c:	028005ae 	addi.w	$r14,$r13,1(0x1)
1c006a30:	5802e9f0 	beq	$r15,$r16,744(0x2e8) # 1c006d18 <core_state_transition+0x308>
1c006a34:	02bfc063 	addi.w	$r3,$r3,-16(0xff0)
1c006a38:	02bf41ec 	addi.w	$r12,$r15,-48(0xfd0)
1c006a3c:	2980306c 	st.w	$r12,$r3,12(0xc)
1c006a40:	288000b2 	ld.w	$r18,$r5,0
1c006a44:	2a003064 	ld.bu	$r4,$r3,12(0xc)
1c006a48:	02802413 	addi.w	$r19,$r0,9(0x9)
1c006a4c:	02800646 	addi.w	$r6,$r18,1(0x1)
1c006a50:	6800ca64 	bltu	$r19,$r4,200(0xc8) # 1c006b18 <core_state_transition+0x108>
1c006a54:	298000a6 	st.w	$r6,$r5,0
1c006a58:	2a0005b2 	ld.bu	$r18,$r13,1(0x1)
1c006a5c:	58018240 	beq	$r18,$r0,384(0x180) # 1c006bdc <core_state_transition+0x1cc>
1c006a60:	028009ad 	addi.w	$r13,$r13,2(0x2)
1c006a64:	58017650 	beq	$r18,$r16,372(0x174) # 1c006bd8 <core_state_transition+0x1c8>
1c006a68:	0280b807 	addi.w	$r7,$r0,46(0x2e)
1c006a6c:	02802408 	addi.w	$r8,$r0,9(0x9)
1c006a70:	0280b009 	addi.w	$r9,$r0,44(0x2c)
1c006a74:	02bf424a 	addi.w	$r10,$r18,-48(0xfd0)
1c006a78:	58003247 	beq	$r18,$r7,48(0x30) # 1c006aa8 <core_state_transition+0x98>
1c006a7c:	2980306a 	st.w	$r10,$r3,12(0xc)
1c006a80:	2a00306b 	ld.bu	$r11,$r3,12(0xc)
1c006a84:	028005b4 	addi.w	$r20,$r13,1(0x1)
1c006a88:	6800c90b 	bltu	$r8,$r11,200(0xc8) # 1c006b50 <core_state_transition+0x140>
1c006a8c:	2a0005d2 	ld.bu	$r18,$r14,1(0x1)
1c006a90:	001501ae 	move	$r14,$r13
1c006a94:	58014640 	beq	$r18,$r0,324(0x144) # 1c006bd8 <core_state_transition+0x1c8>
1c006a98:	5802c249 	beq	$r18,$r9,704(0x2c0) # 1c006d58 <core_state_transition+0x348>
1c006a9c:	0015028d 	move	$r13,$r20
1c006aa0:	02bf424a 	addi.w	$r10,$r18,-48(0xfd0)
1c006aa4:	5fffda47 	bne	$r18,$r7,-40(0x3ffd8) # 1c006a7c <core_state_transition+0x6c>
1c006aa8:	288040b0 	ld.w	$r16,$r5,16(0x10)
1c006aac:	02800613 	addi.w	$r19,$r16,1(0x1)
1c006ab0:	298040b3 	st.w	$r19,$r5,16(0x10)
1c006ab4:	2a0005d2 	ld.bu	$r18,$r14,1(0x1)
1c006ab8:	001501ae 	move	$r14,$r13
1c006abc:	58025640 	beq	$r18,$r0,596(0x254) # 1c006d10 <core_state_transition+0x300>
1c006ac0:	0280b00e 	addi.w	$r14,$r0,44(0x2c)
1c006ac4:	028005af 	addi.w	$r15,$r13,1(0x1)
1c006ac8:	5802464e 	beq	$r18,$r14,580(0x244) # 1c006d0c <core_state_transition+0x2fc>
1c006acc:	02bf7c06 	addi.w	$r6,$r0,-33(0xfdf)
1c006ad0:	02811407 	addi.w	$r7,$r0,69(0x45)
1c006ad4:	02802408 	addi.w	$r8,$r0,9(0x9)
1c006ad8:	0280b004 	addi.w	$r4,$r0,44(0x2c)
1c006adc:	02bf4249 	addi.w	$r9,$r18,-48(0xfd0)
1c006ae0:	29803069 	st.w	$r9,$r3,12(0xc)
1c006ae4:	00149a4a 	and	$r10,$r18,$r6
1c006ae8:	2a00306b 	ld.bu	$r11,$r3,12(0xc)
1c006aec:	5800f947 	beq	$r10,$r7,248(0xf8) # 1c006be4 <core_state_transition+0x1d4>
1c006af0:	028005ee 	addi.w	$r14,$r15,1(0x1)
1c006af4:	6c01cd0b 	bgeu	$r8,$r11,460(0x1cc) # 1c006cc0 <core_state_transition+0x2b0>
1c006af8:	288050b4 	ld.w	$r20,$r5,20(0x14)
1c006afc:	001501ee 	move	$r14,$r15
1c006b00:	02800404 	addi.w	$r4,$r0,1(0x1)
1c006b04:	0280068c 	addi.w	$r12,$r20,1(0x1)
1c006b08:	298050ac 	st.w	$r12,$r5,20(0x14)
1c006b0c:	2980022e 	st.w	$r14,$r17,0
1c006b10:	02804063 	addi.w	$r3,$r3,16(0x10)
1c006b14:	4c000020 	jirl	$r0,$r1,0
1c006b18:	0280ac07 	addi.w	$r7,$r0,43(0x2b)
1c006b1c:	580055e7 	beq	$r15,$r7,84(0x54) # 1c006b70 <core_state_transition+0x160>
1c006b20:	0280b408 	addi.w	$r8,$r0,45(0x2d)
1c006b24:	58004de8 	beq	$r15,$r8,76(0x4c) # 1c006b70 <core_state_transition+0x160>
1c006b28:	0280b809 	addi.w	$r9,$r0,46(0x2e)
1c006b2c:	5801ade9 	beq	$r15,$r9,428(0x1ac) # 1c006cd8 <core_state_transition+0x2c8>
1c006b30:	288010aa 	ld.w	$r10,$r5,4(0x4)
1c006b34:	298000a6 	st.w	$r6,$r5,0
1c006b38:	02800404 	addi.w	$r4,$r0,1(0x1)
1c006b3c:	0280054b 	addi.w	$r11,$r10,1(0x1)
1c006b40:	298010ab 	st.w	$r11,$r5,4(0x4)
1c006b44:	2980022e 	st.w	$r14,$r17,0
1c006b48:	02804063 	addi.w	$r3,$r3,16(0x10)
1c006b4c:	4c000020 	jirl	$r0,$r1,0
1c006b50:	288040ac 	ld.w	$r12,$r5,16(0x10)
1c006b54:	001501ae 	move	$r14,$r13
1c006b58:	02800404 	addi.w	$r4,$r0,1(0x1)
1c006b5c:	0280058f 	addi.w	$r15,$r12,1(0x1)
1c006b60:	298040af 	st.w	$r15,$r5,16(0x10)
1c006b64:	2980022e 	st.w	$r14,$r17,0
1c006b68:	02804063 	addi.w	$r3,$r3,16(0x10)
1c006b6c:	4c000020 	jirl	$r0,$r1,0
1c006b70:	298000a6 	st.w	$r6,$r5,0
1c006b74:	2a0005b4 	ld.bu	$r20,$r13,1(0x1)
1c006b78:	5801ce80 	beq	$r20,$r0,460(0x1cc) # 1c006d44 <core_state_transition+0x334>
1c006b7c:	028009ae 	addi.w	$r14,$r13,2(0x2)
1c006b80:	5801c690 	beq	$r20,$r16,452(0x1c4) # 1c006d44 <core_state_transition+0x334>
1c006b84:	02bf428c 	addi.w	$r12,$r20,-48(0xfd0)
1c006b88:	2980306c 	st.w	$r12,$r3,12(0xc)
1c006b8c:	288020af 	ld.w	$r15,$r5,8(0x8)
1c006b90:	2a003072 	ld.bu	$r18,$r3,12(0xc)
1c006b94:	02802410 	addi.w	$r16,$r0,9(0x9)
1c006b98:	028005f3 	addi.w	$r19,$r15,1(0x1)
1c006b9c:	6c002612 	bgeu	$r16,$r18,36(0x24) # 1c006bc0 <core_state_transition+0x1b0>
1c006ba0:	0280b804 	addi.w	$r4,$r0,46(0x2e)
1c006ba4:	58015284 	beq	$r20,$r4,336(0x150) # 1c006cf4 <core_state_transition+0x2e4>
1c006ba8:	298020b3 	st.w	$r19,$r5,8(0x8)
1c006bac:	2980022e 	st.w	$r14,$r17,0
1c006bb0:	02800404 	addi.w	$r4,$r0,1(0x1)
1c006bb4:	02804063 	addi.w	$r3,$r3,16(0x10)
1c006bb8:	4c000020 	jirl	$r0,$r1,0
1c006bbc:	03400000 	andi	$r0,$r0,0x0
1c006bc0:	298020b3 	st.w	$r19,$r5,8(0x8)
1c006bc4:	2a0009b2 	ld.bu	$r18,$r13,2(0x2)
1c006bc8:	58001640 	beq	$r18,$r0,20(0x14) # 1c006bdc <core_state_transition+0x1cc>
1c006bcc:	0280b006 	addi.w	$r6,$r0,44(0x2c)
1c006bd0:	028005cd 	addi.w	$r13,$r14,1(0x1)
1c006bd4:	5ffe9646 	bne	$r18,$r6,-364(0x3fe94) # 1c006a68 <core_state_transition+0x58>
1c006bd8:	001501ae 	move	$r14,$r13
1c006bdc:	02801004 	addi.w	$r4,$r0,4(0x4)
1c006be0:	53ff87ff 	b	-124(0xfffff84) # 1c006b64 <core_state_transition+0x154>
1c006be4:	288050b0 	ld.w	$r16,$r5,20(0x14)
1c006be8:	02800613 	addi.w	$r19,$r16,1(0x1)
1c006bec:	298050b3 	st.w	$r19,$r5,20(0x14)
1c006bf0:	2a0005a6 	ld.bu	$r6,$r13,1(0x1)
1c006bf4:	580144c0 	beq	$r6,$r0,324(0x144) # 1c006d38 <core_state_transition+0x328>
1c006bf8:	0280b007 	addi.w	$r7,$r0,44(0x2c)
1c006bfc:	028005ee 	addi.w	$r14,$r15,1(0x1)
1c006c00:	58013cc7 	beq	$r6,$r7,316(0x13c) # 1c006d3c <core_state_transition+0x32c>
1c006c04:	288030ad 	ld.w	$r13,$r5,12(0xc)
1c006c08:	02bf54c8 	addi.w	$r8,$r6,-43(0xfd5)
1c006c0c:	0343f504 	andi	$r4,$r8,0xfd
1c006c10:	028005a9 	addi.w	$r9,$r13,1(0x1)
1c006c14:	298030a9 	st.w	$r9,$r5,12(0xc)
1c006c18:	58001880 	beq	$r4,$r0,24(0x18) # 1c006c30 <core_state_transition+0x220>
1c006c1c:	2980022e 	st.w	$r14,$r17,0
1c006c20:	02800404 	addi.w	$r4,$r0,1(0x1)
1c006c24:	02804063 	addi.w	$r3,$r3,16(0x10)
1c006c28:	4c000020 	jirl	$r0,$r1,0
1c006c2c:	03400000 	andi	$r0,$r0,0x0
1c006c30:	2a0005ea 	ld.bu	$r10,$r15,1(0x1)
1c006c34:	5800fd40 	beq	$r10,$r0,252(0xfc) # 1c006d30 <core_state_transition+0x320>
1c006c38:	028009ee 	addi.w	$r14,$r15,2(0x2)
1c006c3c:	5800f547 	beq	$r10,$r7,244(0xf4) # 1c006d30 <core_state_transition+0x320>
1c006c40:	288060b4 	ld.w	$r20,$r5,24(0x18)
1c006c44:	02bf414b 	addi.w	$r11,$r10,-48(0xfd0)
1c006c48:	2980306b 	st.w	$r11,$r3,12(0xc)
1c006c4c:	2a00306c 	ld.bu	$r12,$r3,12(0xc)
1c006c50:	02800690 	addi.w	$r16,$r20,1(0x1)
1c006c54:	02802412 	addi.w	$r18,$r0,9(0x9)
1c006c58:	298060b0 	st.w	$r16,$r5,24(0x18)
1c006c5c:	6bffc24c 	bltu	$r18,$r12,-64(0x3ffc0) # 1c006c1c <core_state_transition+0x20c>
1c006c60:	2a0009e4 	ld.bu	$r4,$r15,2(0x2)
1c006c64:	5800c480 	beq	$r4,$r0,196(0xc4) # 1c006d28 <core_state_transition+0x318>
1c006c68:	02800dea 	addi.w	$r10,$r15,3(0x3)
1c006c6c:	5800b887 	beq	$r4,$r7,184(0xb8) # 1c006d24 <core_state_transition+0x314>
1c006c70:	02802413 	addi.w	$r19,$r0,9(0x9)
1c006c74:	0280b006 	addi.w	$r6,$r0,44(0x2c)
1c006c78:	02bf4087 	addi.w	$r7,$r4,-48(0xfd0)
1c006c7c:	29803067 	st.w	$r7,$r3,12(0xc)
1c006c80:	2a003068 	ld.bu	$r8,$r3,12(0xc)
1c006c84:	0280054f 	addi.w	$r15,$r10,1(0x1)
1c006c88:	6c001e68 	bgeu	$r19,$r8,28(0x1c) # 1c006ca4 <core_state_transition+0x294>
1c006c8c:	288010a9 	ld.w	$r9,$r5,4(0x4)
1c006c90:	0015014e 	move	$r14,$r10
1c006c94:	02800404 	addi.w	$r4,$r0,1(0x1)
1c006c98:	0280052d 	addi.w	$r13,$r9,1(0x1)
1c006c9c:	298010ad 	st.w	$r13,$r5,4(0x4)
1c006ca0:	53fec7ff 	b	-316(0xffffec4) # 1c006b64 <core_state_transition+0x154>
1c006ca4:	2a0005c4 	ld.bu	$r4,$r14,1(0x1)
1c006ca8:	0015014e 	move	$r14,$r10
1c006cac:	58007880 	beq	$r4,$r0,120(0x78) # 1c006d24 <core_state_transition+0x314>
1c006cb0:	58009c86 	beq	$r4,$r6,156(0x9c) # 1c006d4c <core_state_transition+0x33c>
1c006cb4:	001501ea 	move	$r10,$r15
1c006cb8:	53ffc3ff 	b	-64(0xfffffc0) # 1c006c78 <core_state_transition+0x268>
1c006cbc:	03400000 	andi	$r0,$r0,0x0
1c006cc0:	2a0005b2 	ld.bu	$r18,$r13,1(0x1)
1c006cc4:	001501ed 	move	$r13,$r15
1c006cc8:	58004640 	beq	$r18,$r0,68(0x44) # 1c006d0c <core_state_transition+0x2fc>
1c006ccc:	58004644 	beq	$r18,$r4,68(0x44) # 1c006d10 <core_state_transition+0x300>
1c006cd0:	001501cf 	move	$r15,$r14
1c006cd4:	53fe0bff 	b	-504(0xffffe08) # 1c006adc <core_state_transition+0xcc>
1c006cd8:	298000a6 	st.w	$r6,$r5,0
1c006cdc:	2a0005b2 	ld.bu	$r18,$r13,1(0x1)
1c006ce0:	58003240 	beq	$r18,$r0,48(0x30) # 1c006d10 <core_state_transition+0x300>
1c006ce4:	028009af 	addi.w	$r15,$r13,2(0x2)
1c006ce8:	58002650 	beq	$r18,$r16,36(0x24) # 1c006d0c <core_state_transition+0x2fc>
1c006cec:	001501cd 	move	$r13,$r14
1c006cf0:	53fddfff 	b	-548(0xffffddc) # 1c006acc <core_state_transition+0xbc>
1c006cf4:	298020b3 	st.w	$r19,$r5,8(0x8)
1c006cf8:	2a0009b2 	ld.bu	$r18,$r13,2(0x2)
1c006cfc:	58001640 	beq	$r18,$r0,20(0x14) # 1c006d10 <core_state_transition+0x300>
1c006d00:	0280b00d 	addi.w	$r13,$r0,44(0x2c)
1c006d04:	028005cf 	addi.w	$r15,$r14,1(0x1)
1c006d08:	5fffe64d 	bne	$r18,$r13,-28(0x3ffe4) # 1c006cec <core_state_transition+0x2dc>
1c006d0c:	001501ee 	move	$r14,$r15
1c006d10:	02801404 	addi.w	$r4,$r0,5(0x5)
1c006d14:	53fe53ff 	b	-432(0xffffe50) # 1c006b64 <core_state_transition+0x154>
1c006d18:	00150004 	move	$r4,$r0
1c006d1c:	2980022e 	st.w	$r14,$r17,0
1c006d20:	4c000020 	jirl	$r0,$r1,0
1c006d24:	0015014e 	move	$r14,$r10
1c006d28:	02801c04 	addi.w	$r4,$r0,7(0x7)
1c006d2c:	53fe3bff 	b	-456(0xffffe38) # 1c006b64 <core_state_transition+0x154>
1c006d30:	02801804 	addi.w	$r4,$r0,6(0x6)
1c006d34:	53fe33ff 	b	-464(0xffffe30) # 1c006b64 <core_state_transition+0x154>
1c006d38:	001501ee 	move	$r14,$r15
1c006d3c:	02800c04 	addi.w	$r4,$r0,3(0x3)
1c006d40:	53fe27ff 	b	-476(0xffffe24) # 1c006b64 <core_state_transition+0x154>
1c006d44:	02800804 	addi.w	$r4,$r0,2(0x2)
1c006d48:	53fe1fff 	b	-484(0xffffe1c) # 1c006b64 <core_state_transition+0x154>
1c006d4c:	001501ee 	move	$r14,$r15
1c006d50:	02801c04 	addi.w	$r4,$r0,7(0x7)
1c006d54:	53fe13ff 	b	-496(0xffffe10) # 1c006b64 <core_state_transition+0x154>
1c006d58:	0015028e 	move	$r14,$r20
1c006d5c:	02801004 	addi.w	$r4,$r0,4(0x4)
1c006d60:	53fe07ff 	b	-508(0xffffe04) # 1c006b64 <core_state_transition+0x154>
1c006d64:	03400000 	andi	$r0,$r0,0x0
1c006d68:	03400000 	andi	$r0,$r0,0x0
1c006d6c:	03400000 	andi	$r0,$r0,0x0

1c006d70 <parseval>:
parseval():
1c006d70:	28000093 	ld.b	$r19,$r4,0
1c006d74:	0280b40c 	addi.w	$r12,$r0,45(0x2d)
1c006d78:	02bfc063 	addi.w	$r3,$r3,-16(0xff0)
1c006d7c:	02800414 	addi.w	$r20,$r0,1(0x1)
1c006d80:	5c00126c 	bne	$r19,$r12,16(0x10) # 1c006d90 <parseval+0x20>
1c006d84:	28000493 	ld.b	$r19,$r4,1(0x1)
1c006d88:	02bffc14 	addi.w	$r20,$r0,-1(0xfff)
1c006d8c:	02800484 	addi.w	$r4,$r4,1(0x1)
1c006d90:	0280c005 	addi.w	$r5,$r0,48(0x30)
1c006d94:	58013e65 	beq	$r19,$r5,316(0x13c) # 1c006ed0 <parseval+0x160>
1c006d98:	02bf426b 	addi.w	$r11,$r19,-48(0xfd0)
1c006d9c:	2980306b 	st.w	$r11,$r3,12(0xc)
1c006da0:	2a00306d 	ld.bu	$r13,$r3,12(0xc)
1c006da4:	02802406 	addi.w	$r6,$r0,9(0x9)
1c006da8:	680190cd 	bltu	$r6,$r13,400(0x190) # 1c006f38 <parseval+0x1c8>
1c006dac:	0015000a 	move	$r10,$r0
1c006db0:	0280280e 	addi.w	$r14,$r0,10(0xa)
1c006db4:	02802409 	addi.w	$r9,$r0,9(0x9)
1c006db8:	001c394a 	mul.w	$r10,$r10,$r14
1c006dbc:	28000493 	ld.b	$r19,$r4,1(0x1)
1c006dc0:	02bf4270 	addi.w	$r16,$r19,-48(0xfd0)
1c006dc4:	29803070 	st.w	$r16,$r3,12(0xc)
1c006dc8:	2a003071 	ld.bu	$r17,$r3,12(0xc)
1c006dcc:	0010296a 	add.w	$r10,$r11,$r10
1c006dd0:	6800d131 	bltu	$r9,$r17,208(0xd0) # 1c006ea0 <parseval+0x130>
1c006dd4:	001c394b 	mul.w	$r11,$r10,$r14
1c006dd8:	28000893 	ld.b	$r19,$r4,2(0x2)
1c006ddc:	02bf426f 	addi.w	$r15,$r19,-48(0xfd0)
1c006de0:	2980306f 	st.w	$r15,$r3,12(0xc)
1c006de4:	2a003072 	ld.bu	$r18,$r3,12(0xc)
1c006de8:	00102e0a 	add.w	$r10,$r16,$r11
1c006dec:	6800b532 	bltu	$r9,$r18,180(0xb4) # 1c006ea0 <parseval+0x130>
1c006df0:	001c394c 	mul.w	$r12,$r10,$r14
1c006df4:	28000c93 	ld.b	$r19,$r4,3(0x3)
1c006df8:	02bf4265 	addi.w	$r5,$r19,-48(0xfd0)
1c006dfc:	29803065 	st.w	$r5,$r3,12(0xc)
1c006e00:	2a003066 	ld.bu	$r6,$r3,12(0xc)
1c006e04:	001031ea 	add.w	$r10,$r15,$r12
1c006e08:	68009926 	bltu	$r9,$r6,152(0x98) # 1c006ea0 <parseval+0x130>
1c006e0c:	001c394d 	mul.w	$r13,$r10,$r14
1c006e10:	28001093 	ld.b	$r19,$r4,4(0x4)
1c006e14:	02bf4267 	addi.w	$r7,$r19,-48(0xfd0)
1c006e18:	29803067 	st.w	$r7,$r3,12(0xc)
1c006e1c:	2a003068 	ld.bu	$r8,$r3,12(0xc)
1c006e20:	001034aa 	add.w	$r10,$r5,$r13
1c006e24:	68007d28 	bltu	$r9,$r8,124(0x7c) # 1c006ea0 <parseval+0x130>
1c006e28:	001c394a 	mul.w	$r10,$r10,$r14
1c006e2c:	28001493 	ld.b	$r19,$r4,5(0x5)
1c006e30:	02bf4270 	addi.w	$r16,$r19,-48(0xfd0)
1c006e34:	29803070 	st.w	$r16,$r3,12(0xc)
1c006e38:	2a003071 	ld.bu	$r17,$r3,12(0xc)
1c006e3c:	001028ea 	add.w	$r10,$r7,$r10
1c006e40:	68006131 	bltu	$r9,$r17,96(0x60) # 1c006ea0 <parseval+0x130>
1c006e44:	001c394b 	mul.w	$r11,$r10,$r14
1c006e48:	28001893 	ld.b	$r19,$r4,6(0x6)
1c006e4c:	02bf426f 	addi.w	$r15,$r19,-48(0xfd0)
1c006e50:	2980306f 	st.w	$r15,$r3,12(0xc)
1c006e54:	2a003072 	ld.bu	$r18,$r3,12(0xc)
1c006e58:	00102e0a 	add.w	$r10,$r16,$r11
1c006e5c:	68004532 	bltu	$r9,$r18,68(0x44) # 1c006ea0 <parseval+0x130>
1c006e60:	001c394c 	mul.w	$r12,$r10,$r14
1c006e64:	02802084 	addi.w	$r4,$r4,8(0x8)
1c006e68:	283ffc93 	ld.b	$r19,$r4,-1(0xfff)
1c006e6c:	02bf4265 	addi.w	$r5,$r19,-48(0xfd0)
1c006e70:	29803065 	st.w	$r5,$r3,12(0xc)
1c006e74:	2a003066 	ld.bu	$r6,$r3,12(0xc)
1c006e78:	001031ea 	add.w	$r10,$r15,$r12
1c006e7c:	68002526 	bltu	$r9,$r6,36(0x24) # 1c006ea0 <parseval+0x130>
1c006e80:	001c394d 	mul.w	$r13,$r10,$r14
1c006e84:	28000093 	ld.b	$r19,$r4,0
1c006e88:	02bf426b 	addi.w	$r11,$r19,-48(0xfd0)
1c006e8c:	2980306b 	st.w	$r11,$r3,12(0xc)
1c006e90:	2a003067 	ld.bu	$r7,$r3,12(0xc)
1c006e94:	001034aa 	add.w	$r10,$r5,$r13
1c006e98:	6fff2127 	bgeu	$r9,$r7,-224(0x3ff20) # 1c006db8 <parseval+0x48>
1c006e9c:	03400000 	andi	$r0,$r0,0x0
1c006ea0:	02812c04 	addi.w	$r4,$r0,75(0x4b)
1c006ea4:	58001e64 	beq	$r19,$r4,28(0x1c) # 1c006ec0 <parseval+0x150>
1c006ea8:	02813411 	addi.w	$r17,$r0,77(0x4d)
1c006eac:	5c000a71 	bne	$r19,$r17,8(0x8) # 1c006eb4 <parseval+0x144>
1c006eb0:	0040d14a 	slli.w	$r10,$r10,0x14
1c006eb4:	001c5144 	mul.w	$r4,$r10,$r20
1c006eb8:	02804063 	addi.w	$r3,$r3,16(0x10)
1c006ebc:	4c000020 	jirl	$r0,$r1,0
1c006ec0:	0040a94a 	slli.w	$r10,$r10,0xa
1c006ec4:	001c5144 	mul.w	$r4,$r10,$r20
1c006ec8:	02804063 	addi.w	$r3,$r3,16(0x10)
1c006ecc:	4c000020 	jirl	$r0,$r1,0
1c006ed0:	28000487 	ld.b	$r7,$r4,1(0x1)
1c006ed4:	0281e008 	addi.w	$r8,$r0,120(0x78)
1c006ed8:	0015000b 	move	$r11,$r0
1c006edc:	5ffed0e8 	bne	$r7,$r8,-304(0x3fed0) # 1c006dac <parseval+0x3c>
1c006ee0:	02800888 	addi.w	$r8,$r4,2(0x2)
1c006ee4:	0015000a 	move	$r10,$r0
1c006ee8:	0280240d 	addi.w	$r13,$r0,9(0x9)
1c006eec:	02801406 	addi.w	$r6,$r0,5(0x5)
1c006ef0:	28000113 	ld.b	$r19,$r8,0
1c006ef4:	00409149 	slli.w	$r9,$r10,0x4
1c006ef8:	02800508 	addi.w	$r8,$r8,1(0x1)
1c006efc:	29803073 	st.w	$r19,$r3,12(0xc)
1c006f00:	2a003070 	ld.bu	$r16,$r3,12(0xc)
1c006f04:	02bf426f 	addi.w	$r15,$r19,-48(0xfd0)
1c006f08:	02bf420e 	addi.w	$r14,$r16,-48(0xfd0)
1c006f0c:	2980306e 	st.w	$r14,$r3,12(0xc)
1c006f10:	2a00306c 	ld.bu	$r12,$r3,12(0xc)
1c006f14:	02be7e12 	addi.w	$r18,$r16,-97(0xf9f)
1c006f18:	29803072 	st.w	$r18,$r3,12(0xc)
1c006f1c:	2a003065 	ld.bu	$r5,$r3,12(0xc)
1c006f20:	6c0009ac 	bgeu	$r13,$r12,8(0x8) # 1c006f28 <parseval+0x1b8>
1c006f24:	6bff7cc5 	bltu	$r6,$r5,-132(0x3ff7c) # 1c006ea0 <parseval+0x130>
1c006f28:	640009af 	bge	$r13,$r15,8(0x8) # 1c006f30 <parseval+0x1c0>
1c006f2c:	02bea66f 	addi.w	$r15,$r19,-87(0xfa9)
1c006f30:	001025ea 	add.w	$r10,$r15,$r9
1c006f34:	53ffbfff 	b	-68(0xfffffbc) # 1c006ef0 <parseval+0x180>
1c006f38:	0015000a 	move	$r10,$r0
1c006f3c:	53ff67ff 	b	-156(0xfffff64) # 1c006ea0 <parseval+0x130>

1c006f40 <get_seed_args>:
get_seed_args():
1c006f40:	60001085 	blt	$r4,$r5,16(0x10) # 1c006f50 <get_seed_args+0x10>
1c006f44:	00150004 	move	$r4,$r0
1c006f48:	4c000020 	jirl	$r0,$r1,0
1c006f4c:	03400000 	andi	$r0,$r0,0x0
1c006f50:	00408884 	slli.w	$r4,$r4,0x2
1c006f54:	001010c5 	add.w	$r5,$r6,$r4
1c006f58:	288000ac 	ld.w	$r12,$r5,0
1c006f5c:	0280b40d 	addi.w	$r13,$r0,45(0x2d)
1c006f60:	02bfc063 	addi.w	$r3,$r3,-16(0xff0)
1c006f64:	28000193 	ld.b	$r19,$r12,0
1c006f68:	02800412 	addi.w	$r18,$r0,1(0x1)
1c006f6c:	58019e6d 	beq	$r19,$r13,412(0x19c) # 1c007108 <get_seed_args+0x1c8>
1c006f70:	0280c006 	addi.w	$r6,$r0,48(0x30)
1c006f74:	58012e66 	beq	$r19,$r6,300(0x12c) # 1c0070a0 <get_seed_args+0x160>
1c006f78:	02bf4274 	addi.w	$r20,$r19,-48(0xfd0)
1c006f7c:	29803074 	st.w	$r20,$r3,12(0xc)
1c006f80:	2a00306e 	ld.bu	$r14,$r3,12(0xc)
1c006f84:	02802407 	addi.w	$r7,$r0,9(0x9)
1c006f88:	00150004 	move	$r4,$r0
1c006f8c:	6800f4ee 	bltu	$r7,$r14,244(0xf4) # 1c007080 <get_seed_args+0x140>
1c006f90:	00150004 	move	$r4,$r0
1c006f94:	02802807 	addi.w	$r7,$r0,10(0xa)
1c006f98:	0280240e 	addi.w	$r14,$r0,9(0x9)
1c006f9c:	001c1c84 	mul.w	$r4,$r4,$r7
1c006fa0:	28000593 	ld.b	$r19,$r12,1(0x1)
1c006fa4:	02bf4268 	addi.w	$r8,$r19,-48(0xfd0)
1c006fa8:	29803068 	st.w	$r8,$r3,12(0xc)
1c006fac:	2a003069 	ld.bu	$r9,$r3,12(0xc)
1c006fb0:	00101284 	add.w	$r4,$r20,$r4
1c006fb4:	6800cdc9 	bltu	$r14,$r9,204(0xcc) # 1c007080 <get_seed_args+0x140>
1c006fb8:	001c1c8a 	mul.w	$r10,$r4,$r7
1c006fbc:	28000993 	ld.b	$r19,$r12,2(0x2)
1c006fc0:	02bf426f 	addi.w	$r15,$r19,-48(0xfd0)
1c006fc4:	2980306f 	st.w	$r15,$r3,12(0xc)
1c006fc8:	2a003071 	ld.bu	$r17,$r3,12(0xc)
1c006fcc:	00102904 	add.w	$r4,$r8,$r10
1c006fd0:	6800b1d1 	bltu	$r14,$r17,176(0xb0) # 1c007080 <get_seed_args+0x140>
1c006fd4:	001c1c8b 	mul.w	$r11,$r4,$r7
1c006fd8:	28000d93 	ld.b	$r19,$r12,3(0x3)
1c006fdc:	02bf426d 	addi.w	$r13,$r19,-48(0xfd0)
1c006fe0:	2980306d 	st.w	$r13,$r3,12(0xc)
1c006fe4:	2a003065 	ld.bu	$r5,$r3,12(0xc)
1c006fe8:	00102de4 	add.w	$r4,$r15,$r11
1c006fec:	680095c5 	bltu	$r14,$r5,148(0x94) # 1c007080 <get_seed_args+0x140>
1c006ff0:	001c1c86 	mul.w	$r6,$r4,$r7
1c006ff4:	28001193 	ld.b	$r19,$r12,4(0x4)
1c006ff8:	02bf4274 	addi.w	$r20,$r19,-48(0xfd0)
1c006ffc:	29803074 	st.w	$r20,$r3,12(0xc)
1c007000:	2a003070 	ld.bu	$r16,$r3,12(0xc)
1c007004:	001019a4 	add.w	$r4,$r13,$r6
1c007008:	680079d0 	bltu	$r14,$r16,120(0x78) # 1c007080 <get_seed_args+0x140>
1c00700c:	001c1c84 	mul.w	$r4,$r4,$r7
1c007010:	28001593 	ld.b	$r19,$r12,5(0x5)
1c007014:	02bf4268 	addi.w	$r8,$r19,-48(0xfd0)
1c007018:	29803068 	st.w	$r8,$r3,12(0xc)
1c00701c:	2a003069 	ld.bu	$r9,$r3,12(0xc)
1c007020:	00101284 	add.w	$r4,$r20,$r4
1c007024:	68005dc9 	bltu	$r14,$r9,92(0x5c) # 1c007080 <get_seed_args+0x140>
1c007028:	001c1c8a 	mul.w	$r10,$r4,$r7
1c00702c:	28001993 	ld.b	$r19,$r12,6(0x6)
1c007030:	02bf426f 	addi.w	$r15,$r19,-48(0xfd0)
1c007034:	2980306f 	st.w	$r15,$r3,12(0xc)
1c007038:	2a003071 	ld.bu	$r17,$r3,12(0xc)
1c00703c:	00102904 	add.w	$r4,$r8,$r10
1c007040:	680041d1 	bltu	$r14,$r17,64(0x40) # 1c007080 <get_seed_args+0x140>
1c007044:	001c1c8b 	mul.w	$r11,$r4,$r7
1c007048:	0280218c 	addi.w	$r12,$r12,8(0x8)
1c00704c:	283ffd93 	ld.b	$r19,$r12,-1(0xfff)
1c007050:	02bf426d 	addi.w	$r13,$r19,-48(0xfd0)
1c007054:	2980306d 	st.w	$r13,$r3,12(0xc)
1c007058:	2a003065 	ld.bu	$r5,$r3,12(0xc)
1c00705c:	00102de4 	add.w	$r4,$r15,$r11
1c007060:	680021c5 	bltu	$r14,$r5,32(0x20) # 1c007080 <get_seed_args+0x140>
1c007064:	001c1c86 	mul.w	$r6,$r4,$r7
1c007068:	28000193 	ld.b	$r19,$r12,0
1c00706c:	02bf4274 	addi.w	$r20,$r19,-48(0xfd0)
1c007070:	29803074 	st.w	$r20,$r3,12(0xc)
1c007074:	2a003070 	ld.bu	$r16,$r3,12(0xc)
1c007078:	001019a4 	add.w	$r4,$r13,$r6
1c00707c:	6fff21d0 	bgeu	$r14,$r16,-224(0x3ff20) # 1c006f9c <get_seed_args+0x5c>
1c007080:	02812c07 	addi.w	$r7,$r0,75(0x4b)
1c007084:	58009667 	beq	$r19,$r7,148(0x94) # 1c007118 <get_seed_args+0x1d8>
1c007088:	0281340e 	addi.w	$r14,$r0,77(0x4d)
1c00708c:	5c000a6e 	bne	$r19,$r14,8(0x8) # 1c007094 <get_seed_args+0x154>
1c007090:	0040d084 	slli.w	$r4,$r4,0x14
1c007094:	001c4884 	mul.w	$r4,$r4,$r18
1c007098:	02804063 	addi.w	$r3,$r3,16(0x10)
1c00709c:	4c000020 	jirl	$r0,$r1,0
1c0070a0:	28000588 	ld.b	$r8,$r12,1(0x1)
1c0070a4:	0281e009 	addi.w	$r9,$r0,120(0x78)
1c0070a8:	00150014 	move	$r20,$r0
1c0070ac:	5ffee509 	bne	$r8,$r9,-284(0x3fee4) # 1c006f90 <get_seed_args+0x50>
1c0070b0:	0280098c 	addi.w	$r12,$r12,2(0x2)
1c0070b4:	00150004 	move	$r4,$r0
1c0070b8:	02802410 	addi.w	$r16,$r0,9(0x9)
1c0070bc:	02801414 	addi.w	$r20,$r0,5(0x5)
1c0070c0:	28000193 	ld.b	$r19,$r12,0
1c0070c4:	00409091 	slli.w	$r17,$r4,0x4
1c0070c8:	0280058c 	addi.w	$r12,$r12,1(0x1)
1c0070cc:	29803073 	st.w	$r19,$r3,12(0xc)
1c0070d0:	2a00306a 	ld.bu	$r10,$r3,12(0xc)
1c0070d4:	02bf426f 	addi.w	$r15,$r19,-48(0xfd0)
1c0070d8:	02bf414b 	addi.w	$r11,$r10,-48(0xfd0)
1c0070dc:	2980306b 	st.w	$r11,$r3,12(0xc)
1c0070e0:	2a003065 	ld.bu	$r5,$r3,12(0xc)
1c0070e4:	02be7d4d 	addi.w	$r13,$r10,-97(0xf9f)
1c0070e8:	2980306d 	st.w	$r13,$r3,12(0xc)
1c0070ec:	2a003066 	ld.bu	$r6,$r3,12(0xc)
1c0070f0:	6c000a05 	bgeu	$r16,$r5,8(0x8) # 1c0070f8 <get_seed_args+0x1b8>
1c0070f4:	6bff8e86 	bltu	$r20,$r6,-116(0x3ff8c) # 1c007080 <get_seed_args+0x140>
1c0070f8:	64000a0f 	bge	$r16,$r15,8(0x8) # 1c007100 <get_seed_args+0x1c0>
1c0070fc:	02bea66f 	addi.w	$r15,$r19,-87(0xfa9)
1c007100:	00103e24 	add.w	$r4,$r17,$r15
1c007104:	53ffbfff 	b	-68(0xfffffbc) # 1c0070c0 <get_seed_args+0x180>
1c007108:	28000593 	ld.b	$r19,$r12,1(0x1)
1c00710c:	02bffc12 	addi.w	$r18,$r0,-1(0xfff)
1c007110:	0280058c 	addi.w	$r12,$r12,1(0x1)
1c007114:	53fe5fff 	b	-420(0xffffe5c) # 1c006f70 <get_seed_args+0x30>
1c007118:	0040a884 	slli.w	$r4,$r4,0xa
1c00711c:	53ff7bff 	b	-136(0xfffff78) # 1c007094 <get_seed_args+0x154>

1c007120 <crcu8>:
crcu8():
1c007120:	0015948e 	xor	$r14,$r4,$r5
1c007124:	004484a8 	srli.w	$r8,$r5,0x1
1c007128:	034005c5 	andi	$r5,$r14,0x1
1c00712c:	02bfc063 	addi.w	$r3,$r3,-16(0xff0)
1c007130:	0044848d 	srli.w	$r13,$r4,0x1
1c007134:	580018a0 	beq	$r5,$r0,24(0x18) # 1c00714c <crcu8+0x2c>
1c007138:	15ffff46 	lu12i.w	$r6,-6(0xffffa)
1c00713c:	038004c7 	ori	$r7,$r6,0x1
1c007140:	00159d0c 	xor	$r12,$r8,$r7
1c007144:	2980306c 	st.w	$r12,$r3,12(0xc)
1c007148:	2a403068 	ld.hu	$r8,$r3,12(0xc)
1c00714c:	0015b509 	xor	$r9,$r8,$r13
1c007150:	0340052b 	andi	$r11,$r9,0x1
1c007154:	0044888a 	srli.w	$r10,$r4,0x2
1c007158:	00448512 	srli.w	$r18,$r8,0x1
1c00715c:	58001960 	beq	$r11,$r0,24(0x18) # 1c007174 <crcu8+0x54>
1c007160:	15ffff4f 	lu12i.w	$r15,-6(0xffffa)
1c007164:	038005f0 	ori	$r16,$r15,0x1
1c007168:	0015c251 	xor	$r17,$r18,$r16
1c00716c:	29803071 	st.w	$r17,$r3,12(0xc)
1c007170:	2a403072 	ld.hu	$r18,$r3,12(0xc)
1c007174:	0015aa53 	xor	$r19,$r18,$r10
1c007178:	0340066e 	andi	$r14,$r19,0x1
1c00717c:	00448c94 	srli.w	$r20,$r4,0x3
1c007180:	00448647 	srli.w	$r7,$r18,0x1
1c007184:	580019c0 	beq	$r14,$r0,24(0x18) # 1c00719c <crcu8+0x7c>
1c007188:	15ffff4d 	lu12i.w	$r13,-6(0xffffa)
1c00718c:	038005a5 	ori	$r5,$r13,0x1
1c007190:	001594e6 	xor	$r6,$r7,$r5
1c007194:	29803066 	st.w	$r6,$r3,12(0xc)
1c007198:	2a403067 	ld.hu	$r7,$r3,12(0xc)
1c00719c:	0015d0e8 	xor	$r8,$r7,$r20
1c0071a0:	0340050a 	andi	$r10,$r8,0x1
1c0071a4:	00449089 	srli.w	$r9,$r4,0x4
1c0071a8:	004484f0 	srli.w	$r16,$r7,0x1
1c0071ac:	58001940 	beq	$r10,$r0,24(0x18) # 1c0071c4 <crcu8+0xa4>
1c0071b0:	15ffff4b 	lu12i.w	$r11,-6(0xffffa)
1c0071b4:	0380056f 	ori	$r15,$r11,0x1
1c0071b8:	0015be0c 	xor	$r12,$r16,$r15
1c0071bc:	2980306c 	st.w	$r12,$r3,12(0xc)
1c0071c0:	2a403070 	ld.hu	$r16,$r3,12(0xc)
1c0071c4:	0015a611 	xor	$r17,$r16,$r9
1c0071c8:	03400633 	andi	$r19,$r17,0x1
1c0071cc:	00449492 	srli.w	$r18,$r4,0x5
1c0071d0:	00448605 	srli.w	$r5,$r16,0x1
1c0071d4:	58001a60 	beq	$r19,$r0,24(0x18) # 1c0071ec <crcu8+0xcc>
1c0071d8:	15ffff54 	lu12i.w	$r20,-6(0xffffa)
1c0071dc:	0380068e 	ori	$r14,$r20,0x1
1c0071e0:	0015b8ad 	xor	$r13,$r5,$r14
1c0071e4:	2980306d 	st.w	$r13,$r3,12(0xc)
1c0071e8:	2a403065 	ld.hu	$r5,$r3,12(0xc)
1c0071ec:	0015c8a6 	xor	$r6,$r5,$r18
1c0071f0:	034004c8 	andi	$r8,$r6,0x1
1c0071f4:	00449887 	srli.w	$r7,$r4,0x6
1c0071f8:	004484af 	srli.w	$r15,$r5,0x1
1c0071fc:	58001900 	beq	$r8,$r0,24(0x18) # 1c007214 <crcu8+0xf4>
1c007200:	15ffff49 	lu12i.w	$r9,-6(0xffffa)
1c007204:	0380052a 	ori	$r10,$r9,0x1
1c007208:	0015a9eb 	xor	$r11,$r15,$r10
1c00720c:	2980306b 	st.w	$r11,$r3,12(0xc)
1c007210:	2a40306f 	ld.hu	$r15,$r3,12(0xc)
1c007214:	00159df0 	xor	$r16,$r15,$r7
1c007218:	00449c91 	srli.w	$r17,$r4,0x7
1c00721c:	03400604 	andi	$r4,$r16,0x1
1c007220:	004485f4 	srli.w	$r20,$r15,0x1
1c007224:	58001880 	beq	$r4,$r0,24(0x18) # 1c00723c <crcu8+0x11c>
1c007228:	15ffff52 	lu12i.w	$r18,-6(0xffffa)
1c00722c:	03800653 	ori	$r19,$r18,0x1
1c007230:	0015ce8c 	xor	$r12,$r20,$r19
1c007234:	2980306c 	st.w	$r12,$r3,12(0xc)
1c007238:	2a403074 	ld.hu	$r20,$r3,12(0xc)
1c00723c:	0340068e 	andi	$r14,$r20,0x1
1c007240:	00448684 	srli.w	$r4,$r20,0x1
1c007244:	580019d1 	beq	$r14,$r17,24(0x18) # 1c00725c <crcu8+0x13c>
1c007248:	15ffff4d 	lu12i.w	$r13,-6(0xffffa)
1c00724c:	038005a5 	ori	$r5,$r13,0x1
1c007250:	00159486 	xor	$r6,$r4,$r5
1c007254:	29803066 	st.w	$r6,$r3,12(0xc)
1c007258:	2a403064 	ld.hu	$r4,$r3,12(0xc)
1c00725c:	02804063 	addi.w	$r3,$r3,16(0x10)
1c007260:	4c000020 	jirl	$r0,$r1,0
1c007264:	03400000 	andi	$r0,$r0,0x0
1c007268:	03400000 	andi	$r0,$r0,0x0
1c00726c:	03400000 	andi	$r0,$r0,0x0

1c007270 <crcu16>:
crcu16():
1c007270:	02bfc063 	addi.w	$r3,$r3,-16(0xff0)
1c007274:	29803064 	st.w	$r4,$r3,12(0xc)
1c007278:	2a00306d 	ld.bu	$r13,$r3,12(0xc)
1c00727c:	001590ae 	xor	$r14,$r5,$r4
1c007280:	004484a8 	srli.w	$r8,$r5,0x1
1c007284:	034005c5 	andi	$r5,$r14,0x1
1c007288:	004485af 	srli.w	$r15,$r13,0x1
1c00728c:	580018a0 	beq	$r5,$r0,24(0x18) # 1c0072a4 <crcu16+0x34>
1c007290:	15ffff46 	lu12i.w	$r6,-6(0xffffa)
1c007294:	038004c7 	ori	$r7,$r6,0x1
1c007298:	00159d0c 	xor	$r12,$r8,$r7
1c00729c:	2980306c 	st.w	$r12,$r3,12(0xc)
1c0072a0:	2a403068 	ld.hu	$r8,$r3,12(0xc)
1c0072a4:	0015bd09 	xor	$r9,$r8,$r15
1c0072a8:	0340052b 	andi	$r11,$r9,0x1
1c0072ac:	004489aa 	srli.w	$r10,$r13,0x2
1c0072b0:	00448513 	srli.w	$r19,$r8,0x1
1c0072b4:	58001960 	beq	$r11,$r0,24(0x18) # 1c0072cc <crcu16+0x5c>
1c0072b8:	15ffff50 	lu12i.w	$r16,-6(0xffffa)
1c0072bc:	03800611 	ori	$r17,$r16,0x1
1c0072c0:	0015c672 	xor	$r18,$r19,$r17
1c0072c4:	29803072 	st.w	$r18,$r3,12(0xc)
1c0072c8:	2a403073 	ld.hu	$r19,$r3,12(0xc)
1c0072cc:	0015aa74 	xor	$r20,$r19,$r10
1c0072d0:	0340068e 	andi	$r14,$r20,0x1
1c0072d4:	00448da5 	srli.w	$r5,$r13,0x3
1c0072d8:	0044866c 	srli.w	$r12,$r19,0x1
1c0072dc:	580019c0 	beq	$r14,$r0,24(0x18) # 1c0072f4 <crcu16+0x84>
1c0072e0:	15ffff4f 	lu12i.w	$r15,-6(0xffffa)
1c0072e4:	038005e6 	ori	$r6,$r15,0x1
1c0072e8:	00159987 	xor	$r7,$r12,$r6
1c0072ec:	29803067 	st.w	$r7,$r3,12(0xc)
1c0072f0:	2a40306c 	ld.hu	$r12,$r3,12(0xc)
1c0072f4:	00159588 	xor	$r8,$r12,$r5
1c0072f8:	0340050a 	andi	$r10,$r8,0x1
1c0072fc:	004491a9 	srli.w	$r9,$r13,0x4
1c007300:	00448592 	srli.w	$r18,$r12,0x1
1c007304:	58001940 	beq	$r10,$r0,24(0x18) # 1c00731c <crcu16+0xac>
1c007308:	15ffff4b 	lu12i.w	$r11,-6(0xffffa)
1c00730c:	03800570 	ori	$r16,$r11,0x1
1c007310:	0015c251 	xor	$r17,$r18,$r16
1c007314:	29803071 	st.w	$r17,$r3,12(0xc)
1c007318:	2a403072 	ld.hu	$r18,$r3,12(0xc)
1c00731c:	0015a653 	xor	$r19,$r18,$r9
1c007320:	03400665 	andi	$r5,$r19,0x1
1c007324:	004495b4 	srli.w	$r20,$r13,0x5
1c007328:	00448647 	srli.w	$r7,$r18,0x1
1c00732c:	580018a0 	beq	$r5,$r0,24(0x18) # 1c007344 <crcu16+0xd4>
1c007330:	15ffff4e 	lu12i.w	$r14,-6(0xffffa)
1c007334:	038005cf 	ori	$r15,$r14,0x1
1c007338:	0015bce6 	xor	$r6,$r7,$r15
1c00733c:	29803066 	st.w	$r6,$r3,12(0xc)
1c007340:	2a403067 	ld.hu	$r7,$r3,12(0xc)
1c007344:	0015d0e8 	xor	$r8,$r7,$r20
1c007348:	0340050a 	andi	$r10,$r8,0x1
1c00734c:	004499a9 	srli.w	$r9,$r13,0x6
1c007350:	004484f1 	srli.w	$r17,$r7,0x1
1c007354:	58001940 	beq	$r10,$r0,24(0x18) # 1c00736c <crcu16+0xfc>
1c007358:	15ffff4b 	lu12i.w	$r11,-6(0xffffa)
1c00735c:	03800570 	ori	$r16,$r11,0x1
1c007360:	0015c22c 	xor	$r12,$r17,$r16
1c007364:	2980306c 	st.w	$r12,$r3,12(0xc)
1c007368:	2a403071 	ld.hu	$r17,$r3,12(0xc)
1c00736c:	0015a632 	xor	$r18,$r17,$r9
1c007370:	03400653 	andi	$r19,$r18,0x1
1c007374:	00449dad 	srli.w	$r13,$r13,0x7
1c007378:	0044862f 	srli.w	$r15,$r17,0x1
1c00737c:	58001a60 	beq	$r19,$r0,24(0x18) # 1c007394 <crcu16+0x124>
1c007380:	15ffff54 	lu12i.w	$r20,-6(0xffffa)
1c007384:	03800685 	ori	$r5,$r20,0x1
1c007388:	001595ee 	xor	$r14,$r15,$r5
1c00738c:	2980306e 	st.w	$r14,$r3,12(0xc)
1c007390:	2a40306f 	ld.hu	$r15,$r3,12(0xc)
1c007394:	034005e6 	andi	$r6,$r15,0x1
1c007398:	004485ea 	srli.w	$r10,$r15,0x1
1c00739c:	580018cd 	beq	$r6,$r13,24(0x18) # 1c0073b4 <crcu16+0x144>
1c0073a0:	15ffff47 	lu12i.w	$r7,-6(0xffffa)
1c0073a4:	038004e8 	ori	$r8,$r7,0x1
1c0073a8:	0015a149 	xor	$r9,$r10,$r8
1c0073ac:	29803069 	st.w	$r9,$r3,12(0xc)
1c0073b0:	2a40306a 	ld.hu	$r10,$r3,12(0xc)
1c0073b4:	0044a08b 	srli.w	$r11,$r4,0x8
1c0073b8:	2980306b 	st.w	$r11,$r3,12(0xc)
1c0073bc:	2a003070 	ld.bu	$r16,$r3,12(0xc)
1c0073c0:	0015ad4c 	xor	$r12,$r10,$r11
1c0073c4:	03400591 	andi	$r17,$r12,0x1
1c0073c8:	00448554 	srli.w	$r20,$r10,0x1
1c0073cc:	00448612 	srli.w	$r18,$r16,0x1
1c0073d0:	58001a20 	beq	$r17,$r0,24(0x18) # 1c0073e8 <crcu16+0x178>
1c0073d4:	15ffff4d 	lu12i.w	$r13,-6(0xffffa)
1c0073d8:	038005b3 	ori	$r19,$r13,0x1
1c0073dc:	0015ce84 	xor	$r4,$r20,$r19
1c0073e0:	29803064 	st.w	$r4,$r3,12(0xc)
1c0073e4:	2a403074 	ld.hu	$r20,$r3,12(0xc)
1c0073e8:	0015d245 	xor	$r5,$r18,$r20
1c0073ec:	034004ae 	andi	$r14,$r5,0x1
1c0073f0:	00448a0f 	srli.w	$r15,$r16,0x2
1c0073f4:	00448689 	srli.w	$r9,$r20,0x1
1c0073f8:	580019c0 	beq	$r14,$r0,24(0x18) # 1c007410 <crcu16+0x1a0>
1c0073fc:	15ffff46 	lu12i.w	$r6,-6(0xffffa)
1c007400:	038004c7 	ori	$r7,$r6,0x1
1c007404:	00159d28 	xor	$r8,$r9,$r7
1c007408:	29803068 	st.w	$r8,$r3,12(0xc)
1c00740c:	2a403069 	ld.hu	$r9,$r3,12(0xc)
1c007410:	0015bd2a 	xor	$r10,$r9,$r15
1c007414:	0340054c 	andi	$r12,$r10,0x1
1c007418:	00448e0b 	srli.w	$r11,$r16,0x3
1c00741c:	00448533 	srli.w	$r19,$r9,0x1
1c007420:	58001980 	beq	$r12,$r0,24(0x18) # 1c007438 <crcu16+0x1c8>
1c007424:	15ffff51 	lu12i.w	$r17,-6(0xffffa)
1c007428:	03800632 	ori	$r18,$r17,0x1
1c00742c:	0015ca6d 	xor	$r13,$r19,$r18
1c007430:	2980306d 	st.w	$r13,$r3,12(0xc)
1c007434:	2a403073 	ld.hu	$r19,$r3,12(0xc)
1c007438:	0015ae74 	xor	$r20,$r19,$r11
1c00743c:	0340068f 	andi	$r15,$r20,0x1
1c007440:	00449205 	srli.w	$r5,$r16,0x4
1c007444:	00448667 	srli.w	$r7,$r19,0x1
1c007448:	580019e0 	beq	$r15,$r0,24(0x18) # 1c007460 <crcu16+0x1f0>
1c00744c:	15ffff4e 	lu12i.w	$r14,-6(0xffffa)
1c007450:	038005c6 	ori	$r6,$r14,0x1
1c007454:	001598e4 	xor	$r4,$r7,$r6
1c007458:	29803064 	st.w	$r4,$r3,12(0xc)
1c00745c:	2a403067 	ld.hu	$r7,$r3,12(0xc)
1c007460:	001594e8 	xor	$r8,$r7,$r5
1c007464:	0340050a 	andi	$r10,$r8,0x1
1c007468:	00449609 	srli.w	$r9,$r16,0x5
1c00746c:	004484f2 	srli.w	$r18,$r7,0x1
1c007470:	58001940 	beq	$r10,$r0,24(0x18) # 1c007488 <crcu16+0x218>
1c007474:	15ffff4b 	lu12i.w	$r11,-6(0xffffa)
1c007478:	0380056c 	ori	$r12,$r11,0x1
1c00747c:	0015b251 	xor	$r17,$r18,$r12
1c007480:	29803071 	st.w	$r17,$r3,12(0xc)
1c007484:	2a403072 	ld.hu	$r18,$r3,12(0xc)
1c007488:	0015a64d 	xor	$r13,$r18,$r9
1c00748c:	034005b4 	andi	$r20,$r13,0x1
1c007490:	00449a13 	srli.w	$r19,$r16,0x6
1c007494:	00448646 	srli.w	$r6,$r18,0x1
1c007498:	58001a80 	beq	$r20,$r0,24(0x18) # 1c0074b0 <crcu16+0x240>
1c00749c:	15ffff45 	lu12i.w	$r5,-6(0xffffa)
1c0074a0:	038004af 	ori	$r15,$r5,0x1
1c0074a4:	0015bcce 	xor	$r14,$r6,$r15
1c0074a8:	2980306e 	st.w	$r14,$r3,12(0xc)
1c0074ac:	2a403066 	ld.hu	$r6,$r3,12(0xc)
1c0074b0:	0015ccc7 	xor	$r7,$r6,$r19
1c0074b4:	034004e8 	andi	$r8,$r7,0x1
1c0074b8:	00449e10 	srli.w	$r16,$r16,0x7
1c0074bc:	004484cb 	srli.w	$r11,$r6,0x1
1c0074c0:	58001900 	beq	$r8,$r0,24(0x18) # 1c0074d8 <crcu16+0x268>
1c0074c4:	15ffff49 	lu12i.w	$r9,-6(0xffffa)
1c0074c8:	0380052a 	ori	$r10,$r9,0x1
1c0074cc:	0015a964 	xor	$r4,$r11,$r10
1c0074d0:	29803064 	st.w	$r4,$r3,12(0xc)
1c0074d4:	2a40306b 	ld.hu	$r11,$r3,12(0xc)
1c0074d8:	0340056c 	andi	$r12,$r11,0x1
1c0074dc:	00448564 	srli.w	$r4,$r11,0x1
1c0074e0:	58001990 	beq	$r12,$r16,24(0x18) # 1c0074f8 <crcu16+0x288>
1c0074e4:	15ffff51 	lu12i.w	$r17,-6(0xffffa)
1c0074e8:	03800632 	ori	$r18,$r17,0x1
1c0074ec:	0015c88d 	xor	$r13,$r4,$r18
1c0074f0:	2980306d 	st.w	$r13,$r3,12(0xc)
1c0074f4:	2a403064 	ld.hu	$r4,$r3,12(0xc)
1c0074f8:	02804063 	addi.w	$r3,$r3,16(0x10)
1c0074fc:	4c000020 	jirl	$r0,$r1,0

1c007500 <crcu32>:
crcu32():
1c007500:	02bfc063 	addi.w	$r3,$r3,-16(0xff0)
1c007504:	29803064 	st.w	$r4,$r3,12(0xc)
1c007508:	2a00306d 	ld.bu	$r13,$r3,12(0xc)
1c00750c:	001590ae 	xor	$r14,$r5,$r4
1c007510:	004484a8 	srli.w	$r8,$r5,0x1
1c007514:	034005c5 	andi	$r5,$r14,0x1
1c007518:	2a403070 	ld.hu	$r16,$r3,12(0xc)
1c00751c:	004485af 	srli.w	$r15,$r13,0x1
1c007520:	580018a0 	beq	$r5,$r0,24(0x18) # 1c007538 <crcu32+0x38>
1c007524:	15ffff46 	lu12i.w	$r6,-6(0xffffa)
1c007528:	038004c7 	ori	$r7,$r6,0x1
1c00752c:	00159d0c 	xor	$r12,$r8,$r7
1c007530:	2980306c 	st.w	$r12,$r3,12(0xc)
1c007534:	2a403068 	ld.hu	$r8,$r3,12(0xc)
1c007538:	0015bd09 	xor	$r9,$r8,$r15
1c00753c:	0340052b 	andi	$r11,$r9,0x1
1c007540:	004489aa 	srli.w	$r10,$r13,0x2
1c007544:	00448514 	srli.w	$r20,$r8,0x1
1c007548:	58001960 	beq	$r11,$r0,24(0x18) # 1c007560 <crcu32+0x60>
1c00754c:	15ffff51 	lu12i.w	$r17,-6(0xffffa)
1c007550:	03800632 	ori	$r18,$r17,0x1
1c007554:	0015ca93 	xor	$r19,$r20,$r18
1c007558:	29803073 	st.w	$r19,$r3,12(0xc)
1c00755c:	2a403074 	ld.hu	$r20,$r3,12(0xc)
1c007560:	0015aa8e 	xor	$r14,$r20,$r10
1c007564:	034005cf 	andi	$r15,$r14,0x1
1c007568:	00448da5 	srli.w	$r5,$r13,0x3
1c00756c:	00448688 	srli.w	$r8,$r20,0x1
1c007570:	580019e0 	beq	$r15,$r0,24(0x18) # 1c007588 <crcu32+0x88>
1c007574:	15ffff46 	lu12i.w	$r6,-6(0xffffa)
1c007578:	038004c7 	ori	$r7,$r6,0x1
1c00757c:	00159d0c 	xor	$r12,$r8,$r7
1c007580:	2980306c 	st.w	$r12,$r3,12(0xc)
1c007584:	2a403068 	ld.hu	$r8,$r3,12(0xc)
1c007588:	00159509 	xor	$r9,$r8,$r5
1c00758c:	0340052b 	andi	$r11,$r9,0x1
1c007590:	004491aa 	srli.w	$r10,$r13,0x4
1c007594:	00448514 	srli.w	$r20,$r8,0x1
1c007598:	58001960 	beq	$r11,$r0,24(0x18) # 1c0075b0 <crcu32+0xb0>
1c00759c:	15ffff51 	lu12i.w	$r17,-6(0xffffa)
1c0075a0:	03800632 	ori	$r18,$r17,0x1
1c0075a4:	0015ca93 	xor	$r19,$r20,$r18
1c0075a8:	29803073 	st.w	$r19,$r3,12(0xc)
1c0075ac:	2a403074 	ld.hu	$r20,$r3,12(0xc)
1c0075b0:	0015aa8e 	xor	$r14,$r20,$r10
1c0075b4:	034005cf 	andi	$r15,$r14,0x1
1c0075b8:	004495a5 	srli.w	$r5,$r13,0x5
1c0075bc:	00448688 	srli.w	$r8,$r20,0x1
1c0075c0:	580019e0 	beq	$r15,$r0,24(0x18) # 1c0075d8 <crcu32+0xd8>
1c0075c4:	15ffff46 	lu12i.w	$r6,-6(0xffffa)
1c0075c8:	038004c7 	ori	$r7,$r6,0x1
1c0075cc:	00159d0c 	xor	$r12,$r8,$r7
1c0075d0:	2980306c 	st.w	$r12,$r3,12(0xc)
1c0075d4:	2a403068 	ld.hu	$r8,$r3,12(0xc)
1c0075d8:	00159509 	xor	$r9,$r8,$r5
1c0075dc:	0340052b 	andi	$r11,$r9,0x1
1c0075e0:	004499aa 	srli.w	$r10,$r13,0x6
1c0075e4:	00448514 	srli.w	$r20,$r8,0x1
1c0075e8:	58001960 	beq	$r11,$r0,24(0x18) # 1c007600 <crcu32+0x100>
1c0075ec:	15ffff51 	lu12i.w	$r17,-6(0xffffa)
1c0075f0:	03800632 	ori	$r18,$r17,0x1
1c0075f4:	0015ca93 	xor	$r19,$r20,$r18
1c0075f8:	29803073 	st.w	$r19,$r3,12(0xc)
1c0075fc:	2a403074 	ld.hu	$r20,$r3,12(0xc)
1c007600:	0015aa8e 	xor	$r14,$r20,$r10
1c007604:	034005c5 	andi	$r5,$r14,0x1
1c007608:	00449dad 	srli.w	$r13,$r13,0x7
1c00760c:	0044868c 	srli.w	$r12,$r20,0x1
1c007610:	580018a0 	beq	$r5,$r0,24(0x18) # 1c007628 <crcu32+0x128>
1c007614:	15ffff4f 	lu12i.w	$r15,-6(0xffffa)
1c007618:	038005e6 	ori	$r6,$r15,0x1
1c00761c:	00159987 	xor	$r7,$r12,$r6
1c007620:	29803067 	st.w	$r7,$r3,12(0xc)
1c007624:	2a40306c 	ld.hu	$r12,$r3,12(0xc)
1c007628:	03400588 	andi	$r8,$r12,0x1
1c00762c:	00448591 	srli.w	$r17,$r12,0x1
1c007630:	5800190d 	beq	$r8,$r13,24(0x18) # 1c007648 <crcu32+0x148>
1c007634:	15ffff49 	lu12i.w	$r9,-6(0xffffa)
1c007638:	0380052a 	ori	$r10,$r9,0x1
1c00763c:	0015aa2b 	xor	$r11,$r17,$r10
1c007640:	2980306b 	st.w	$r11,$r3,12(0xc)
1c007644:	2a403071 	ld.hu	$r17,$r3,12(0xc)
1c007648:	0044a210 	srli.w	$r16,$r16,0x8
1c00764c:	29803070 	st.w	$r16,$r3,12(0xc)
1c007650:	2a003072 	ld.bu	$r18,$r3,12(0xc)
1c007654:	0015c233 	xor	$r19,$r17,$r16
1c007658:	03400674 	andi	$r20,$r19,0x1
1c00765c:	00448626 	srli.w	$r6,$r17,0x1
1c007660:	0044864e 	srli.w	$r14,$r18,0x1
1c007664:	58001a80 	beq	$r20,$r0,24(0x18) # 1c00767c <crcu32+0x17c>
1c007668:	15ffff45 	lu12i.w	$r5,-6(0xffffa)
1c00766c:	038004af 	ori	$r15,$r5,0x1
1c007670:	0015bccd 	xor	$r13,$r6,$r15
1c007674:	2980306d 	st.w	$r13,$r3,12(0xc)
1c007678:	2a403066 	ld.hu	$r6,$r3,12(0xc)
1c00767c:	0015b8c7 	xor	$r7,$r6,$r14
1c007680:	034004e8 	andi	$r8,$r7,0x1
1c007684:	00448a4c 	srli.w	$r12,$r18,0x2
1c007688:	004484d1 	srli.w	$r17,$r6,0x1
1c00768c:	58001900 	beq	$r8,$r0,24(0x18) # 1c0076a4 <crcu32+0x1a4>
1c007690:	15ffff49 	lu12i.w	$r9,-6(0xffffa)
1c007694:	0380052a 	ori	$r10,$r9,0x1
1c007698:	0015aa2b 	xor	$r11,$r17,$r10
1c00769c:	2980306b 	st.w	$r11,$r3,12(0xc)
1c0076a0:	2a403071 	ld.hu	$r17,$r3,12(0xc)
1c0076a4:	0015b230 	xor	$r16,$r17,$r12
1c0076a8:	03400614 	andi	$r20,$r16,0x1
1c0076ac:	00448e53 	srli.w	$r19,$r18,0x3
1c0076b0:	0044862d 	srli.w	$r13,$r17,0x1
1c0076b4:	58001a80 	beq	$r20,$r0,24(0x18) # 1c0076cc <crcu32+0x1cc>
1c0076b8:	15ffff4e 	lu12i.w	$r14,-6(0xffffa)
1c0076bc:	038005c5 	ori	$r5,$r14,0x1
1c0076c0:	001595af 	xor	$r15,$r13,$r5
1c0076c4:	2980306f 	st.w	$r15,$r3,12(0xc)
1c0076c8:	2a40306d 	ld.hu	$r13,$r3,12(0xc)
1c0076cc:	0015cda6 	xor	$r6,$r13,$r19
1c0076d0:	034004cc 	andi	$r12,$r6,0x1
1c0076d4:	00449247 	srli.w	$r7,$r18,0x4
1c0076d8:	004485ab 	srli.w	$r11,$r13,0x1
1c0076dc:	58001980 	beq	$r12,$r0,24(0x18) # 1c0076f4 <crcu32+0x1f4>
1c0076e0:	15ffff48 	lu12i.w	$r8,-6(0xffffa)
1c0076e4:	03800509 	ori	$r9,$r8,0x1
1c0076e8:	0015a56a 	xor	$r10,$r11,$r9
1c0076ec:	2980306a 	st.w	$r10,$r3,12(0xc)
1c0076f0:	2a40306b 	ld.hu	$r11,$r3,12(0xc)
1c0076f4:	00159d71 	xor	$r17,$r11,$r7
1c0076f8:	03400633 	andi	$r19,$r17,0x1
1c0076fc:	00449650 	srli.w	$r16,$r18,0x5
1c007700:	0044856d 	srli.w	$r13,$r11,0x1
1c007704:	58001a60 	beq	$r19,$r0,24(0x18) # 1c00771c <crcu32+0x21c>
1c007708:	15ffff54 	lu12i.w	$r20,-6(0xffffa)
1c00770c:	0380068e 	ori	$r14,$r20,0x1
1c007710:	0015b9a5 	xor	$r5,$r13,$r14
1c007714:	29803065 	st.w	$r5,$r3,12(0xc)
1c007718:	2a40306d 	ld.hu	$r13,$r3,12(0xc)
1c00771c:	0015c1af 	xor	$r15,$r13,$r16
1c007720:	034005e7 	andi	$r7,$r15,0x1
1c007724:	00449a46 	srli.w	$r6,$r18,0x6
1c007728:	004485aa 	srli.w	$r10,$r13,0x1
1c00772c:	580018e0 	beq	$r7,$r0,24(0x18) # 1c007744 <crcu32+0x244>
1c007730:	15ffff4c 	lu12i.w	$r12,-6(0xffffa)
1c007734:	03800588 	ori	$r8,$r12,0x1
1c007738:	0015a149 	xor	$r9,$r10,$r8
1c00773c:	29803069 	st.w	$r9,$r3,12(0xc)
1c007740:	2a40306a 	ld.hu	$r10,$r3,12(0xc)
1c007744:	0015994b 	xor	$r11,$r10,$r6
1c007748:	03400571 	andi	$r17,$r11,0x1
1c00774c:	00449e52 	srli.w	$r18,$r18,0x7
1c007750:	0044854e 	srli.w	$r14,$r10,0x1
1c007754:	58001a20 	beq	$r17,$r0,24(0x18) # 1c00776c <crcu32+0x26c>
1c007758:	15ffff50 	lu12i.w	$r16,-6(0xffffa)
1c00775c:	03800613 	ori	$r19,$r16,0x1
1c007760:	0015cdd4 	xor	$r20,$r14,$r19
1c007764:	29803074 	st.w	$r20,$r3,12(0xc)
1c007768:	2a40306e 	ld.hu	$r14,$r3,12(0xc)
1c00776c:	034005c5 	andi	$r5,$r14,0x1
1c007770:	004485c7 	srli.w	$r7,$r14,0x1
1c007774:	580018b2 	beq	$r5,$r18,24(0x18) # 1c00778c <crcu32+0x28c>
1c007778:	15ffff4f 	lu12i.w	$r15,-6(0xffffa)
1c00777c:	038005e6 	ori	$r6,$r15,0x1
1c007780:	001598ed 	xor	$r13,$r7,$r6
1c007784:	2980306d 	st.w	$r13,$r3,12(0xc)
1c007788:	2a403067 	ld.hu	$r7,$r3,12(0xc)
1c00778c:	0044c084 	srli.w	$r4,$r4,0x10
1c007790:	29803064 	st.w	$r4,$r3,12(0xc)
1c007794:	2a003068 	ld.bu	$r8,$r3,12(0xc)
1c007798:	001590e9 	xor	$r9,$r7,$r4
1c00779c:	0340052b 	andi	$r11,$r9,0x1
1c0077a0:	004484f3 	srli.w	$r19,$r7,0x1
1c0077a4:	2a40306a 	ld.hu	$r10,$r3,12(0xc)
1c0077a8:	00448512 	srli.w	$r18,$r8,0x1
1c0077ac:	58001960 	beq	$r11,$r0,24(0x18) # 1c0077c4 <crcu32+0x2c4>
1c0077b0:	15ffff51 	lu12i.w	$r17,-6(0xffffa)
1c0077b4:	03800630 	ori	$r16,$r17,0x1
1c0077b8:	0015c26c 	xor	$r12,$r19,$r16
1c0077bc:	2980306c 	st.w	$r12,$r3,12(0xc)
1c0077c0:	2a403073 	ld.hu	$r19,$r3,12(0xc)
1c0077c4:	0015ca74 	xor	$r20,$r19,$r18
1c0077c8:	03400685 	andi	$r5,$r20,0x1
1c0077cc:	0044890e 	srli.w	$r14,$r8,0x2
1c0077d0:	00448667 	srli.w	$r7,$r19,0x1
1c0077d4:	580018a0 	beq	$r5,$r0,24(0x18) # 1c0077ec <crcu32+0x2ec>
1c0077d8:	15ffff4f 	lu12i.w	$r15,-6(0xffffa)
1c0077dc:	038005e6 	ori	$r6,$r15,0x1
1c0077e0:	001598ed 	xor	$r13,$r7,$r6
1c0077e4:	2980306d 	st.w	$r13,$r3,12(0xc)
1c0077e8:	2a403067 	ld.hu	$r7,$r3,12(0xc)
1c0077ec:	0015b8e4 	xor	$r4,$r7,$r14
1c0077f0:	0340048b 	andi	$r11,$r4,0x1
1c0077f4:	00448d09 	srli.w	$r9,$r8,0x3
1c0077f8:	004484ec 	srli.w	$r12,$r7,0x1
1c0077fc:	58001960 	beq	$r11,$r0,24(0x18) # 1c007814 <crcu32+0x314>
1c007800:	15ffff52 	lu12i.w	$r18,-6(0xffffa)
1c007804:	03800651 	ori	$r17,$r18,0x1
1c007808:	0015c590 	xor	$r16,$r12,$r17
1c00780c:	29803070 	st.w	$r16,$r3,12(0xc)
1c007810:	2a40306c 	ld.hu	$r12,$r3,12(0xc)
1c007814:	0015a593 	xor	$r19,$r12,$r9
1c007818:	0340066e 	andi	$r14,$r19,0x1
1c00781c:	00449114 	srli.w	$r20,$r8,0x4
1c007820:	00448587 	srli.w	$r7,$r12,0x1
1c007824:	580019c0 	beq	$r14,$r0,24(0x18) # 1c00783c <crcu32+0x33c>
1c007828:	15ffff45 	lu12i.w	$r5,-6(0xffffa)
1c00782c:	038004af 	ori	$r15,$r5,0x1
1c007830:	0015bce6 	xor	$r6,$r7,$r15
1c007834:	29803066 	st.w	$r6,$r3,12(0xc)
1c007838:	2a403067 	ld.hu	$r7,$r3,12(0xc)
1c00783c:	0015d0ed 	xor	$r13,$r7,$r20
1c007840:	034005a9 	andi	$r9,$r13,0x1
1c007844:	00449504 	srli.w	$r4,$r8,0x5
1c007848:	004484f0 	srli.w	$r16,$r7,0x1
1c00784c:	58001920 	beq	$r9,$r0,24(0x18) # 1c007864 <crcu32+0x364>
1c007850:	15ffff4b 	lu12i.w	$r11,-6(0xffffa)
1c007854:	03800572 	ori	$r18,$r11,0x1
1c007858:	0015ca11 	xor	$r17,$r16,$r18
1c00785c:	29803071 	st.w	$r17,$r3,12(0xc)
1c007860:	2a403070 	ld.hu	$r16,$r3,12(0xc)
1c007864:	00159213 	xor	$r19,$r16,$r4
1c007868:	0340066e 	andi	$r14,$r19,0x1
1c00786c:	00449914 	srli.w	$r20,$r8,0x6
1c007870:	00448606 	srli.w	$r6,$r16,0x1
1c007874:	580019c0 	beq	$r14,$r0,24(0x18) # 1c00788c <crcu32+0x38c>
1c007878:	15ffff45 	lu12i.w	$r5,-6(0xffffa)
1c00787c:	038004af 	ori	$r15,$r5,0x1
1c007880:	0015bccc 	xor	$r12,$r6,$r15
1c007884:	2980306c 	st.w	$r12,$r3,12(0xc)
1c007888:	2a403066 	ld.hu	$r6,$r3,12(0xc)
1c00788c:	0015d0c7 	xor	$r7,$r6,$r20
1c007890:	034004ed 	andi	$r13,$r7,0x1
1c007894:	00449d08 	srli.w	$r8,$r8,0x7
1c007898:	004484d2 	srli.w	$r18,$r6,0x1
1c00789c:	580019a0 	beq	$r13,$r0,24(0x18) # 1c0078b4 <crcu32+0x3b4>
1c0078a0:	15ffff44 	lu12i.w	$r4,-6(0xffffa)
1c0078a4:	03800489 	ori	$r9,$r4,0x1
1c0078a8:	0015a64b 	xor	$r11,$r18,$r9
1c0078ac:	2980306b 	st.w	$r11,$r3,12(0xc)
1c0078b0:	2a403072 	ld.hu	$r18,$r3,12(0xc)
1c0078b4:	03400651 	andi	$r17,$r18,0x1
1c0078b8:	00448645 	srli.w	$r5,$r18,0x1
1c0078bc:	58001a28 	beq	$r17,$r8,24(0x18) # 1c0078d4 <crcu32+0x3d4>
1c0078c0:	15ffff50 	lu12i.w	$r16,-6(0xffffa)
1c0078c4:	03800613 	ori	$r19,$r16,0x1
1c0078c8:	0015ccb4 	xor	$r20,$r5,$r19
1c0078cc:	29803074 	st.w	$r20,$r3,12(0xc)
1c0078d0:	2a403065 	ld.hu	$r5,$r3,12(0xc)
1c0078d4:	0044a14a 	srli.w	$r10,$r10,0x8
1c0078d8:	2980306a 	st.w	$r10,$r3,12(0xc)
1c0078dc:	2a00306f 	ld.bu	$r15,$r3,12(0xc)
1c0078e0:	0015a8ae 	xor	$r14,$r5,$r10
1c0078e4:	034005cc 	andi	$r12,$r14,0x1
1c0078e8:	004484a4 	srli.w	$r4,$r5,0x1
1c0078ec:	004485e6 	srli.w	$r6,$r15,0x1
1c0078f0:	58001980 	beq	$r12,$r0,24(0x18) # 1c007908 <crcu32+0x408>
1c0078f4:	15ffff47 	lu12i.w	$r7,-6(0xffffa)
1c0078f8:	038004e8 	ori	$r8,$r7,0x1
1c0078fc:	0015a08d 	xor	$r13,$r4,$r8
1c007900:	2980306d 	st.w	$r13,$r3,12(0xc)
1c007904:	2a403064 	ld.hu	$r4,$r3,12(0xc)
1c007908:	00159889 	xor	$r9,$r4,$r6
1c00790c:	03400532 	andi	$r18,$r9,0x1
1c007910:	004489eb 	srli.w	$r11,$r15,0x2
1c007914:	00448494 	srli.w	$r20,$r4,0x1
1c007918:	58001a40 	beq	$r18,$r0,24(0x18) # 1c007930 <crcu32+0x430>
1c00791c:	15ffff51 	lu12i.w	$r17,-6(0xffffa)
1c007920:	03800630 	ori	$r16,$r17,0x1
1c007924:	0015c293 	xor	$r19,$r20,$r16
1c007928:	29803073 	st.w	$r19,$r3,12(0xc)
1c00792c:	2a403074 	ld.hu	$r20,$r3,12(0xc)
1c007930:	0015d165 	xor	$r5,$r11,$r20
1c007934:	034004ae 	andi	$r14,$r5,0x1
1c007938:	00448dea 	srli.w	$r10,$r15,0x3
1c00793c:	00448688 	srli.w	$r8,$r20,0x1
1c007940:	580019c0 	beq	$r14,$r0,24(0x18) # 1c007958 <crcu32+0x458>
1c007944:	15ffff4c 	lu12i.w	$r12,-6(0xffffa)
1c007948:	03800586 	ori	$r6,$r12,0x1
1c00794c:	00159907 	xor	$r7,$r8,$r6
1c007950:	29803067 	st.w	$r7,$r3,12(0xc)
1c007954:	2a403068 	ld.hu	$r8,$r3,12(0xc)
1c007958:	0015a14d 	xor	$r13,$r10,$r8
1c00795c:	034005ab 	andi	$r11,$r13,0x1
1c007960:	004491e9 	srli.w	$r9,$r15,0x4
1c007964:	00448510 	srli.w	$r16,$r8,0x1
1c007968:	58001960 	beq	$r11,$r0,24(0x18) # 1c007980 <crcu32+0x480>
1c00796c:	15ffff52 	lu12i.w	$r18,-6(0xffffa)
1c007970:	03800651 	ori	$r17,$r18,0x1
1c007974:	0015c604 	xor	$r4,$r16,$r17
1c007978:	29803064 	st.w	$r4,$r3,12(0xc)
1c00797c:	2a403070 	ld.hu	$r16,$r3,12(0xc)
1c007980:	0015c133 	xor	$r19,$r9,$r16
1c007984:	03400665 	andi	$r5,$r19,0x1
1c007988:	004495f4 	srli.w	$r20,$r15,0x5
1c00798c:	00448606 	srli.w	$r6,$r16,0x1
1c007990:	580018a0 	beq	$r5,$r0,24(0x18) # 1c0079a8 <crcu32+0x4a8>
1c007994:	15ffff4a 	lu12i.w	$r10,-6(0xffffa)
1c007998:	0380054e 	ori	$r14,$r10,0x1
1c00799c:	0015b8cc 	xor	$r12,$r6,$r14
1c0079a0:	2980306c 	st.w	$r12,$r3,12(0xc)
1c0079a4:	2a403066 	ld.hu	$r6,$r3,12(0xc)
1c0079a8:	00159a87 	xor	$r7,$r20,$r6
1c0079ac:	034004ed 	andi	$r13,$r7,0x1
1c0079b0:	004499e8 	srli.w	$r8,$r15,0x6
1c0079b4:	004484d1 	srli.w	$r17,$r6,0x1
1c0079b8:	580019a0 	beq	$r13,$r0,24(0x18) # 1c0079d0 <crcu32+0x4d0>
1c0079bc:	15ffff49 	lu12i.w	$r9,-6(0xffffa)
1c0079c0:	0380052b 	ori	$r11,$r9,0x1
1c0079c4:	0015ae32 	xor	$r18,$r17,$r11
1c0079c8:	29803072 	st.w	$r18,$r3,12(0xc)
1c0079cc:	2a403071 	ld.hu	$r17,$r3,12(0xc)
1c0079d0:	0015c510 	xor	$r16,$r8,$r17
1c0079d4:	03400613 	andi	$r19,$r16,0x1
1c0079d8:	00449def 	srli.w	$r15,$r15,0x7
1c0079dc:	0044862a 	srli.w	$r10,$r17,0x1
1c0079e0:	58001a60 	beq	$r19,$r0,24(0x18) # 1c0079f8 <crcu32+0x4f8>
1c0079e4:	15ffff54 	lu12i.w	$r20,-6(0xffffa)
1c0079e8:	03800685 	ori	$r5,$r20,0x1
1c0079ec:	00159544 	xor	$r4,$r10,$r5
1c0079f0:	29803064 	st.w	$r4,$r3,12(0xc)
1c0079f4:	2a40306a 	ld.hu	$r10,$r3,12(0xc)
1c0079f8:	0340054e 	andi	$r14,$r10,0x1
1c0079fc:	00448544 	srli.w	$r4,$r10,0x1
1c007a00:	580019cf 	beq	$r14,$r15,24(0x18) # 1c007a18 <crcu32+0x518>
1c007a04:	15ffff4c 	lu12i.w	$r12,-6(0xffffa)
1c007a08:	03800586 	ori	$r6,$r12,0x1
1c007a0c:	00159887 	xor	$r7,$r4,$r6
1c007a10:	29803067 	st.w	$r7,$r3,12(0xc)
1c007a14:	2a403064 	ld.hu	$r4,$r3,12(0xc)
1c007a18:	02804063 	addi.w	$r3,$r3,16(0x10)
1c007a1c:	4c000020 	jirl	$r0,$r1,0

1c007a20 <crc16>:
crc16():
1c007a20:	02bfc063 	addi.w	$r3,$r3,-16(0xff0)
1c007a24:	29803064 	st.w	$r4,$r3,12(0xc)
1c007a28:	2a00306d 	ld.bu	$r13,$r3,12(0xc)
1c007a2c:	001590af 	xor	$r15,$r5,$r4
1c007a30:	034005e4 	andi	$r4,$r15,0x1
1c007a34:	2a40306e 	ld.hu	$r14,$r3,12(0xc)
1c007a38:	004484a7 	srli.w	$r7,$r5,0x1
1c007a3c:	004485b0 	srli.w	$r16,$r13,0x1
1c007a40:	58001880 	beq	$r4,$r0,24(0x18) # 1c007a58 <crc16+0x38>
1c007a44:	15ffff45 	lu12i.w	$r5,-6(0xffffa)
1c007a48:	038004a6 	ori	$r6,$r5,0x1
1c007a4c:	001598ec 	xor	$r12,$r7,$r6
1c007a50:	2980306c 	st.w	$r12,$r3,12(0xc)
1c007a54:	2a403067 	ld.hu	$r7,$r3,12(0xc)
1c007a58:	0015c0e8 	xor	$r8,$r7,$r16
1c007a5c:	0340050a 	andi	$r10,$r8,0x1
1c007a60:	004489a9 	srli.w	$r9,$r13,0x2
1c007a64:	004484f3 	srli.w	$r19,$r7,0x1
1c007a68:	58001940 	beq	$r10,$r0,24(0x18) # 1c007a80 <crc16+0x60>
1c007a6c:	15ffff4b 	lu12i.w	$r11,-6(0xffffa)
1c007a70:	03800571 	ori	$r17,$r11,0x1
1c007a74:	0015c672 	xor	$r18,$r19,$r17
1c007a78:	29803072 	st.w	$r18,$r3,12(0xc)
1c007a7c:	2a403073 	ld.hu	$r19,$r3,12(0xc)
1c007a80:	0015a674 	xor	$r20,$r19,$r9
1c007a84:	0340068f 	andi	$r15,$r20,0x1
1c007a88:	00448da4 	srli.w	$r4,$r13,0x3
1c007a8c:	0044866c 	srli.w	$r12,$r19,0x1
1c007a90:	580019e0 	beq	$r15,$r0,24(0x18) # 1c007aa8 <crc16+0x88>
1c007a94:	15ffff50 	lu12i.w	$r16,-6(0xffffa)
1c007a98:	03800605 	ori	$r5,$r16,0x1
1c007a9c:	00159586 	xor	$r6,$r12,$r5
1c007aa0:	29803066 	st.w	$r6,$r3,12(0xc)
1c007aa4:	2a40306c 	ld.hu	$r12,$r3,12(0xc)
1c007aa8:	00159187 	xor	$r7,$r12,$r4
1c007aac:	034004e9 	andi	$r9,$r7,0x1
1c007ab0:	004491a8 	srli.w	$r8,$r13,0x4
1c007ab4:	00448592 	srli.w	$r18,$r12,0x1
1c007ab8:	58001920 	beq	$r9,$r0,24(0x18) # 1c007ad0 <crc16+0xb0>
1c007abc:	15ffff4a 	lu12i.w	$r10,-6(0xffffa)
1c007ac0:	0380054b 	ori	$r11,$r10,0x1
1c007ac4:	0015ae51 	xor	$r17,$r18,$r11
1c007ac8:	29803071 	st.w	$r17,$r3,12(0xc)
1c007acc:	2a403072 	ld.hu	$r18,$r3,12(0xc)
1c007ad0:	0015a253 	xor	$r19,$r18,$r8
1c007ad4:	03400664 	andi	$r4,$r19,0x1
1c007ad8:	004495b4 	srli.w	$r20,$r13,0x5
1c007adc:	00448646 	srli.w	$r6,$r18,0x1
1c007ae0:	58001880 	beq	$r4,$r0,24(0x18) # 1c007af8 <crc16+0xd8>
1c007ae4:	15ffff4f 	lu12i.w	$r15,-6(0xffffa)
1c007ae8:	038005f0 	ori	$r16,$r15,0x1
1c007aec:	0015c0c5 	xor	$r5,$r6,$r16
1c007af0:	29803065 	st.w	$r5,$r3,12(0xc)
1c007af4:	2a403066 	ld.hu	$r6,$r3,12(0xc)
1c007af8:	0015d0c7 	xor	$r7,$r6,$r20
1c007afc:	034004e9 	andi	$r9,$r7,0x1
1c007b00:	004499a8 	srli.w	$r8,$r13,0x6
1c007b04:	004484d1 	srli.w	$r17,$r6,0x1
1c007b08:	58001920 	beq	$r9,$r0,24(0x18) # 1c007b20 <crc16+0x100>
1c007b0c:	15ffff4a 	lu12i.w	$r10,-6(0xffffa)
1c007b10:	0380054b 	ori	$r11,$r10,0x1
1c007b14:	0015ae2c 	xor	$r12,$r17,$r11
1c007b18:	2980306c 	st.w	$r12,$r3,12(0xc)
1c007b1c:	2a403071 	ld.hu	$r17,$r3,12(0xc)
1c007b20:	0015a232 	xor	$r18,$r17,$r8
1c007b24:	03400653 	andi	$r19,$r18,0x1
1c007b28:	00449dad 	srli.w	$r13,$r13,0x7
1c007b2c:	00448630 	srli.w	$r16,$r17,0x1
1c007b30:	58001a60 	beq	$r19,$r0,24(0x18) # 1c007b48 <crc16+0x128>
1c007b34:	15ffff54 	lu12i.w	$r20,-6(0xffffa)
1c007b38:	03800684 	ori	$r4,$r20,0x1
1c007b3c:	0015920f 	xor	$r15,$r16,$r4
1c007b40:	2980306f 	st.w	$r15,$r3,12(0xc)
1c007b44:	2a403070 	ld.hu	$r16,$r3,12(0xc)
1c007b48:	03400605 	andi	$r5,$r16,0x1
1c007b4c:	00448609 	srli.w	$r9,$r16,0x1
1c007b50:	580018ad 	beq	$r5,$r13,24(0x18) # 1c007b68 <crc16+0x148>
1c007b54:	15ffff46 	lu12i.w	$r6,-6(0xffffa)
1c007b58:	038004c7 	ori	$r7,$r6,0x1
1c007b5c:	00159d28 	xor	$r8,$r9,$r7
1c007b60:	29803068 	st.w	$r8,$r3,12(0xc)
1c007b64:	2a403069 	ld.hu	$r9,$r3,12(0xc)
1c007b68:	0044a1ce 	srli.w	$r14,$r14,0x8
1c007b6c:	2980306e 	st.w	$r14,$r3,12(0xc)
1c007b70:	2a00306a 	ld.bu	$r10,$r3,12(0xc)
1c007b74:	0015b92b 	xor	$r11,$r9,$r14
1c007b78:	0340056c 	andi	$r12,$r11,0x1
1c007b7c:	00448534 	srli.w	$r20,$r9,0x1
1c007b80:	00448551 	srli.w	$r17,$r10,0x1
1c007b84:	58001980 	beq	$r12,$r0,24(0x18) # 1c007b9c <crc16+0x17c>
1c007b88:	15ffff52 	lu12i.w	$r18,-6(0xffffa)
1c007b8c:	0380064d 	ori	$r13,$r18,0x1
1c007b90:	0015b693 	xor	$r19,$r20,$r13
1c007b94:	29803073 	st.w	$r19,$r3,12(0xc)
1c007b98:	2a403074 	ld.hu	$r20,$r3,12(0xc)
1c007b9c:	0015d22f 	xor	$r15,$r17,$r20
1c007ba0:	034005e5 	andi	$r5,$r15,0x1
1c007ba4:	00448950 	srli.w	$r16,$r10,0x2
1c007ba8:	00448688 	srli.w	$r8,$r20,0x1
1c007bac:	580018a0 	beq	$r5,$r0,24(0x18) # 1c007bc4 <crc16+0x1a4>
1c007bb0:	15ffff46 	lu12i.w	$r6,-6(0xffffa)
1c007bb4:	038004c7 	ori	$r7,$r6,0x1
1c007bb8:	00159d04 	xor	$r4,$r8,$r7
1c007bbc:	29803064 	st.w	$r4,$r3,12(0xc)
1c007bc0:	2a403068 	ld.hu	$r8,$r3,12(0xc)
1c007bc4:	0015c109 	xor	$r9,$r8,$r16
1c007bc8:	0340052b 	andi	$r11,$r9,0x1
1c007bcc:	00448d4e 	srli.w	$r14,$r10,0x3
1c007bd0:	0044850d 	srli.w	$r13,$r8,0x1
1c007bd4:	58001960 	beq	$r11,$r0,24(0x18) # 1c007bec <crc16+0x1cc>
1c007bd8:	15ffff4c 	lu12i.w	$r12,-6(0xffffa)
1c007bdc:	03800591 	ori	$r17,$r12,0x1
1c007be0:	0015c5b2 	xor	$r18,$r13,$r17
1c007be4:	29803072 	st.w	$r18,$r3,12(0xc)
1c007be8:	2a40306d 	ld.hu	$r13,$r3,12(0xc)
1c007bec:	0015b9b3 	xor	$r19,$r13,$r14
1c007bf0:	0340066f 	andi	$r15,$r19,0x1
1c007bf4:	00449154 	srli.w	$r20,$r10,0x4
1c007bf8:	004485a7 	srli.w	$r7,$r13,0x1
1c007bfc:	580019e0 	beq	$r15,$r0,24(0x18) # 1c007c14 <crc16+0x1f4>
1c007c00:	15ffff50 	lu12i.w	$r16,-6(0xffffa)
1c007c04:	03800605 	ori	$r5,$r16,0x1
1c007c08:	001594e6 	xor	$r6,$r7,$r5
1c007c0c:	29803066 	st.w	$r6,$r3,12(0xc)
1c007c10:	2a403067 	ld.hu	$r7,$r3,12(0xc)
1c007c14:	0015d0e8 	xor	$r8,$r7,$r20
1c007c18:	0340050e 	andi	$r14,$r8,0x1
1c007c1c:	00449549 	srli.w	$r9,$r10,0x5
1c007c20:	004484f1 	srli.w	$r17,$r7,0x1
1c007c24:	580019c0 	beq	$r14,$r0,24(0x18) # 1c007c3c <crc16+0x21c>
1c007c28:	15ffff4b 	lu12i.w	$r11,-6(0xffffa)
1c007c2c:	0380056c 	ori	$r12,$r11,0x1
1c007c30:	0015b224 	xor	$r4,$r17,$r12
1c007c34:	29803064 	st.w	$r4,$r3,12(0xc)
1c007c38:	2a403071 	ld.hu	$r17,$r3,12(0xc)
1c007c3c:	0015a632 	xor	$r18,$r17,$r9
1c007c40:	03400653 	andi	$r19,$r18,0x1
1c007c44:	0044994d 	srli.w	$r13,$r10,0x6
1c007c48:	00448625 	srli.w	$r5,$r17,0x1
1c007c4c:	58001a60 	beq	$r19,$r0,24(0x18) # 1c007c64 <crc16+0x244>
1c007c50:	15ffff54 	lu12i.w	$r20,-6(0xffffa)
1c007c54:	0380068f 	ori	$r15,$r20,0x1
1c007c58:	0015bcb0 	xor	$r16,$r5,$r15
1c007c5c:	29803070 	st.w	$r16,$r3,12(0xc)
1c007c60:	2a403065 	ld.hu	$r5,$r3,12(0xc)
1c007c64:	0015b4a6 	xor	$r6,$r5,$r13
1c007c68:	034004c7 	andi	$r7,$r6,0x1
1c007c6c:	00449d4a 	srli.w	$r10,$r10,0x7
1c007c70:	004484ab 	srli.w	$r11,$r5,0x1
1c007c74:	580018e0 	beq	$r7,$r0,24(0x18) # 1c007c8c <crc16+0x26c>
1c007c78:	15ffff48 	lu12i.w	$r8,-6(0xffffa)
1c007c7c:	03800509 	ori	$r9,$r8,0x1
1c007c80:	0015a56e 	xor	$r14,$r11,$r9
1c007c84:	2980306e 	st.w	$r14,$r3,12(0xc)
1c007c88:	2a40306b 	ld.hu	$r11,$r3,12(0xc)
1c007c8c:	0340056c 	andi	$r12,$r11,0x1
1c007c90:	00448564 	srli.w	$r4,$r11,0x1
1c007c94:	5800198a 	beq	$r12,$r10,24(0x18) # 1c007cac <crc16+0x28c>
1c007c98:	15ffff51 	lu12i.w	$r17,-6(0xffffa)
1c007c9c:	03800632 	ori	$r18,$r17,0x1
1c007ca0:	0015c884 	xor	$r4,$r4,$r18
1c007ca4:	29803064 	st.w	$r4,$r3,12(0xc)
1c007ca8:	2a403064 	ld.hu	$r4,$r3,12(0xc)
1c007cac:	02804063 	addi.w	$r3,$r3,16(0x10)
1c007cb0:	4c000020 	jirl	$r0,$r1,0
1c007cb4:	03400000 	andi	$r0,$r0,0x0
1c007cb8:	03400000 	andi	$r0,$r0,0x0
1c007cbc:	03400000 	andi	$r0,$r0,0x0

1c007cc0 <check_data_types>:
check_data_types():
1c007cc0:	00150004 	move	$r4,$r0
1c007cc4:	4c000020 	jirl	$r0,$r1,0
1c007cc8:	03400000 	andi	$r0,$r0,0x0
1c007ccc:	03400000 	andi	$r0,$r0,0x0

1c007cd0 <calc_func>:
calc_func():
1c007cd0:	02bf4063 	addi.w	$r3,$r3,-48(0xfd0)
1c007cd4:	2980a077 	st.w	$r23,$r3,40(0x28)
1c007cd8:	28400097 	ld.h	$r23,$r4,0
1c007cdc:	2980b061 	st.w	$r1,$r3,44(0x2c)
1c007ce0:	29809078 	st.w	$r24,$r3,36(0x24)
1c007ce4:	00489eec 	srai.w	$r12,$r23,0x7
1c007ce8:	29808079 	st.w	$r25,$r3,32(0x20)
1c007cec:	2980707a 	st.w	$r26,$r3,28(0x1c)
1c007cf0:	03400581 	andi	$r1,$r12,0x1
1c007cf4:	0341feef 	andi	$r15,$r23,0x7f
1c007cf8:	5c006020 	bne	$r1,$r0,96(0x60) # 1c007d58 <calc_func+0x88>
1c007cfc:	001500b8 	move	$r24,$r5
1c007d00:	00488ee5 	srai.w	$r5,$r23,0x3
1c007d04:	00150099 	move	$r25,$r4
1c007d08:	03403ca4 	andi	$r4,$r5,0xf
1c007d0c:	00409086 	slli.w	$r6,$r4,0x4
1c007d10:	03401eed 	andi	$r13,$r23,0x7
1c007d14:	2a40e309 	ld.hu	$r9,$r24,56(0x38)
1c007d18:	001510c5 	or	$r5,$r6,$r4
1c007d1c:	58005da0 	beq	$r13,$r0,92(0x5c) # 1c007d78 <calc_func+0xa8>
1c007d20:	0280040a 	addi.w	$r10,$r0,1(0x1)
1c007d24:	5800c1aa 	beq	$r13,$r10,192(0xc0) # 1c007de4 <calc_func+0x114>
1c007d28:	29803077 	st.w	$r23,$r3,12(0xc)
1c007d2c:	2a403064 	ld.hu	$r4,$r3,12(0xc)
1c007d30:	001502fa 	move	$r26,$r23
1c007d34:	00150125 	move	$r5,$r9
1c007d38:	57f53bff 	bl	-2760(0xffff538) # 1c007270 <crcu16>
1c007d3c:	02bc000e 	addi.w	$r14,$r0,-256(0xf00)
1c007d40:	0341ff4f 	andi	$r15,$r26,0x7f
1c007d44:	0014baf0 	and	$r16,$r23,$r14
1c007d48:	001541f1 	or	$r17,$r15,$r16
1c007d4c:	2940e304 	st.h	$r4,$r24,56(0x38)
1c007d50:	03820232 	ori	$r18,$r17,0x80
1c007d54:	29400332 	st.h	$r18,$r25,0
1c007d58:	2880b061 	ld.w	$r1,$r3,44(0x2c)
1c007d5c:	2880a077 	ld.w	$r23,$r3,40(0x28)
1c007d60:	28809078 	ld.w	$r24,$r3,36(0x24)
1c007d64:	28808079 	ld.w	$r25,$r3,32(0x20)
1c007d68:	2880707a 	ld.w	$r26,$r3,28(0x1c)
1c007d6c:	001501e4 	move	$r4,$r15
1c007d70:	0280c063 	addi.w	$r3,$r3,48(0x30)
1c007d74:	4c000020 	jirl	$r0,$r1,0
1c007d78:	02808807 	addi.w	$r7,$r0,34(0x22)
1c007d7c:	001500a8 	move	$r8,$r5
1c007d80:	640008a7 	bge	$r5,$r7,8(0x8) # 1c007d88 <calc_func+0xb8>
1c007d84:	02808808 	addi.w	$r8,$r0,34(0x22)
1c007d88:	29403068 	st.h	$r8,$r3,12(0xc)
1c007d8c:	28403068 	ld.h	$r8,$r3,12(0xc)
1c007d90:	28400b07 	ld.h	$r7,$r24,2(0x2)
1c007d94:	28400306 	ld.h	$r6,$r24,0
1c007d98:	28805305 	ld.w	$r5,$r24,20(0x14)
1c007d9c:	28806304 	ld.w	$r4,$r24,24(0x18)
1c007da0:	57de93ff 	bl	-8560(0xfffde90) # 1c005c30 <core_bench_state>
1c007da4:	2a40fb09 	ld.hu	$r9,$r24,62(0x3e)
1c007da8:	29803064 	st.w	$r4,$r3,12(0xc)
1c007dac:	2840307a 	ld.h	$r26,$r3,12(0xc)
1c007db0:	5c000920 	bne	$r9,$r0,8(0x8) # 1c007db8 <calc_func+0xe8>
1c007db4:	2940fb04 	st.h	$r4,$r24,62(0x3e)
1c007db8:	2a40e309 	ld.hu	$r9,$r24,56(0x38)
1c007dbc:	00150125 	move	$r5,$r9
1c007dc0:	57f4b3ff 	bl	-2896(0xffff4b0) # 1c007270 <crcu16>
1c007dc4:	02bc000e 	addi.w	$r14,$r0,-256(0xf00)
1c007dc8:	0341ff4f 	andi	$r15,$r26,0x7f
1c007dcc:	0014baf0 	and	$r16,$r23,$r14
1c007dd0:	001541f1 	or	$r17,$r15,$r16
1c007dd4:	2940e304 	st.h	$r4,$r24,56(0x38)
1c007dd8:	03820232 	ori	$r18,$r17,0x80
1c007ddc:	29400332 	st.h	$r18,$r25,0
1c007de0:	53ff7bff 	b	-136(0xfffff78) # 1c007d58 <calc_func+0x88>
1c007de4:	00150126 	move	$r6,$r9
1c007de8:	0280a304 	addi.w	$r4,$r24,40(0x28)
1c007dec:	579697ff 	bl	-26988(0xfff9694) # 1c001480 <core_bench_matrix>
1c007df0:	2a40f30b 	ld.hu	$r11,$r24,60(0x3c)
1c007df4:	29803064 	st.w	$r4,$r3,12(0xc)
1c007df8:	2840307a 	ld.h	$r26,$r3,12(0xc)
1c007dfc:	2a40e309 	ld.hu	$r9,$r24,56(0x38)
1c007e00:	5fff3560 	bne	$r11,$r0,-204(0x3ff34) # 1c007d34 <calc_func+0x64>
1c007e04:	2940f304 	st.h	$r4,$r24,60(0x3c)
1c007e08:	53ff2fff 	b	-212(0xfffff2c) # 1c007d34 <calc_func+0x64>
1c007e0c:	03400000 	andi	$r0,$r0,0x0

1c007e10 <cmp_complex>:
cmp_complex():
1c007e10:	02bf4063 	addi.w	$r3,$r3,-48(0xfd0)
1c007e14:	2980a077 	st.w	$r23,$r3,40(0x28)
1c007e18:	28400097 	ld.h	$r23,$r4,0
1c007e1c:	2980b061 	st.w	$r1,$r3,44(0x2c)
1c007e20:	29809078 	st.w	$r24,$r3,36(0x24)
1c007e24:	00489eec 	srai.w	$r12,$r23,0x7
1c007e28:	29808079 	st.w	$r25,$r3,32(0x20)
1c007e2c:	2980707a 	st.w	$r26,$r3,28(0x1c)
1c007e30:	2980607b 	st.w	$r27,$r3,24(0x18)
1c007e34:	03400581 	andi	$r1,$r12,0x1
1c007e38:	001500b9 	move	$r25,$r5
1c007e3c:	001500da 	move	$r26,$r6
1c007e40:	0341fef8 	andi	$r24,$r23,0x7f
1c007e44:	5c005c20 	bne	$r1,$r0,92(0x5c) # 1c007ea0 <cmp_complex+0x90>
1c007e48:	00488ee5 	srai.w	$r5,$r23,0x3
1c007e4c:	2a40e0c9 	ld.hu	$r9,$r6,56(0x38)
1c007e50:	03403ca6 	andi	$r6,$r5,0xf
1c007e54:	0015009b 	move	$r27,$r4
1c007e58:	004090cd 	slli.w	$r13,$r6,0x4
1c007e5c:	03401ee4 	andi	$r4,$r23,0x7
1c007e60:	001534c5 	or	$r5,$r6,$r13
1c007e64:	5800cc80 	beq	$r4,$r0,204(0xcc) # 1c007f30 <cmp_complex+0x120>
1c007e68:	0280040a 	addi.w	$r10,$r0,1(0x1)
1c007e6c:	5801a48a 	beq	$r4,$r10,420(0x1a4) # 1c008010 <cmp_complex+0x200>
1c007e70:	29803077 	st.w	$r23,$r3,12(0xc)
1c007e74:	2a403064 	ld.hu	$r4,$r3,12(0xc)
1c007e78:	001502f8 	move	$r24,$r23
1c007e7c:	00150125 	move	$r5,$r9
1c007e80:	57f3f3ff 	bl	-3088(0xffff3f0) # 1c007270 <crcu16>
1c007e84:	02bc000e 	addi.w	$r14,$r0,-256(0xf00)
1c007e88:	0341ff18 	andi	$r24,$r24,0x7f
1c007e8c:	0014baef 	and	$r15,$r23,$r14
1c007e90:	00153f10 	or	$r16,$r24,$r15
1c007e94:	2940e344 	st.h	$r4,$r26,56(0x38)
1c007e98:	03820211 	ori	$r17,$r16,0x80
1c007e9c:	29400371 	st.h	$r17,$r27,0
1c007ea0:	28400337 	ld.h	$r23,$r25,0
1c007ea4:	00489ef2 	srai.w	$r18,$r23,0x7
1c007ea8:	03400653 	andi	$r19,$r18,0x1
1c007eac:	0341fee9 	andi	$r9,$r23,0x7f
1c007eb0:	5c005a60 	bne	$r19,$r0,88(0x58) # 1c007f08 <cmp_complex+0xf8>
1c007eb4:	00488ef4 	srai.w	$r20,$r23,0x3
1c007eb8:	03403e81 	andi	$r1,$r20,0xf
1c007ebc:	0040903b 	slli.w	$r27,$r1,0x4
1c007ec0:	03401eec 	andi	$r12,$r23,0x7
1c007ec4:	2a40e349 	ld.hu	$r9,$r26,56(0x38)
1c007ec8:	00156c25 	or	$r5,$r1,$r27
1c007ecc:	5800d580 	beq	$r12,$r0,212(0xd4) # 1c007fa0 <cmp_complex+0x190>
1c007ed0:	0280040d 	addi.w	$r13,$r0,1(0x1)
1c007ed4:	5801658d 	beq	$r12,$r13,356(0x164) # 1c008038 <cmp_complex+0x228>
1c007ed8:	29803077 	st.w	$r23,$r3,12(0xc)
1c007edc:	2a403064 	ld.hu	$r4,$r3,12(0xc)
1c007ee0:	001502fb 	move	$r27,$r23
1c007ee4:	00150125 	move	$r5,$r9
1c007ee8:	57f38bff 	bl	-3192(0xffff388) # 1c007270 <crcu16>
1c007eec:	02bc0008 	addi.w	$r8,$r0,-256(0xf00)
1c007ef0:	0341ff69 	andi	$r9,$r27,0x7f
1c007ef4:	0014a2ea 	and	$r10,$r23,$r8
1c007ef8:	2940e344 	st.h	$r4,$r26,56(0x38)
1c007efc:	0015293a 	or	$r26,$r9,$r10
1c007f00:	0382034b 	ori	$r11,$r26,0x80
1c007f04:	2940032b 	st.h	$r11,$r25,0
1c007f08:	2880b061 	ld.w	$r1,$r3,44(0x2c)
1c007f0c:	00112704 	sub.w	$r4,$r24,$r9
1c007f10:	2880a077 	ld.w	$r23,$r3,40(0x28)
1c007f14:	28809078 	ld.w	$r24,$r3,36(0x24)
1c007f18:	28808079 	ld.w	$r25,$r3,32(0x20)
1c007f1c:	2880707a 	ld.w	$r26,$r3,28(0x1c)
1c007f20:	2880607b 	ld.w	$r27,$r3,24(0x18)
1c007f24:	0280c063 	addi.w	$r3,$r3,48(0x30)
1c007f28:	4c000020 	jirl	$r0,$r1,0
1c007f2c:	03400000 	andi	$r0,$r0,0x0
1c007f30:	02808807 	addi.w	$r7,$r0,34(0x22)
1c007f34:	001500a8 	move	$r8,$r5
1c007f38:	640008a7 	bge	$r5,$r7,8(0x8) # 1c007f40 <cmp_complex+0x130>
1c007f3c:	02808808 	addi.w	$r8,$r0,34(0x22)
1c007f40:	29403068 	st.h	$r8,$r3,12(0xc)
1c007f44:	28403068 	ld.h	$r8,$r3,12(0xc)
1c007f48:	28400b47 	ld.h	$r7,$r26,2(0x2)
1c007f4c:	28400346 	ld.h	$r6,$r26,0
1c007f50:	28805345 	ld.w	$r5,$r26,20(0x14)
1c007f54:	28806344 	ld.w	$r4,$r26,24(0x18)
1c007f58:	57dcdbff 	bl	-9000(0xfffdcd8) # 1c005c30 <core_bench_state>
1c007f5c:	2a40fb49 	ld.hu	$r9,$r26,62(0x3e)
1c007f60:	29803064 	st.w	$r4,$r3,12(0xc)
1c007f64:	28403078 	ld.h	$r24,$r3,12(0xc)
1c007f68:	5c000920 	bne	$r9,$r0,8(0x8) # 1c007f70 <cmp_complex+0x160>
1c007f6c:	2940fb44 	st.h	$r4,$r26,62(0x3e)
1c007f70:	2a40e349 	ld.hu	$r9,$r26,56(0x38)
1c007f74:	0341ff18 	andi	$r24,$r24,0x7f
1c007f78:	00150125 	move	$r5,$r9
1c007f7c:	57f2f7ff 	bl	-3340(0xffff2f4) # 1c007270 <crcu16>
1c007f80:	02bc000e 	addi.w	$r14,$r0,-256(0xf00)
1c007f84:	0014baef 	and	$r15,$r23,$r14
1c007f88:	00153f10 	or	$r16,$r24,$r15
1c007f8c:	2940e344 	st.h	$r4,$r26,56(0x38)
1c007f90:	03820211 	ori	$r17,$r16,0x80
1c007f94:	29400371 	st.h	$r17,$r27,0
1c007f98:	53ff0bff 	b	-248(0xfffff08) # 1c007ea0 <cmp_complex+0x90>
1c007f9c:	03400000 	andi	$r0,$r0,0x0
1c007fa0:	02808804 	addi.w	$r4,$r0,34(0x22)
1c007fa4:	001500a6 	move	$r6,$r5
1c007fa8:	640008a4 	bge	$r5,$r4,8(0x8) # 1c007fb0 <cmp_complex+0x1a0>
1c007fac:	02808806 	addi.w	$r6,$r0,34(0x22)
1c007fb0:	29403066 	st.h	$r6,$r3,12(0xc)
1c007fb4:	28805345 	ld.w	$r5,$r26,20(0x14)
1c007fb8:	28806344 	ld.w	$r4,$r26,24(0x18)
1c007fbc:	28403068 	ld.h	$r8,$r3,12(0xc)
1c007fc0:	28400b47 	ld.h	$r7,$r26,2(0x2)
1c007fc4:	28400346 	ld.h	$r6,$r26,0
1c007fc8:	57dc6bff 	bl	-9112(0xfffdc68) # 1c005c30 <core_bench_state>
1c007fcc:	2a40fb45 	ld.hu	$r5,$r26,62(0x3e)
1c007fd0:	29803064 	st.w	$r4,$r3,12(0xc)
1c007fd4:	2840307b 	ld.h	$r27,$r3,12(0xc)
1c007fd8:	5c0008a0 	bne	$r5,$r0,8(0x8) # 1c007fe0 <cmp_complex+0x1d0>
1c007fdc:	2940fb44 	st.h	$r4,$r26,62(0x3e)
1c007fe0:	2a40e349 	ld.hu	$r9,$r26,56(0x38)
1c007fe4:	00150125 	move	$r5,$r9
1c007fe8:	57f28bff 	bl	-3448(0xffff288) # 1c007270 <crcu16>
1c007fec:	02bc0008 	addi.w	$r8,$r0,-256(0xf00)
1c007ff0:	0341ff69 	andi	$r9,$r27,0x7f
1c007ff4:	0014a2ea 	and	$r10,$r23,$r8
1c007ff8:	2940e344 	st.h	$r4,$r26,56(0x38)
1c007ffc:	0015293a 	or	$r26,$r9,$r10
1c008000:	0382034b 	ori	$r11,$r26,0x80
1c008004:	2940032b 	st.h	$r11,$r25,0
1c008008:	53ff03ff 	b	-256(0xfffff00) # 1c007f08 <cmp_complex+0xf8>
1c00800c:	03400000 	andi	$r0,$r0,0x0
1c008010:	00150126 	move	$r6,$r9
1c008014:	0280a344 	addi.w	$r4,$r26,40(0x28)
1c008018:	57946bff 	bl	-27544(0xfff9468) # 1c001480 <core_bench_matrix>
1c00801c:	2a40f34b 	ld.hu	$r11,$r26,60(0x3c)
1c008020:	29803064 	st.w	$r4,$r3,12(0xc)
1c008024:	28403078 	ld.h	$r24,$r3,12(0xc)
1c008028:	2a40e349 	ld.hu	$r9,$r26,56(0x38)
1c00802c:	5ffe5160 	bne	$r11,$r0,-432(0x3fe50) # 1c007e7c <cmp_complex+0x6c>
1c008030:	2940f344 	st.h	$r4,$r26,60(0x3c)
1c008034:	53fe4bff 	b	-440(0xffffe48) # 1c007e7c <cmp_complex+0x6c>
1c008038:	00150126 	move	$r6,$r9
1c00803c:	0280a344 	addi.w	$r4,$r26,40(0x28)
1c008040:	579443ff 	bl	-27584(0xfff9440) # 1c001480 <core_bench_matrix>
1c008044:	2a40f347 	ld.hu	$r7,$r26,60(0x3c)
1c008048:	29803064 	st.w	$r4,$r3,12(0xc)
1c00804c:	2840307b 	ld.h	$r27,$r3,12(0xc)
1c008050:	2a40e349 	ld.hu	$r9,$r26,56(0x38)
1c008054:	5ffe90e0 	bne	$r7,$r0,-368(0x3fe90) # 1c007ee4 <cmp_complex+0xd4>
1c008058:	2940f344 	st.h	$r4,$r26,60(0x3c)
1c00805c:	53fe8bff 	b	-376(0xffffe88) # 1c007ee4 <cmp_complex+0xd4>

1c008060 <cmp_idx>:
cmp_idx():
1c008060:	580014c0 	beq	$r6,$r0,20(0x14) # 1c008074 <cmp_idx+0x14>
1c008064:	28400884 	ld.h	$r4,$r4,2(0x2)
1c008068:	284008ac 	ld.h	$r12,$r5,2(0x2)
1c00806c:	00113084 	sub.w	$r4,$r4,$r12
1c008070:	4c000020 	jirl	$r0,$r1,0
1c008074:	2840008d 	ld.h	$r13,$r4,0
1c008078:	02bfc063 	addi.w	$r3,$r3,-16(0xff0)
1c00807c:	02bc000f 	addi.w	$r15,$r0,-256(0xf00)
1c008080:	2980306d 	st.w	$r13,$r3,12(0xc)
1c008084:	2a40306e 	ld.hu	$r14,$r3,12(0xc)
1c008088:	0014bda6 	and	$r6,$r13,$r15
1c00808c:	28400892 	ld.h	$r18,$r4,2(0x2)
1c008090:	0044a1c7 	srli.w	$r7,$r14,0x8
1c008094:	00151cc8 	or	$r8,$r6,$r7
1c008098:	29400088 	st.h	$r8,$r4,0
1c00809c:	284000a9 	ld.h	$r9,$r5,0
1c0080a0:	29803069 	st.w	$r9,$r3,12(0xc)
1c0080a4:	2a40306a 	ld.hu	$r10,$r3,12(0xc)
1c0080a8:	0014bd2b 	and	$r11,$r9,$r15
1c0080ac:	0044a150 	srli.w	$r16,$r10,0x8
1c0080b0:	00154171 	or	$r17,$r11,$r16
1c0080b4:	294000b1 	st.h	$r17,$r5,0
1c0080b8:	284008a5 	ld.h	$r5,$r5,2(0x2)
1c0080bc:	02804063 	addi.w	$r3,$r3,16(0x10)
1c0080c0:	00111644 	sub.w	$r4,$r18,$r5
1c0080c4:	4c000020 	jirl	$r0,$r1,0
1c0080c8:	03400000 	andi	$r0,$r0,0x0
1c0080cc:	03400000 	andi	$r0,$r0,0x0

1c0080d0 <copy_info>:
copy_info():
1c0080d0:	284000ad 	ld.h	$r13,$r5,0
1c0080d4:	284008ac 	ld.h	$r12,$r5,2(0x2)
1c0080d8:	2940008d 	st.h	$r13,$r4,0
1c0080dc:	2940088c 	st.h	$r12,$r4,2(0x2)
1c0080e0:	4c000020 	jirl	$r0,$r1,0
1c0080e4:	03400000 	andi	$r0,$r0,0x0
1c0080e8:	03400000 	andi	$r0,$r0,0x0
1c0080ec:	03400000 	andi	$r0,$r0,0x0

1c0080f0 <core_bench_list>:
core_bench_list():
1c0080f0:	02bec063 	addi.w	$r3,$r3,-80(0xfb0)
1c0080f4:	2980e07a 	st.w	$r26,$r3,56(0x38)
1c0080f8:	2840109a 	ld.h	$r26,$r4,4(0x4)
1c0080fc:	29812076 	st.w	$r22,$r3,72(0x48)
1c008100:	2980907f 	st.w	$r31,$r3,36(0x24)
1c008104:	29813061 	st.w	$r1,$r3,76(0x4c)
1c008108:	29811077 	st.w	$r23,$r3,68(0x44)
1c00810c:	29810078 	st.w	$r24,$r3,64(0x40)
1c008110:	2980f079 	st.w	$r25,$r3,60(0x3c)
1c008114:	2980d07b 	st.w	$r27,$r3,52(0x34)
1c008118:	2980c07c 	st.w	$r28,$r3,48(0x30)
1c00811c:	2980b07d 	st.w	$r29,$r3,44(0x2c)
1c008120:	2980a07e 	st.w	$r30,$r3,40(0x28)
1c008124:	29804060 	st.w	$r0,$r3,16(0x10)
1c008128:	0015009f 	move	$r31,$r4
1c00812c:	28809096 	ld.w	$r22,$r4,36(0x24)
1c008130:	6406a01a 	bge	$r0,$r26,1696(0x6a0) # 1c0087d0 <core_bench_list+0x6e0>
1c008134:	29802065 	st.w	$r5,$r3,8(0x8)
1c008138:	00150013 	move	$r19,$r0
1c00813c:	00150006 	move	$r6,$r0
1c008140:	00150004 	move	$r4,$r0
1c008144:	00150007 	move	$r7,$r0
1c008148:	29800073 	st.w	$r19,$r3,0
1c00814c:	2a00006e 	ld.bu	$r14,$r3,0
1c008150:	28802061 	ld.w	$r1,$r3,8(0x8)
1c008154:	2980406e 	st.w	$r14,$r3,16(0x10)
1c008158:	6004f020 	blt	$r1,$r0,1264(0x4f0) # 1c008648 <core_bench_list+0x558>
1c00815c:	580a36c0 	beq	$r22,$r0,2612(0xa34) # 1c008b90 <core_bench_list+0xaa0>
1c008160:	288012d0 	ld.w	$r16,$r22,4(0x4)
1c008164:	001502d7 	move	$r23,$r22
1c008168:	28400a11 	ld.h	$r17,$r16,2(0x2)
1c00816c:	5c001a21 	bne	$r17,$r1,24(0x18) # 1c008184 <core_bench_list+0x94>
1c008170:	50001c00 	b	28(0x1c) # 1c00818c <core_bench_list+0x9c>
1c008174:	288012f2 	ld.w	$r18,$r23,4(0x4)
1c008178:	28802079 	ld.w	$r25,$r3,8(0x8)
1c00817c:	28400a58 	ld.h	$r24,$r18,2(0x2)
1c008180:	58000f19 	beq	$r24,$r25,12(0xc) # 1c00818c <core_bench_list+0x9c>
1c008184:	288002f7 	ld.w	$r23,$r23,0
1c008188:	5fffeee0 	bne	$r23,$r0,-20(0x3ffec) # 1c008174 <core_bench_list+0x84>
1c00818c:	288002db 	ld.w	$r27,$r22,0
1c008190:	00150010 	move	$r16,$r0
1c008194:	298002d0 	st.w	$r16,$r22,0
1c008198:	5800ab60 	beq	$r27,$r0,168(0xa8) # 1c008240 <core_bench_list+0x150>
1c00819c:	2880037c 	ld.w	$r28,$r27,0
1c0081a0:	001502d0 	move	$r16,$r22
1c0081a4:	29800370 	st.w	$r16,$r27,0
1c0081a8:	00150376 	move	$r22,$r27
1c0081ac:	58009780 	beq	$r28,$r0,148(0x94) # 1c008240 <core_bench_list+0x150>
1c0081b0:	2880039d 	ld.w	$r29,$r28,0
1c0081b4:	2980039b 	st.w	$r27,$r28,0
1c0081b8:	00150370 	move	$r16,$r27
1c0081bc:	00150396 	move	$r22,$r28
1c0081c0:	580083a0 	beq	$r29,$r0,128(0x80) # 1c008240 <core_bench_list+0x150>
1c0081c4:	288003be 	ld.w	$r30,$r29,0
1c0081c8:	298003bc 	st.w	$r28,$r29,0
1c0081cc:	00150390 	move	$r16,$r28
1c0081d0:	001503b6 	move	$r22,$r29
1c0081d4:	58006fc0 	beq	$r30,$r0,108(0x6c) # 1c008240 <core_bench_list+0x150>
1c0081d8:	288003cc 	ld.w	$r12,$r30,0
1c0081dc:	298003dd 	st.w	$r29,$r30,0
1c0081e0:	001503b0 	move	$r16,$r29
1c0081e4:	001503d6 	move	$r22,$r30
1c0081e8:	58005980 	beq	$r12,$r0,88(0x58) # 1c008240 <core_bench_list+0x150>
1c0081ec:	2880018e 	ld.w	$r14,$r12,0
1c0081f0:	2980019e 	st.w	$r30,$r12,0
1c0081f4:	001503d0 	move	$r16,$r30
1c0081f8:	00150196 	move	$r22,$r12
1c0081fc:	580045c0 	beq	$r14,$r0,68(0x44) # 1c008240 <core_bench_list+0x150>
1c008200:	288001c1 	ld.w	$r1,$r14,0
1c008204:	298001cc 	st.w	$r12,$r14,0
1c008208:	00150190 	move	$r16,$r12
1c00820c:	001501d6 	move	$r22,$r14
1c008210:	58003020 	beq	$r1,$r0,48(0x30) # 1c008240 <core_bench_list+0x150>
1c008214:	28800028 	ld.w	$r8,$r1,0
1c008218:	2980002e 	st.w	$r14,$r1,0
1c00821c:	001501d0 	move	$r16,$r14
1c008220:	00150036 	move	$r22,$r1
1c008224:	58001d00 	beq	$r8,$r0,28(0x1c) # 1c008240 <core_bench_list+0x150>
1c008228:	00150116 	move	$r22,$r8
1c00822c:	288002db 	ld.w	$r27,$r22,0
1c008230:	00150030 	move	$r16,$r1
1c008234:	298002d0 	st.w	$r16,$r22,0
1c008238:	5fff6760 	bne	$r27,$r0,-156(0x3ff64) # 1c00819c <core_bench_list+0xac>
1c00823c:	03400000 	andi	$r0,$r0,0x0
1c008240:	580442e0 	beq	$r23,$r0,1088(0x440) # 1c008680 <core_bench_list+0x590>
1c008244:	288012ed 	ld.w	$r13,$r23,4(0x4)
1c008248:	02800494 	addi.w	$r20,$r4,1(0x1)
1c00824c:	29800074 	st.w	$r20,$r3,0
1c008250:	284001a9 	ld.h	$r9,$r13,0
1c008254:	2a400064 	ld.hu	$r4,$r3,0
1c008258:	0340052a 	andi	$r10,$r9,0x1
1c00825c:	58001940 	beq	$r10,$r0,24(0x18) # 1c008274 <core_bench_list+0x184>
1c008260:	0048a52b 	srai.w	$r11,$r9,0x9
1c008264:	0340056f 	andi	$r15,$r11,0x1
1c008268:	00103ce7 	add.w	$r7,$r7,$r15
1c00826c:	29800067 	st.w	$r7,$r3,0
1c008270:	2a400067 	ld.hu	$r7,$r3,0
1c008274:	288002f0 	ld.w	$r16,$r23,0
1c008278:	58001a00 	beq	$r16,$r0,24(0x18) # 1c008290 <core_bench_list+0x1a0>
1c00827c:	28800211 	ld.w	$r17,$r16,0
1c008280:	298002f1 	st.w	$r17,$r23,0
1c008284:	288002d7 	ld.w	$r23,$r22,0
1c008288:	29800217 	st.w	$r23,$r16,0
1c00828c:	298002d0 	st.w	$r16,$r22,0
1c008290:	2880207d 	ld.w	$r29,$r3,8(0x8)
1c008294:	600017a0 	blt	$r29,$r0,20(0x14) # 1c0082a8 <core_bench_list+0x1b8>
1c008298:	028007be 	addi.w	$r30,$r29,1(0x1)
1c00829c:	2980007e 	st.w	$r30,$r3,0
1c0082a0:	2840006c 	ld.h	$r12,$r3,0
1c0082a4:	2980206c 	st.w	$r12,$r3,8(0x8)
1c0082a8:	02800673 	addi.w	$r19,$r19,1(0x1)
1c0082ac:	29800073 	st.w	$r19,$r3,0
1c0082b0:	28400073 	ld.h	$r19,$r3,0
1c0082b4:	5ffe9753 	bne	$r26,$r19,-364(0x3fe94) # 1c008148 <core_bench_list+0x58>
1c0082b8:	0040889a 	slli.w	$r26,$r4,0x2
1c0082bc:	00111b46 	sub.w	$r6,$r26,$r6
1c0082c0:	001018ee 	add.w	$r14,$r7,$r6
1c0082c4:	2980006e 	st.w	$r14,$r3,0
1c0082c8:	2a400061 	ld.hu	$r1,$r3,0
1c0082cc:	29807061 	st.w	$r1,$r3,28(0x1c)
1c0082d0:	60051005 	blt	$r0,$r5,1296(0x510) # 1c0087e0 <core_bench_list+0x6f0>
1c0082d4:	288002df 	ld.w	$r31,$r22,0
1c0082d8:	28802066 	ld.w	$r6,$r3,8(0x8)
1c0082dc:	001502dc 	move	$r28,$r22
1c0082e0:	288003fd 	ld.w	$r29,$r31,0
1c0082e4:	288013ed 	ld.w	$r13,$r31,4(0x4)
1c0082e8:	288013b3 	ld.w	$r19,$r29,4(0x4)
1c0082ec:	288003ba 	ld.w	$r26,$r29,0
1c0082f0:	298013f3 	st.w	$r19,$r31,4(0x4)
1c0082f4:	298013ad 	st.w	$r13,$r29,4(0x4)
1c0082f8:	298003fa 	st.w	$r26,$r31,0
1c0082fc:	298003a0 	st.w	$r0,$r29,0
1c008300:	6002e0c0 	blt	$r6,$r0,736(0x2e0) # 1c0085e0 <core_bench_list+0x4f0>
1c008304:	28801388 	ld.w	$r8,$r28,4(0x4)
1c008308:	28802064 	ld.w	$r4,$r3,8(0x8)
1c00830c:	28400914 	ld.h	$r20,$r8,2(0x2)
1c008310:	58001684 	beq	$r20,$r4,20(0x14) # 1c008324 <core_bench_list+0x234>
1c008314:	2880039c 	ld.w	$r28,$r28,0
1c008318:	5fffef80 	bne	$r28,$r0,-20(0x3ffec) # 1c008304 <core_bench_list+0x214>
1c00831c:	288002dc 	ld.w	$r28,$r22,0
1c008320:	5800ef80 	beq	$r28,$r0,236(0xec) # 1c00840c <core_bench_list+0x31c>
1c008324:	288012c9 	ld.w	$r9,$r22,4(0x4)
1c008328:	28807065 	ld.w	$r5,$r3,28(0x1c)
1c00832c:	28400124 	ld.h	$r4,$r9,0
1c008330:	57f6f3ff 	bl	-2320(0xffff6f0) # 1c007a20 <crc16>
1c008334:	28800397 	ld.w	$r23,$r28,0
1c008338:	29807064 	st.w	$r4,$r3,28(0x1c)
1c00833c:	5800cae0 	beq	$r23,$r0,200(0xc8) # 1c008404 <core_bench_list+0x314>
1c008340:	288012ca 	ld.w	$r10,$r22,4(0x4)
1c008344:	00150085 	move	$r5,$r4
1c008348:	28400144 	ld.h	$r4,$r10,0
1c00834c:	57f6d7ff 	bl	-2348(0xffff6d4) # 1c007a20 <crc16>
1c008350:	288002fc 	ld.w	$r28,$r23,0
1c008354:	29807064 	st.w	$r4,$r3,28(0x1c)
1c008358:	5800af80 	beq	$r28,$r0,172(0xac) # 1c008404 <core_bench_list+0x314>
1c00835c:	288012cb 	ld.w	$r11,$r22,4(0x4)
1c008360:	00150085 	move	$r5,$r4
1c008364:	28400164 	ld.h	$r4,$r11,0
1c008368:	57f6bbff 	bl	-2376(0xffff6b8) # 1c007a20 <crc16>
1c00836c:	2880039e 	ld.w	$r30,$r28,0
1c008370:	29807064 	st.w	$r4,$r3,28(0x1c)
1c008374:	580093c0 	beq	$r30,$r0,144(0x90) # 1c008404 <core_bench_list+0x314>
1c008378:	288012cf 	ld.w	$r15,$r22,4(0x4)
1c00837c:	00150085 	move	$r5,$r4
1c008380:	284001e4 	ld.h	$r4,$r15,0
1c008384:	57f69fff 	bl	-2404(0xffff69c) # 1c007a20 <crc16>
1c008388:	288003d8 	ld.w	$r24,$r30,0
1c00838c:	29807064 	st.w	$r4,$r3,28(0x1c)
1c008390:	58007700 	beq	$r24,$r0,116(0x74) # 1c008404 <core_bench_list+0x314>
1c008394:	288012c7 	ld.w	$r7,$r22,4(0x4)
1c008398:	00150085 	move	$r5,$r4
1c00839c:	284000e4 	ld.h	$r4,$r7,0
1c0083a0:	57f683ff 	bl	-2432(0xffff680) # 1c007a20 <crc16>
1c0083a4:	28800319 	ld.w	$r25,$r24,0
1c0083a8:	29807064 	st.w	$r4,$r3,28(0x1c)
1c0083ac:	58005b20 	beq	$r25,$r0,88(0x58) # 1c008404 <core_bench_list+0x314>
1c0083b0:	288012d0 	ld.w	$r16,$r22,4(0x4)
1c0083b4:	00150085 	move	$r5,$r4
1c0083b8:	28400204 	ld.h	$r4,$r16,0
1c0083bc:	57f667ff 	bl	-2460(0xffff664) # 1c007a20 <crc16>
1c0083c0:	2880033b 	ld.w	$r27,$r25,0
1c0083c4:	29807064 	st.w	$r4,$r3,28(0x1c)
1c0083c8:	58003f60 	beq	$r27,$r0,60(0x3c) # 1c008404 <core_bench_list+0x314>
1c0083cc:	288012d1 	ld.w	$r17,$r22,4(0x4)
1c0083d0:	00150085 	move	$r5,$r4
1c0083d4:	28400224 	ld.h	$r4,$r17,0
1c0083d8:	57f64bff 	bl	-2488(0xffff648) # 1c007a20 <crc16>
1c0083dc:	2880037f 	ld.w	$r31,$r27,0
1c0083e0:	29807064 	st.w	$r4,$r3,28(0x1c)
1c0083e4:	580023e0 	beq	$r31,$r0,32(0x20) # 1c008404 <core_bench_list+0x314>
1c0083e8:	288012d2 	ld.w	$r18,$r22,4(0x4)
1c0083ec:	00150085 	move	$r5,$r4
1c0083f0:	28400244 	ld.h	$r4,$r18,0
1c0083f4:	57f62fff 	bl	-2516(0xffff62c) # 1c007a20 <crc16>
1c0083f8:	288003fc 	ld.w	$r28,$r31,0
1c0083fc:	29807064 	st.w	$r4,$r3,28(0x1c)
1c008400:	5fff2780 	bne	$r28,$r0,-220(0x3ff24) # 1c008324 <core_bench_list+0x234>
1c008404:	288002dc 	ld.w	$r28,$r22,0
1c008408:	288013ad 	ld.w	$r13,$r29,4(0x4)
1c00840c:	28801393 	ld.w	$r19,$r28,4(0x4)
1c008410:	2880038c 	ld.w	$r12,$r28,0
1c008414:	02800414 	addi.w	$r20,$r0,1(0x1)
1c008418:	00150004 	move	$r4,$r0
1c00841c:	298013b3 	st.w	$r19,$r29,4(0x4)
1c008420:	2980138d 	st.w	$r13,$r28,4(0x4)
1c008424:	298003ac 	st.w	$r12,$r29,0
1c008428:	00150017 	move	$r23,$r0
1c00842c:	00150005 	move	$r5,$r0
1c008430:	02bc0018 	addi.w	$r24,$r0,-256(0xf00)
1c008434:	02800406 	addi.w	$r6,$r0,1(0x1)
1c008438:	2980039d 	st.w	$r29,$r28,0
1c00843c:	03400000 	andi	$r0,$r0,0x0
1c008440:	03401e9a 	andi	$r26,$r20,0x7
1c008444:	028004a5 	addi.w	$r5,$r5,1(0x1)
1c008448:	001502de 	move	$r30,$r22
1c00844c:	0015000d 	move	$r13,$r0
1c008450:	58008f40 	beq	$r26,$r0,140(0x8c) # 1c0084dc <core_bench_list+0x3ec>
1c008454:	0280040e 	addi.w	$r14,$r0,1(0x1)
1c008458:	5800774e 	beq	$r26,$r14,116(0x74) # 1c0084cc <core_bench_list+0x3dc>
1c00845c:	02800801 	addi.w	$r1,$r0,2(0x2)
1c008460:	58006341 	beq	$r26,$r1,96(0x60) # 1c0084c0 <core_bench_list+0x3d0>
1c008464:	02800c08 	addi.w	$r8,$r0,3(0x3)
1c008468:	58004f48 	beq	$r26,$r8,76(0x4c) # 1c0084b4 <core_bench_list+0x3c4>
1c00846c:	0280101d 	addi.w	$r29,$r0,4(0x4)
1c008470:	58003b5d 	beq	$r26,$r29,56(0x38) # 1c0084a8 <core_bench_list+0x3b8>
1c008474:	02801409 	addi.w	$r9,$r0,5(0x5)
1c008478:	58002749 	beq	$r26,$r9,36(0x24) # 1c00849c <core_bench_list+0x3ac>
1c00847c:	0280180a 	addi.w	$r10,$r0,6(0x6)
1c008480:	5800134a 	beq	$r26,$r10,16(0x10) # 1c008490 <core_bench_list+0x3a0>
1c008484:	288002de 	ld.w	$r30,$r22,0
1c008488:	0280040d 	addi.w	$r13,$r0,1(0x1)
1c00848c:	5800b7c0 	beq	$r30,$r0,180(0xb4) # 1c008540 <core_bench_list+0x450>
1c008490:	288003de 	ld.w	$r30,$r30,0
1c008494:	028005ad 	addi.w	$r13,$r13,1(0x1)
1c008498:	5800abc0 	beq	$r30,$r0,168(0xa8) # 1c008540 <core_bench_list+0x450>
1c00849c:	288003de 	ld.w	$r30,$r30,0
1c0084a0:	028005ad 	addi.w	$r13,$r13,1(0x1)
1c0084a4:	58009fc0 	beq	$r30,$r0,156(0x9c) # 1c008540 <core_bench_list+0x450>
1c0084a8:	288003de 	ld.w	$r30,$r30,0
1c0084ac:	028005ad 	addi.w	$r13,$r13,1(0x1)
1c0084b0:	580093c0 	beq	$r30,$r0,144(0x90) # 1c008540 <core_bench_list+0x450>
1c0084b4:	288003de 	ld.w	$r30,$r30,0
1c0084b8:	028005ad 	addi.w	$r13,$r13,1(0x1)
1c0084bc:	580087c0 	beq	$r30,$r0,132(0x84) # 1c008540 <core_bench_list+0x450>
1c0084c0:	288003de 	ld.w	$r30,$r30,0
1c0084c4:	028005ad 	addi.w	$r13,$r13,1(0x1)
1c0084c8:	58007bc0 	beq	$r30,$r0,120(0x78) # 1c008540 <core_bench_list+0x450>
1c0084cc:	288003de 	ld.w	$r30,$r30,0
1c0084d0:	028005ad 	addi.w	$r13,$r13,1(0x1)
1c0084d4:	58006fc0 	beq	$r30,$r0,108(0x6c) # 1c008540 <core_bench_list+0x450>
1c0084d8:	580069b4 	beq	$r13,$r20,104(0x68) # 1c008540 <core_bench_list+0x450>
1c0084dc:	288003de 	ld.w	$r30,$r30,0
1c0084e0:	028005ad 	addi.w	$r13,$r13,1(0x1)
1c0084e4:	001501ab 	move	$r11,$r13
1c0084e8:	58005bc0 	beq	$r30,$r0,88(0x58) # 1c008540 <core_bench_list+0x450>
1c0084ec:	288003de 	ld.w	$r30,$r30,0
1c0084f0:	028005ad 	addi.w	$r13,$r13,1(0x1)
1c0084f4:	58004fc0 	beq	$r30,$r0,76(0x4c) # 1c008540 <core_bench_list+0x450>
1c0084f8:	288003de 	ld.w	$r30,$r30,0
1c0084fc:	0280096d 	addi.w	$r13,$r11,2(0x2)
1c008500:	580043c0 	beq	$r30,$r0,64(0x40) # 1c008540 <core_bench_list+0x450>
1c008504:	288003de 	ld.w	$r30,$r30,0
1c008508:	02800d6d 	addi.w	$r13,$r11,3(0x3)
1c00850c:	580037c0 	beq	$r30,$r0,52(0x34) # 1c008540 <core_bench_list+0x450>
1c008510:	288003de 	ld.w	$r30,$r30,0
1c008514:	0280116d 	addi.w	$r13,$r11,4(0x4)
1c008518:	58002bc0 	beq	$r30,$r0,40(0x28) # 1c008540 <core_bench_list+0x450>
1c00851c:	288003de 	ld.w	$r30,$r30,0
1c008520:	0280156d 	addi.w	$r13,$r11,5(0x5)
1c008524:	58001fc0 	beq	$r30,$r0,28(0x1c) # 1c008540 <core_bench_list+0x450>
1c008528:	288003de 	ld.w	$r30,$r30,0
1c00852c:	0280196d 	addi.w	$r13,$r11,6(0x6)
1c008530:	580013c0 	beq	$r30,$r0,16(0x10) # 1c008540 <core_bench_list+0x450>
1c008534:	288003de 	ld.w	$r30,$r30,0
1c008538:	02801d6d 	addi.w	$r13,$r11,7(0x7)
1c00853c:	5fff9fc0 	bne	$r30,$r0,-100(0x3ff9c) # 1c0084d8 <core_bench_list+0x3e8>
1c008540:	00150290 	move	$r16,$r20
1c008544:	580079a0 	beq	$r13,$r0,120(0x78) # 1c0085bc <core_bench_list+0x4cc>
1c008548:	5800be00 	beq	$r16,$r0,188(0xbc) # 1c008604 <core_bench_list+0x514>
1c00854c:	5800bbc0 	beq	$r30,$r0,184(0xb8) # 1c008604 <core_bench_list+0x514>
1c008550:	288012cc 	ld.w	$r12,$r22,4(0x4)
1c008554:	288013ce 	ld.w	$r14,$r30,4(0x4)
1c008558:	28400181 	ld.h	$r1,$r12,0
1c00855c:	2840098a 	ld.h	$r10,$r12,2(0x2)
1c008560:	284009c9 	ld.h	$r9,$r14,2(0x2)
1c008564:	29800061 	st.w	$r1,$r3,0
1c008568:	2a400068 	ld.hu	$r8,$r3,0
1c00856c:	0014e02b 	and	$r11,$r1,$r24
1c008570:	00112559 	sub.w	$r25,$r10,$r9
1c008574:	0044a10f 	srli.w	$r15,$r8,0x8
1c008578:	00153d7b 	or	$r27,$r11,$r15
1c00857c:	2940019b 	st.h	$r27,$r12,0
1c008580:	284001c7 	ld.h	$r7,$r14,0
1c008584:	29800067 	st.w	$r7,$r3,0
1c008588:	2a40007f 	ld.hu	$r31,$r3,0
1c00858c:	0014e0fc 	and	$r28,$r7,$r24
1c008590:	0044a3f1 	srli.w	$r17,$r31,0x8
1c008594:	0015479a 	or	$r26,$r28,$r17
1c008598:	294001da 	st.h	$r26,$r14,0
1c00859c:	64006819 	bge	$r0,$r25,104(0x68) # 1c008604 <core_bench_list+0x514>
1c0085a0:	001503d2 	move	$r18,$r30
1c0085a4:	288003de 	ld.w	$r30,$r30,0
1c0085a8:	02bffe10 	addi.w	$r16,$r16,-1(0xfff)
1c0085ac:	58002880 	beq	$r4,$r0,40(0x28) # 1c0085d4 <core_bench_list+0x4e4>
1c0085b0:	29800092 	st.w	$r18,$r4,0
1c0085b4:	00150244 	move	$r4,$r18
1c0085b8:	5fff91a0 	bne	$r13,$r0,-112(0x3ff90) # 1c008548 <core_bench_list+0x458>
1c0085bc:	58005a00 	beq	$r16,$r0,88(0x58) # 1c008614 <core_bench_list+0x524>
1c0085c0:	580063c0 	beq	$r30,$r0,96(0x60) # 1c008620 <core_bench_list+0x530>
1c0085c4:	001503d2 	move	$r18,$r30
1c0085c8:	02bffe10 	addi.w	$r16,$r16,-1(0xfff)
1c0085cc:	288003de 	ld.w	$r30,$r30,0
1c0085d0:	5fffe080 	bne	$r4,$r0,-32(0x3ffe0) # 1c0085b0 <core_bench_list+0x4c0>
1c0085d4:	00150257 	move	$r23,$r18
1c0085d8:	00150244 	move	$r4,$r18
1c0085dc:	53ffdfff 	b	-36(0xfffffdc) # 1c0085b8 <core_bench_list+0x4c8>
1c0085e0:	2880138e 	ld.w	$r14,$r28,4(0x4)
1c0085e4:	28804065 	ld.w	$r5,$r3,16(0x10)
1c0085e8:	2a0001c1 	ld.bu	$r1,$r14,0
1c0085ec:	5bfd3825 	beq	$r1,$r5,-712(0x3fd38) # 1c008324 <core_bench_list+0x234>
1c0085f0:	2880039c 	ld.w	$r28,$r28,0
1c0085f4:	5fffef80 	bne	$r28,$r0,-20(0x3ffec) # 1c0085e0 <core_bench_list+0x4f0>
1c0085f8:	288002dc 	ld.w	$r28,$r22,0
1c0085fc:	5ffd2b80 	bne	$r28,$r0,-728(0x3fd28) # 1c008324 <core_bench_list+0x234>
1c008600:	53fe0fff 	b	-500(0xffffe0c) # 1c00840c <core_bench_list+0x31c>
1c008604:	001502d2 	move	$r18,$r22
1c008608:	02bffdad 	addi.w	$r13,$r13,-1(0xfff)
1c00860c:	288002d6 	ld.w	$r22,$r22,0
1c008610:	53ff9fff 	b	-100(0xfffff9c) # 1c0085ac <core_bench_list+0x4bc>
1c008614:	58000fc0 	beq	$r30,$r0,12(0xc) # 1c008620 <core_bench_list+0x530>
1c008618:	001503d6 	move	$r22,$r30
1c00861c:	53fe27ff 	b	-476(0xffffe24) # 1c008440 <core_bench_list+0x350>
1c008620:	29800080 	st.w	$r0,$r4,0
1c008624:	58008ca6 	beq	$r5,$r6,140(0x8c) # 1c0086b0 <core_bench_list+0x5c0>
1c008628:	00408694 	slli.w	$r20,$r20,0x1
1c00862c:	58007ee0 	beq	$r23,$r0,124(0x7c) # 1c0086a8 <core_bench_list+0x5b8>
1c008630:	001502fe 	move	$r30,$r23
1c008634:	00150005 	move	$r5,$r0
1c008638:	00150004 	move	$r4,$r0
1c00863c:	00150017 	move	$r23,$r0
1c008640:	001503d6 	move	$r22,$r30
1c008644:	53fdffff 	b	-516(0xffffdfc) # 1c008440 <core_bench_list+0x350>
1c008648:	58054ac0 	beq	$r22,$r0,1352(0x548) # 1c008b90 <core_bench_list+0xaa0>
1c00864c:	288012cd 	ld.w	$r13,$r22,4(0x4)
1c008650:	001502d7 	move	$r23,$r22
1c008654:	2a0001a8 	ld.bu	$r8,$r13,0
1c008658:	5c0019c8 	bne	$r14,$r8,24(0x18) # 1c008670 <core_bench_list+0x580>
1c00865c:	53fb33ff 	b	-1232(0xffffb30) # 1c00818c <core_bench_list+0x9c>
1c008660:	288012e9 	ld.w	$r9,$r23,4(0x4)
1c008664:	2880406b 	ld.w	$r11,$r3,16(0x10)
1c008668:	2a00012a 	ld.bu	$r10,$r9,0
1c00866c:	5bfb216a 	beq	$r11,$r10,-1248(0x3fb20) # 1c00818c <core_bench_list+0x9c>
1c008670:	288002f7 	ld.w	$r23,$r23,0
1c008674:	5fffeee0 	bne	$r23,$r0,-20(0x3ffec) # 1c008660 <core_bench_list+0x570>
1c008678:	53fb17ff 	b	-1260(0xffffb14) # 1c00818c <core_bench_list+0x9c>
1c00867c:	03400000 	andi	$r0,$r0,0x0
1c008680:	28801212 	ld.w	$r18,$r16,4(0x4)
1c008684:	028004d8 	addi.w	$r24,$r6,1(0x1)
1c008688:	29800078 	st.w	$r24,$r3,0
1c00868c:	28000659 	ld.b	$r25,$r18,1(0x1)
1c008690:	2a400066 	ld.hu	$r6,$r3,0
1c008694:	0340073b 	andi	$r27,$r25,0x1
1c008698:	00106cfc 	add.w	$r28,$r7,$r27
1c00869c:	2980007c 	st.w	$r28,$r3,0
1c0086a0:	2a400067 	ld.hu	$r7,$r3,0
1c0086a4:	53fbefff 	b	-1044(0xffffbec) # 1c008290 <core_bench_list+0x1a0>
1c0086a8:	298002e0 	st.w	$r0,$r23,0
1c0086ac:	002a0000 	break	0x0
1c0086b0:	288002fe 	ld.w	$r30,$r23,0
1c0086b4:	5800e7c0 	beq	$r30,$r0,228(0xe4) # 1c008798 <core_bench_list+0x6a8>
1c0086b8:	288012f6 	ld.w	$r22,$r23,4(0x4)
1c0086bc:	28807065 	ld.w	$r5,$r3,28(0x1c)
1c0086c0:	284002c4 	ld.h	$r4,$r22,0
1c0086c4:	57f35fff 	bl	-3236(0xffff35c) # 1c007a20 <crc16>
1c0086c8:	288003d8 	ld.w	$r24,$r30,0
1c0086cc:	29807064 	st.w	$r4,$r3,28(0x1c)
1c0086d0:	5800cb00 	beq	$r24,$r0,200(0xc8) # 1c008798 <core_bench_list+0x6a8>
1c0086d4:	288012e6 	ld.w	$r6,$r23,4(0x4)
1c0086d8:	00150085 	move	$r5,$r4
1c0086dc:	284000c4 	ld.h	$r4,$r6,0
1c0086e0:	57f343ff 	bl	-3264(0xffff340) # 1c007a20 <crc16>
1c0086e4:	28800319 	ld.w	$r25,$r24,0
1c0086e8:	29807064 	st.w	$r4,$r3,28(0x1c)
1c0086ec:	5800af20 	beq	$r25,$r0,172(0xac) # 1c008798 <core_bench_list+0x6a8>
1c0086f0:	288012ef 	ld.w	$r15,$r23,4(0x4)
1c0086f4:	00150085 	move	$r5,$r4
1c0086f8:	284001e4 	ld.h	$r4,$r15,0
1c0086fc:	57f327ff 	bl	-3292(0xffff324) # 1c007a20 <crc16>
1c008700:	2880033b 	ld.w	$r27,$r25,0
1c008704:	29807064 	st.w	$r4,$r3,28(0x1c)
1c008708:	58009360 	beq	$r27,$r0,144(0x90) # 1c008798 <core_bench_list+0x6a8>
1c00870c:	288012e7 	ld.w	$r7,$r23,4(0x4)
1c008710:	00150085 	move	$r5,$r4
1c008714:	284000e4 	ld.h	$r4,$r7,0
1c008718:	57f30bff 	bl	-3320(0xffff308) # 1c007a20 <crc16>
1c00871c:	2880037f 	ld.w	$r31,$r27,0
1c008720:	29807064 	st.w	$r4,$r3,28(0x1c)
1c008724:	580077e0 	beq	$r31,$r0,116(0x74) # 1c008798 <core_bench_list+0x6a8>
1c008728:	288012f0 	ld.w	$r16,$r23,4(0x4)
1c00872c:	00150085 	move	$r5,$r4
1c008730:	28400204 	ld.h	$r4,$r16,0
1c008734:	57f2efff 	bl	-3348(0xffff2ec) # 1c007a20 <crc16>
1c008738:	288003fc 	ld.w	$r28,$r31,0
1c00873c:	29807064 	st.w	$r4,$r3,28(0x1c)
1c008740:	58005b80 	beq	$r28,$r0,88(0x58) # 1c008798 <core_bench_list+0x6a8>
1c008744:	288012f1 	ld.w	$r17,$r23,4(0x4)
1c008748:	00150085 	move	$r5,$r4
1c00874c:	28400224 	ld.h	$r4,$r17,0
1c008750:	57f2d3ff 	bl	-3376(0xffff2d0) # 1c007a20 <crc16>
1c008754:	2880039a 	ld.w	$r26,$r28,0
1c008758:	29807064 	st.w	$r4,$r3,28(0x1c)
1c00875c:	58003f40 	beq	$r26,$r0,60(0x3c) # 1c008798 <core_bench_list+0x6a8>
1c008760:	288012f2 	ld.w	$r18,$r23,4(0x4)
1c008764:	00150085 	move	$r5,$r4
1c008768:	28400244 	ld.h	$r4,$r18,0
1c00876c:	57f2b7ff 	bl	-3404(0xffff2b4) # 1c007a20 <crc16>
1c008770:	2880035d 	ld.w	$r29,$r26,0
1c008774:	29807064 	st.w	$r4,$r3,28(0x1c)
1c008778:	580023a0 	beq	$r29,$r0,32(0x20) # 1c008798 <core_bench_list+0x6a8>
1c00877c:	288012f3 	ld.w	$r19,$r23,4(0x4)
1c008780:	00150085 	move	$r5,$r4
1c008784:	28400264 	ld.h	$r4,$r19,0
1c008788:	57f29bff 	bl	-3432(0xffff298) # 1c007a20 <crc16>
1c00878c:	288003be 	ld.w	$r30,$r29,0
1c008790:	29807064 	st.w	$r4,$r3,28(0x1c)
1c008794:	5fff27c0 	bne	$r30,$r0,-220(0x3ff24) # 1c0086b8 <core_bench_list+0x5c8>
1c008798:	28813061 	ld.w	$r1,$r3,76(0x4c)
1c00879c:	28812076 	ld.w	$r22,$r3,72(0x48)
1c0087a0:	28807064 	ld.w	$r4,$r3,28(0x1c)
1c0087a4:	28811077 	ld.w	$r23,$r3,68(0x44)
1c0087a8:	28810078 	ld.w	$r24,$r3,64(0x40)
1c0087ac:	2880f079 	ld.w	$r25,$r3,60(0x3c)
1c0087b0:	2880e07a 	ld.w	$r26,$r3,56(0x38)
1c0087b4:	2880d07b 	ld.w	$r27,$r3,52(0x34)
1c0087b8:	2880c07c 	ld.w	$r28,$r3,48(0x30)
1c0087bc:	2880b07d 	ld.w	$r29,$r3,44(0x2c)
1c0087c0:	2880a07e 	ld.w	$r30,$r3,40(0x28)
1c0087c4:	2880907f 	ld.w	$r31,$r3,36(0x24)
1c0087c8:	02814063 	addi.w	$r3,$r3,80(0x50)
1c0087cc:	4c000020 	jirl	$r0,$r1,0
1c0087d0:	29802065 	st.w	$r5,$r3,8(0x8)
1c0087d4:	29807060 	st.w	$r0,$r3,28(0x1c)
1c0087d8:	67fafc05 	bge	$r0,$r5,-1284(0x3fafc) # 1c0082d4 <core_bench_list+0x1e4>
1c0087dc:	5802a6c0 	beq	$r22,$r0,676(0x2a4) # 1c008a80 <core_bench_list+0x990>
1c0087e0:	02800405 	addi.w	$r5,$r0,1(0x1)
1c0087e4:	0280a3e8 	addi.w	$r8,$r31,40(0x28)
1c0087e8:	29801065 	st.w	$r5,$r3,4(0x4)
1c0087ec:	29805068 	st.w	$r8,$r3,20(0x14)
1c0087f0:	001502de 	move	$r30,$r22
1c0087f4:	00150019 	move	$r25,$r0
1c0087f8:	00150016 	move	$r22,$r0
1c0087fc:	29803060 	st.w	$r0,$r3,12(0xc)
1c008800:	28803064 	ld.w	$r4,$r3,12(0xc)
1c008804:	2880106d 	ld.w	$r13,$r3,4(0x4)
1c008808:	001503dd 	move	$r29,$r30
1c00880c:	02800489 	addi.w	$r9,$r4,1(0x1)
1c008810:	03401db4 	andi	$r20,$r13,0x7
1c008814:	29803069 	st.w	$r9,$r3,12(0xc)
1c008818:	0015001c 	move	$r28,$r0
1c00881c:	58009280 	beq	$r20,$r0,144(0x90) # 1c0088ac <core_bench_list+0x7bc>
1c008820:	0280040a 	addi.w	$r10,$r0,1(0x1)
1c008824:	5800768a 	beq	$r20,$r10,116(0x74) # 1c008898 <core_bench_list+0x7a8>
1c008828:	0280080b 	addi.w	$r11,$r0,2(0x2)
1c00882c:	5800628b 	beq	$r20,$r11,96(0x60) # 1c00888c <core_bench_list+0x79c>
1c008830:	02800c0f 	addi.w	$r15,$r0,3(0x3)
1c008834:	58004e8f 	beq	$r20,$r15,76(0x4c) # 1c008880 <core_bench_list+0x790>
1c008838:	02801007 	addi.w	$r7,$r0,4(0x4)
1c00883c:	58003a87 	beq	$r20,$r7,56(0x38) # 1c008874 <core_bench_list+0x784>
1c008840:	02801410 	addi.w	$r16,$r0,5(0x5)
1c008844:	58002690 	beq	$r20,$r16,36(0x24) # 1c008868 <core_bench_list+0x778>
1c008848:	02801811 	addi.w	$r17,$r0,6(0x6)
1c00884c:	58001291 	beq	$r20,$r17,16(0x10) # 1c00885c <core_bench_list+0x76c>
1c008850:	288003dd 	ld.w	$r29,$r30,0
1c008854:	0280041c 	addi.w	$r28,$r0,1(0x1)
1c008858:	5800bba0 	beq	$r29,$r0,184(0xb8) # 1c008910 <core_bench_list+0x820>
1c00885c:	288003bd 	ld.w	$r29,$r29,0
1c008860:	0280079c 	addi.w	$r28,$r28,1(0x1)
1c008864:	5800afa0 	beq	$r29,$r0,172(0xac) # 1c008910 <core_bench_list+0x820>
1c008868:	288003bd 	ld.w	$r29,$r29,0
1c00886c:	0280079c 	addi.w	$r28,$r28,1(0x1)
1c008870:	5800a3a0 	beq	$r29,$r0,160(0xa0) # 1c008910 <core_bench_list+0x820>
1c008874:	288003bd 	ld.w	$r29,$r29,0
1c008878:	0280079c 	addi.w	$r28,$r28,1(0x1)
1c00887c:	580097a0 	beq	$r29,$r0,148(0x94) # 1c008910 <core_bench_list+0x820>
1c008880:	288003bd 	ld.w	$r29,$r29,0
1c008884:	0280079c 	addi.w	$r28,$r28,1(0x1)
1c008888:	58008ba0 	beq	$r29,$r0,136(0x88) # 1c008910 <core_bench_list+0x820>
1c00888c:	288003bd 	ld.w	$r29,$r29,0
1c008890:	0280079c 	addi.w	$r28,$r28,1(0x1)
1c008894:	58007fa0 	beq	$r29,$r0,124(0x7c) # 1c008910 <core_bench_list+0x820>
1c008898:	288003bd 	ld.w	$r29,$r29,0
1c00889c:	0280079c 	addi.w	$r28,$r28,1(0x1)
1c0088a0:	580073a0 	beq	$r29,$r0,112(0x70) # 1c008910 <core_bench_list+0x820>
1c0088a4:	28801077 	ld.w	$r23,$r3,4(0x4)
1c0088a8:	58006b97 	beq	$r28,$r23,104(0x68) # 1c008910 <core_bench_list+0x820>
1c0088ac:	288003bd 	ld.w	$r29,$r29,0
1c0088b0:	0280079c 	addi.w	$r28,$r28,1(0x1)
1c0088b4:	00150392 	move	$r18,$r28
1c0088b8:	58005ba0 	beq	$r29,$r0,88(0x58) # 1c008910 <core_bench_list+0x820>
1c0088bc:	288003bd 	ld.w	$r29,$r29,0
1c0088c0:	0280079c 	addi.w	$r28,$r28,1(0x1)
1c0088c4:	58004fa0 	beq	$r29,$r0,76(0x4c) # 1c008910 <core_bench_list+0x820>
1c0088c8:	288003bd 	ld.w	$r29,$r29,0
1c0088cc:	02800a5c 	addi.w	$r28,$r18,2(0x2)
1c0088d0:	580043a0 	beq	$r29,$r0,64(0x40) # 1c008910 <core_bench_list+0x820>
1c0088d4:	288003bd 	ld.w	$r29,$r29,0
1c0088d8:	02800e5c 	addi.w	$r28,$r18,3(0x3)
1c0088dc:	580037a0 	beq	$r29,$r0,52(0x34) # 1c008910 <core_bench_list+0x820>
1c0088e0:	288003bd 	ld.w	$r29,$r29,0
1c0088e4:	0280125c 	addi.w	$r28,$r18,4(0x4)
1c0088e8:	58002ba0 	beq	$r29,$r0,40(0x28) # 1c008910 <core_bench_list+0x820>
1c0088ec:	288003bd 	ld.w	$r29,$r29,0
1c0088f0:	0280165c 	addi.w	$r28,$r18,5(0x5)
1c0088f4:	58001fa0 	beq	$r29,$r0,28(0x1c) # 1c008910 <core_bench_list+0x820>
1c0088f8:	288003bd 	ld.w	$r29,$r29,0
1c0088fc:	02801a5c 	addi.w	$r28,$r18,6(0x6)
1c008900:	580013a0 	beq	$r29,$r0,16(0x10) # 1c008910 <core_bench_list+0x820>
1c008904:	288003bd 	ld.w	$r29,$r29,0
1c008908:	02801e5c 	addi.w	$r28,$r18,7(0x7)
1c00890c:	5fff9ba0 	bne	$r29,$r0,-104(0x3ff98) # 1c0088a4 <core_bench_list+0x7b4>
1c008910:	2880107b 	ld.w	$r27,$r3,4(0x4)
1c008914:	58011380 	beq	$r28,$r0,272(0x110) # 1c008a24 <core_bench_list+0x934>
1c008918:	58013360 	beq	$r27,$r0,304(0x130) # 1c008a48 <core_bench_list+0x958>
1c00891c:	58012fa0 	beq	$r29,$r0,300(0x12c) # 1c008a48 <core_bench_list+0x958>
1c008920:	288013cf 	ld.w	$r15,$r30,4(0x4)
1c008924:	288013ba 	ld.w	$r26,$r29,4(0x4)
1c008928:	284001f8 	ld.h	$r24,$r15,0
1c00892c:	0342030d 	andi	$r13,$r24,0x80
1c008930:	0341ff17 	andi	$r23,$r24,0x7f
1c008934:	5c0061a0 	bne	$r13,$r0,96(0x60) # 1c008994 <core_bench_list+0x8a4>
1c008938:	00488f14 	srai.w	$r20,$r24,0x3
1c00893c:	03403e85 	andi	$r5,$r20,0xf
1c008940:	004090a6 	slli.w	$r6,$r5,0x4
1c008944:	03401f13 	andi	$r19,$r24,0x7
1c008948:	2a40e3e9 	ld.hu	$r9,$r31,56(0x38)
1c00894c:	001518a5 	or	$r5,$r5,$r6
1c008950:	5801f260 	beq	$r19,$r0,496(0x1f0) # 1c008b40 <core_bench_list+0xa50>
1c008954:	02800401 	addi.w	$r1,$r0,1(0x1)
1c008958:	5801ba61 	beq	$r19,$r1,440(0x1b8) # 1c008b10 <core_bench_list+0xa20>
1c00895c:	29800078 	st.w	$r24,$r3,0
1c008960:	2a400064 	ld.hu	$r4,$r3,0
1c008964:	0015030b 	move	$r11,$r24
1c008968:	00150125 	move	$r5,$r9
1c00896c:	0341fd77 	andi	$r23,$r11,0x7f
1c008970:	2980006f 	st.w	$r15,$r3,0
1c008974:	57e8ffff 	bl	-5892(0xfffe8fc) # 1c007270 <crcu16>
1c008978:	02bc0009 	addi.w	$r9,$r0,-256(0xf00)
1c00897c:	0014a707 	and	$r7,$r24,$r9
1c008980:	28800070 	ld.w	$r16,$r3,0
1c008984:	00151ef1 	or	$r17,$r23,$r7
1c008988:	2940e3e4 	st.h	$r4,$r31,56(0x38)
1c00898c:	03820232 	ori	$r18,$r17,0x80
1c008990:	29400212 	st.h	$r18,$r16,0
1c008994:	28400348 	ld.h	$r8,$r26,0
1c008998:	03420104 	andi	$r4,$r8,0x80
1c00899c:	0341fd0b 	andi	$r11,$r8,0x7f
1c0089a0:	5c006080 	bne	$r4,$r0,96(0x60) # 1c008a00 <core_bench_list+0x910>
1c0089a4:	00488d18 	srai.w	$r24,$r8,0x3
1c0089a8:	03403f13 	andi	$r19,$r24,0xf
1c0089ac:	00409274 	slli.w	$r20,$r19,0x4
1c0089b0:	03401d0d 	andi	$r13,$r8,0x7
1c0089b4:	2a40e3e9 	ld.hu	$r9,$r31,56(0x38)
1c0089b8:	00155265 	or	$r5,$r19,$r20
1c0089bc:	580105a0 	beq	$r13,$r0,260(0x104) # 1c008ac0 <core_bench_list+0x9d0>
1c0089c0:	0280040e 	addi.w	$r14,$r0,1(0x1)
1c0089c4:	5800cdae 	beq	$r13,$r14,204(0xcc) # 1c008a90 <core_bench_list+0x9a0>
1c0089c8:	29800068 	st.w	$r8,$r3,0
1c0089cc:	2a400064 	ld.hu	$r4,$r3,0
1c0089d0:	00150118 	move	$r24,$r8
1c0089d4:	00150125 	move	$r5,$r9
1c0089d8:	29800068 	st.w	$r8,$r3,0
1c0089dc:	57e897ff 	bl	-5996(0xfffe894) # 1c007270 <crcu16>
1c0089e0:	2880006f 	ld.w	$r15,$r3,0
1c0089e4:	02bc0009 	addi.w	$r9,$r0,-256(0xf00)
1c0089e8:	0341ff0b 	andi	$r11,$r24,0x7f
1c0089ec:	0014a5e7 	and	$r7,$r15,$r9
1c0089f0:	00151d71 	or	$r17,$r11,$r7
1c0089f4:	2940e3e4 	st.h	$r4,$r31,56(0x38)
1c0089f8:	03820232 	ori	$r18,$r17,0x80
1c0089fc:	29400352 	st.h	$r18,$r26,0
1c008a00:	00112efa 	sub.w	$r26,$r23,$r11
1c008a04:	6400441a 	bge	$r0,$r26,68(0x44) # 1c008a48 <core_bench_list+0x958>
1c008a08:	001503a1 	move	$r1,$r29
1c008a0c:	288003bd 	ld.w	$r29,$r29,0
1c008a10:	02bfff7b 	addi.w	$r27,$r27,-1(0xfff)
1c008a14:	58002b20 	beq	$r25,$r0,40(0x28) # 1c008a3c <core_bench_list+0x94c>
1c008a18:	29800321 	st.w	$r1,$r25,0
1c008a1c:	00150039 	move	$r25,$r1
1c008a20:	5ffefb80 	bne	$r28,$r0,-264(0x3fef8) # 1c008918 <core_bench_list+0x828>
1c008a24:	58003760 	beq	$r27,$r0,52(0x34) # 1c008a58 <core_bench_list+0x968>
1c008a28:	58003ba0 	beq	$r29,$r0,56(0x38) # 1c008a60 <core_bench_list+0x970>
1c008a2c:	001503a1 	move	$r1,$r29
1c008a30:	02bfff7b 	addi.w	$r27,$r27,-1(0xfff)
1c008a34:	288003bd 	ld.w	$r29,$r29,0
1c008a38:	5fffe320 	bne	$r25,$r0,-32(0x3ffe0) # 1c008a18 <core_bench_list+0x928>
1c008a3c:	00150036 	move	$r22,$r1
1c008a40:	00150039 	move	$r25,$r1
1c008a44:	53ffdfff 	b	-36(0xfffffdc) # 1c008a20 <core_bench_list+0x930>
1c008a48:	001503c1 	move	$r1,$r30
1c008a4c:	02bfff9c 	addi.w	$r28,$r28,-1(0xfff)
1c008a50:	288003de 	ld.w	$r30,$r30,0
1c008a54:	53ffc3ff 	b	-64(0xfffffc0) # 1c008a14 <core_bench_list+0x924>
1c008a58:	001503be 	move	$r30,$r29
1c008a5c:	5ffda7a0 	bne	$r29,$r0,-604(0x3fda4) # 1c008800 <core_bench_list+0x710>
1c008a60:	29800320 	st.w	$r0,$r25,0
1c008a64:	28803079 	ld.w	$r25,$r3,12(0xc)
1c008a68:	02800418 	addi.w	$r24,$r0,1(0x1)
1c008a6c:	5bf86b38 	beq	$r25,$r24,-1944(0x3f868) # 1c0082d4 <core_bench_list+0x1e4>
1c008a70:	2880107b 	ld.w	$r27,$r3,4(0x4)
1c008a74:	0040876c 	slli.w	$r12,$r27,0x1
1c008a78:	2980106c 	st.w	$r12,$r3,4(0x4)
1c008a7c:	5ffd76c0 	bne	$r22,$r0,-652(0x3fd74) # 1c0087f0 <core_bench_list+0x700>
1c008a80:	00150016 	move	$r22,$r0
1c008a84:	298002c0 	st.w	$r0,$r22,0
1c008a88:	002a0000 	break	0x0
1c008a8c:	03400000 	andi	$r0,$r0,0x0
1c008a90:	28805064 	ld.w	$r4,$r3,20(0x14)
1c008a94:	00150126 	move	$r6,$r9
1c008a98:	29806068 	st.w	$r8,$r3,24(0x18)
1c008a9c:	5789e7ff 	bl	-30236(0xfff89e4) # 1c001480 <core_bench_matrix>
1c008aa0:	2a40f3ea 	ld.hu	$r10,$r31,60(0x3c)
1c008aa4:	29800064 	st.w	$r4,$r3,0
1c008aa8:	28400078 	ld.h	$r24,$r3,0
1c008aac:	28806068 	ld.w	$r8,$r3,24(0x18)
1c008ab0:	2a40e3e9 	ld.hu	$r9,$r31,56(0x38)
1c008ab4:	5fff2140 	bne	$r10,$r0,-224(0x3ff20) # 1c0089d4 <core_bench_list+0x8e4>
1c008ab8:	2940f3e4 	st.h	$r4,$r31,60(0x3c)
1c008abc:	53ff1bff 	b	-232(0xfffff18) # 1c0089d4 <core_bench_list+0x8e4>
1c008ac0:	02808806 	addi.w	$r6,$r0,34(0x22)
1c008ac4:	001500ac 	move	$r12,$r5
1c008ac8:	640008a6 	bge	$r5,$r6,8(0x8) # 1c008ad0 <core_bench_list+0x9e0>
1c008acc:	0280880c 	addi.w	$r12,$r0,34(0x22)
1c008ad0:	2940006c 	st.h	$r12,$r3,0
1c008ad4:	29806068 	st.w	$r8,$r3,24(0x18)
1c008ad8:	288053e5 	ld.w	$r5,$r31,20(0x14)
1c008adc:	288063e4 	ld.w	$r4,$r31,24(0x18)
1c008ae0:	28400068 	ld.h	$r8,$r3,0
1c008ae4:	28400be7 	ld.h	$r7,$r31,2(0x2)
1c008ae8:	284003e6 	ld.h	$r6,$r31,0
1c008aec:	57d147ff 	bl	-11964(0xfffd144) # 1c005c30 <core_bench_state>
1c008af0:	2a40fbe5 	ld.hu	$r5,$r31,62(0x3e)
1c008af4:	29800064 	st.w	$r4,$r3,0
1c008af8:	28400078 	ld.h	$r24,$r3,0
1c008afc:	28806068 	ld.w	$r8,$r3,24(0x18)
1c008b00:	5c0008a0 	bne	$r5,$r0,8(0x8) # 1c008b08 <core_bench_list+0xa18>
1c008b04:	2940fbe4 	st.h	$r4,$r31,62(0x3e)
1c008b08:	2a40e3e9 	ld.hu	$r9,$r31,56(0x38)
1c008b0c:	53fecbff 	b	-312(0xffffec8) # 1c0089d4 <core_bench_list+0x8e4>
1c008b10:	28805064 	ld.w	$r4,$r3,20(0x14)
1c008b14:	00150126 	move	$r6,$r9
1c008b18:	2980606f 	st.w	$r15,$r3,24(0x18)
1c008b1c:	578967ff 	bl	-30364(0xfff8964) # 1c001480 <core_bench_matrix>
1c008b20:	2a40f3e8 	ld.hu	$r8,$r31,60(0x3c)
1c008b24:	29800064 	st.w	$r4,$r3,0
1c008b28:	2840006b 	ld.h	$r11,$r3,0
1c008b2c:	2880606f 	ld.w	$r15,$r3,24(0x18)
1c008b30:	2a40e3e9 	ld.hu	$r9,$r31,56(0x38)
1c008b34:	5ffe3500 	bne	$r8,$r0,-460(0x3fe34) # 1c008968 <core_bench_list+0x878>
1c008b38:	2940f3e4 	st.h	$r4,$r31,60(0x3c)
1c008b3c:	53fe2fff 	b	-468(0xffffe2c) # 1c008968 <core_bench_list+0x878>
1c008b40:	0280880c 	addi.w	$r12,$r0,34(0x22)
1c008b44:	001500ae 	move	$r14,$r5
1c008b48:	640008ac 	bge	$r5,$r12,8(0x8) # 1c008b50 <core_bench_list+0xa60>
1c008b4c:	0280880e 	addi.w	$r14,$r0,34(0x22)
1c008b50:	2940006e 	st.h	$r14,$r3,0
1c008b54:	28400068 	ld.h	$r8,$r3,0
1c008b58:	28400be7 	ld.h	$r7,$r31,2(0x2)
1c008b5c:	284003e6 	ld.h	$r6,$r31,0
1c008b60:	288053e5 	ld.w	$r5,$r31,20(0x14)
1c008b64:	288063e4 	ld.w	$r4,$r31,24(0x18)
1c008b68:	2980606f 	st.w	$r15,$r3,24(0x18)
1c008b6c:	57d0c7ff 	bl	-12092(0xfffd0c4) # 1c005c30 <core_bench_state>
1c008b70:	2a40fbea 	ld.hu	$r10,$r31,62(0x3e)
1c008b74:	29800064 	st.w	$r4,$r3,0
1c008b78:	2840006b 	ld.h	$r11,$r3,0
1c008b7c:	2880606f 	ld.w	$r15,$r3,24(0x18)
1c008b80:	5c000940 	bne	$r10,$r0,8(0x8) # 1c008b88 <core_bench_list+0xa98>
1c008b84:	2940fbe4 	st.h	$r4,$r31,62(0x3e)
1c008b88:	2a40e3e9 	ld.hu	$r9,$r31,56(0x38)
1c008b8c:	53fddfff 	b	-548(0xffffddc) # 1c008968 <core_bench_list+0x878>
1c008b90:	00150004 	move	$r4,$r0
1c008b94:	2880008c 	ld.w	$r12,$r4,0
1c008b98:	002a0000 	break	0x0
1c008b9c:	03400000 	andi	$r0,$r0,0x0

1c008ba0 <core_list_init>:
core_list_init():
1c008ba0:	0280500d 	addi.w	$r13,$r0,20(0x14)
1c008ba4:	0021348e 	div.wu	$r14,$r4,$r13
1c008ba8:	5c0009a0 	bne	$r13,$r0,8(0x8) # 1c008bb0 <core_list_init+0x10>
1c008bac:	002a0007 	break	0x7
1c008bb0:	02bff9c4 	addi.w	$r4,$r14,-2(0xffe)
1c008bb4:	00408c90 	slli.w	$r16,$r4,0x3
1c008bb8:	001040a9 	add.w	$r9,$r5,$r16
1c008bbc:	15ffff0c 	lu12i.w	$r12,-8(0xffff8)
1c008bc0:	298000a0 	st.w	$r0,$r5,0
1c008bc4:	03820187 	ori	$r7,$r12,0x80
1c008bc8:	298010a9 	st.w	$r9,$r5,4(0x4)
1c008bcc:	00408892 	slli.w	$r18,$r4,0x2
1c008bd0:	028040ad 	addi.w	$r13,$r5,16(0x10)
1c008bd4:	29400920 	st.h	$r0,$r9,2(0x2)
1c008bd8:	29400127 	st.h	$r7,$r9,0
1c008bdc:	02bfc063 	addi.w	$r3,$r3,-16(0xff0)
1c008be0:	028020ac 	addi.w	$r12,$r5,8(0x8)
1c008be4:	0010492a 	add.w	$r10,$r9,$r18
1c008be8:	02801131 	addi.w	$r17,$r9,4(0x4)
1c008bec:	6c0535a9 	bgeu	$r13,$r9,1332(0x534) # 1c009120 <core_list_init+0x580>
1c008bf0:	0280212e 	addi.w	$r14,$r9,8(0x8)
1c008bf4:	6c052dca 	bgeu	$r14,$r10,1324(0x52c) # 1c009120 <core_list_init+0x580>
1c008bf8:	140000ef 	lu12i.w	$r15,7(0x7)
1c008bfc:	298020a0 	st.w	$r0,$r5,8(0x8)
1c008c00:	298000ac 	st.w	$r12,$r5,0
1c008c04:	298030b1 	st.w	$r17,$r5,12(0xc)
1c008c08:	02bffc08 	addi.w	$r8,$r0,-1(0xfff)
1c008c0c:	03bffdeb 	ori	$r11,$r15,0xfff
1c008c10:	29401128 	st.h	$r8,$r9,4(0x4)
1c008c14:	2940192b 	st.h	$r11,$r9,6(0x6)
1c008c18:	58028c80 	beq	$r4,$r0,652(0x28c) # 1c008ea4 <core_list_init+0x304>
1c008c1c:	140000f3 	lu12i.w	$r19,7(0x7)
1c008c20:	29803066 	st.w	$r6,$r3,12(0xc)
1c008c24:	03400c90 	andi	$r16,$r4,0x3
1c008c28:	2a403074 	ld.hu	$r20,$r3,12(0xc)
1c008c2c:	0015000f 	move	$r15,$r0
1c008c30:	03bffe72 	ori	$r18,$r19,0xfff
1c008c34:	58010e00 	beq	$r16,$r0,268(0x10c) # 1c008d40 <core_list_init+0x1a0>
1c008c38:	02800407 	addi.w	$r7,$r0,1(0x1)
1c008c3c:	5800aa07 	beq	$r16,$r7,168(0xa8) # 1c008ce4 <core_list_init+0x144>
1c008c40:	02800811 	addi.w	$r17,$r0,2(0x2)
1c008c44:	58004a11 	beq	$r16,$r17,72(0x48) # 1c008c8c <core_list_init+0xec>
1c008c48:	028021ab 	addi.w	$r11,$r13,8(0x8)
1c008c4c:	6c003d69 	bgeu	$r11,$r9,60(0x3c) # 1c008c88 <core_list_init+0xe8>
1c008c50:	028011c8 	addi.w	$r8,$r14,4(0x4)
1c008c54:	6c00350a 	bgeu	$r8,$r10,52(0x34) # 1c008c88 <core_list_init+0xe8>
1c008c58:	00408e8f 	slli.w	$r15,$r20,0x3
1c008c5c:	298001ac 	st.w	$r12,$r13,0
1c008c60:	0341e1f3 	andi	$r19,$r15,0x78
1c008c64:	298000ad 	st.w	$r13,$r5,0
1c008c68:	0040a270 	slli.w	$r16,$r19,0x8
1c008c6c:	298011ae 	st.w	$r14,$r13,4(0x4)
1c008c70:	00154e07 	or	$r7,$r16,$r19
1c008c74:	001501ac 	move	$r12,$r13
1c008c78:	294009d2 	st.h	$r18,$r14,2(0x2)
1c008c7c:	294001c7 	st.h	$r7,$r14,0
1c008c80:	0015016d 	move	$r13,$r11
1c008c84:	0015010e 	move	$r14,$r8
1c008c88:	0280040f 	addi.w	$r15,$r0,1(0x1)
1c008c8c:	028021b1 	addi.w	$r17,$r13,8(0x8)
1c008c90:	6c005229 	bgeu	$r17,$r9,80(0x50) # 1c008ce0 <core_list_init+0x140>
1c008c94:	028011cb 	addi.w	$r11,$r14,4(0x4)
1c008c98:	6c00496a 	bgeu	$r11,$r10,72(0x48) # 1c008ce0 <core_list_init+0x140>
1c008c9c:	2980306f 	st.w	$r15,$r3,12(0xc)
1c008ca0:	2a403068 	ld.hu	$r8,$r3,12(0xc)
1c008ca4:	298001ac 	st.w	$r12,$r13,0
1c008ca8:	298000ad 	st.w	$r13,$r5,0
1c008cac:	0015d113 	xor	$r19,$r8,$r20
1c008cb0:	00408e67 	slli.w	$r7,$r19,0x3
1c008cb4:	298011ae 	st.w	$r14,$r13,4(0x4)
1c008cb8:	03401d10 	andi	$r16,$r8,0x7
1c008cbc:	001501ac 	move	$r12,$r13
1c008cc0:	0015022d 	move	$r13,$r17
1c008cc4:	0341e0f1 	andi	$r17,$r7,0x78
1c008cc8:	00154228 	or	$r8,$r17,$r16
1c008ccc:	0040a113 	slli.w	$r19,$r8,0x8
1c008cd0:	00152270 	or	$r16,$r19,$r8
1c008cd4:	294009d2 	st.h	$r18,$r14,2(0x2)
1c008cd8:	294001d0 	st.h	$r16,$r14,0
1c008cdc:	0015016e 	move	$r14,$r11
1c008ce0:	028005ef 	addi.w	$r15,$r15,1(0x1)
1c008ce4:	028021ab 	addi.w	$r11,$r13,8(0x8)
1c008ce8:	6c005169 	bgeu	$r11,$r9,80(0x50) # 1c008d38 <core_list_init+0x198>
1c008cec:	028011c8 	addi.w	$r8,$r14,4(0x4)
1c008cf0:	6c00490a 	bgeu	$r8,$r10,72(0x48) # 1c008d38 <core_list_init+0x198>
1c008cf4:	2980306f 	st.w	$r15,$r3,12(0xc)
1c008cf8:	2a403067 	ld.hu	$r7,$r3,12(0xc)
1c008cfc:	298001ac 	st.w	$r12,$r13,0
1c008d00:	298000ad 	st.w	$r13,$r5,0
1c008d04:	0015d0f1 	xor	$r17,$r7,$r20
1c008d08:	00408e30 	slli.w	$r16,$r17,0x3
1c008d0c:	298011ae 	st.w	$r14,$r13,4(0x4)
1c008d10:	03401cf3 	andi	$r19,$r7,0x7
1c008d14:	001501ac 	move	$r12,$r13
1c008d18:	0015016d 	move	$r13,$r11
1c008d1c:	0341e20b 	andi	$r11,$r16,0x78
1c008d20:	00154d71 	or	$r17,$r11,$r19
1c008d24:	0040a227 	slli.w	$r7,$r17,0x8
1c008d28:	001544f3 	or	$r19,$r7,$r17
1c008d2c:	294009d2 	st.h	$r18,$r14,2(0x2)
1c008d30:	294001d3 	st.h	$r19,$r14,0
1c008d34:	0015010e 	move	$r14,$r8
1c008d38:	028005ef 	addi.w	$r15,$r15,1(0x1)
1c008d3c:	5801688f 	beq	$r4,$r15,360(0x168) # 1c008ea4 <core_list_init+0x304>
1c008d40:	028021b0 	addi.w	$r16,$r13,8(0x8)
1c008d44:	6c005209 	bgeu	$r16,$r9,80(0x50) # 1c008d94 <core_list_init+0x1f4>
1c008d48:	028011c8 	addi.w	$r8,$r14,4(0x4)
1c008d4c:	6c00490a 	bgeu	$r8,$r10,72(0x48) # 1c008d94 <core_list_init+0x1f4>
1c008d50:	2980306f 	st.w	$r15,$r3,12(0xc)
1c008d54:	2a40306b 	ld.hu	$r11,$r3,12(0xc)
1c008d58:	298001ac 	st.w	$r12,$r13,0
1c008d5c:	298000ad 	st.w	$r13,$r5,0
1c008d60:	0015d171 	xor	$r17,$r11,$r20
1c008d64:	00408e33 	slli.w	$r19,$r17,0x3
1c008d68:	298011ae 	st.w	$r14,$r13,4(0x4)
1c008d6c:	03401d67 	andi	$r7,$r11,0x7
1c008d70:	001501ac 	move	$r12,$r13
1c008d74:	0015020d 	move	$r13,$r16
1c008d78:	0341e270 	andi	$r16,$r19,0x78
1c008d7c:	00151e0b 	or	$r11,$r16,$r7
1c008d80:	0040a171 	slli.w	$r17,$r11,0x8
1c008d84:	00152e27 	or	$r7,$r17,$r11
1c008d88:	294009d2 	st.h	$r18,$r14,2(0x2)
1c008d8c:	294001c7 	st.h	$r7,$r14,0
1c008d90:	0015010e 	move	$r14,$r8
1c008d94:	028021b3 	addi.w	$r19,$r13,8(0x8)
1c008d98:	028005ef 	addi.w	$r15,$r15,1(0x1)
1c008d9c:	6c005269 	bgeu	$r19,$r9,80(0x50) # 1c008dec <core_list_init+0x24c>
1c008da0:	028011c8 	addi.w	$r8,$r14,4(0x4)
1c008da4:	6c00490a 	bgeu	$r8,$r10,72(0x48) # 1c008dec <core_list_init+0x24c>
1c008da8:	2980306f 	st.w	$r15,$r3,12(0xc)
1c008dac:	2a403070 	ld.hu	$r16,$r3,12(0xc)
1c008db0:	298001ac 	st.w	$r12,$r13,0
1c008db4:	298000ad 	st.w	$r13,$r5,0
1c008db8:	0015d20b 	xor	$r11,$r16,$r20
1c008dbc:	00408d71 	slli.w	$r17,$r11,0x3
1c008dc0:	298011ae 	st.w	$r14,$r13,4(0x4)
1c008dc4:	03401e07 	andi	$r7,$r16,0x7
1c008dc8:	001501ac 	move	$r12,$r13
1c008dcc:	0015026d 	move	$r13,$r19
1c008dd0:	0341e233 	andi	$r19,$r17,0x78
1c008dd4:	00151e70 	or	$r16,$r19,$r7
1c008dd8:	0040a20b 	slli.w	$r11,$r16,0x8
1c008ddc:	00154167 	or	$r7,$r11,$r16
1c008de0:	294009d2 	st.h	$r18,$r14,2(0x2)
1c008de4:	294001c7 	st.h	$r7,$r14,0
1c008de8:	0015010e 	move	$r14,$r8
1c008dec:	028021b1 	addi.w	$r17,$r13,8(0x8)
1c008df0:	028005f3 	addi.w	$r19,$r15,1(0x1)
1c008df4:	6c005229 	bgeu	$r17,$r9,80(0x50) # 1c008e44 <core_list_init+0x2a4>
1c008df8:	028011c8 	addi.w	$r8,$r14,4(0x4)
1c008dfc:	6c00490a 	bgeu	$r8,$r10,72(0x48) # 1c008e44 <core_list_init+0x2a4>
1c008e00:	29803073 	st.w	$r19,$r3,12(0xc)
1c008e04:	2a403070 	ld.hu	$r16,$r3,12(0xc)
1c008e08:	298001ac 	st.w	$r12,$r13,0
1c008e0c:	298000ad 	st.w	$r13,$r5,0
1c008e10:	0015d20b 	xor	$r11,$r16,$r20
1c008e14:	298011ae 	st.w	$r14,$r13,4(0x4)
1c008e18:	001501ac 	move	$r12,$r13
1c008e1c:	0015022d 	move	$r13,$r17
1c008e20:	00408d71 	slli.w	$r17,$r11,0x3
1c008e24:	03401e07 	andi	$r7,$r16,0x7
1c008e28:	0341e233 	andi	$r19,$r17,0x78
1c008e2c:	00151e70 	or	$r16,$r19,$r7
1c008e30:	0040a20b 	slli.w	$r11,$r16,0x8
1c008e34:	00154167 	or	$r7,$r11,$r16
1c008e38:	294009d2 	st.h	$r18,$r14,2(0x2)
1c008e3c:	294001c7 	st.h	$r7,$r14,0
1c008e40:	0015010e 	move	$r14,$r8
1c008e44:	028021b1 	addi.w	$r17,$r13,8(0x8)
1c008e48:	028009f3 	addi.w	$r19,$r15,2(0x2)
1c008e4c:	6c005229 	bgeu	$r17,$r9,80(0x50) # 1c008e9c <core_list_init+0x2fc>
1c008e50:	028011c8 	addi.w	$r8,$r14,4(0x4)
1c008e54:	6c00490a 	bgeu	$r8,$r10,72(0x48) # 1c008e9c <core_list_init+0x2fc>
1c008e58:	29803073 	st.w	$r19,$r3,12(0xc)
1c008e5c:	2a403070 	ld.hu	$r16,$r3,12(0xc)
1c008e60:	298001ac 	st.w	$r12,$r13,0
1c008e64:	298000ad 	st.w	$r13,$r5,0
1c008e68:	0015d20b 	xor	$r11,$r16,$r20
1c008e6c:	298011ae 	st.w	$r14,$r13,4(0x4)
1c008e70:	001501ac 	move	$r12,$r13
1c008e74:	0015022d 	move	$r13,$r17
1c008e78:	00408d71 	slli.w	$r17,$r11,0x3
1c008e7c:	03401e07 	andi	$r7,$r16,0x7
1c008e80:	0341e233 	andi	$r19,$r17,0x78
1c008e84:	00151e70 	or	$r16,$r19,$r7
1c008e88:	0040a20b 	slli.w	$r11,$r16,0x8
1c008e8c:	00154167 	or	$r7,$r11,$r16
1c008e90:	294009d2 	st.h	$r18,$r14,2(0x2)
1c008e94:	294001c7 	st.h	$r7,$r14,0
1c008e98:	0015010e 	move	$r14,$r8
1c008e9c:	02800def 	addi.w	$r15,$r15,3(0x3)
1c008ea0:	5ffea08f 	bne	$r4,$r15,-352(0x3fea0) # 1c008d40 <core_list_init+0x1a0>
1c008ea4:	28800189 	ld.w	$r9,$r12,0
1c008ea8:	58003d20 	beq	$r9,$r0,60(0x3c) # 1c008ee4 <core_list_init+0x344>
1c008eac:	1400006a 	lu12i.w	$r10,3(0x3)
1c008eb0:	02801414 	addi.w	$r20,$r0,5(0x5)
1c008eb4:	02800413 	addi.w	$r19,$r0,1(0x1)
1c008eb8:	00215091 	div.wu	$r17,$r4,$r20
1c008ebc:	5c000a80 	bne	$r20,$r0,8(0x8) # 1c008ec4 <core_list_init+0x324>
1c008ec0:	002a0007 	break	0x7
1c008ec4:	03bffd48 	ori	$r8,$r10,0xfff
1c008ec8:	28801184 	ld.w	$r4,$r12,4(0x4)
1c008ecc:	2880018c 	ld.w	$r12,$r12,0
1c008ed0:	6c020a71 	bgeu	$r19,$r17,520(0x208) # 1c0090d8 <core_list_init+0x538>
1c008ed4:	2880018a 	ld.w	$r10,$r12,0
1c008ed8:	29400893 	st.h	$r19,$r4,2(0x2)
1c008edc:	02800673 	addi.w	$r19,$r19,1(0x1)
1c008ee0:	5fffe940 	bne	$r10,$r0,-24(0x3ffe8) # 1c008ec8 <core_list_init+0x328>
1c008ee4:	02800411 	addi.w	$r17,$r0,1(0x1)
1c008ee8:	02bc0008 	addi.w	$r8,$r0,-256(0xf00)
1c008eec:	02800409 	addi.w	$r9,$r0,1(0x1)
1c008ef0:	001500ae 	move	$r14,$r5
1c008ef4:	00150012 	move	$r18,$r0
1c008ef8:	00150005 	move	$r5,$r0
1c008efc:	00150007 	move	$r7,$r0
1c008f00:	03401e26 	andi	$r6,$r17,0x7
1c008f04:	028004e7 	addi.w	$r7,$r7,1(0x1)
1c008f08:	001501cc 	move	$r12,$r14
1c008f0c:	0015000d 	move	$r13,$r0
1c008f10:	58008cc0 	beq	$r6,$r0,140(0x8c) # 1c008f9c <core_list_init+0x3fc>
1c008f14:	02800414 	addi.w	$r20,$r0,1(0x1)
1c008f18:	580074d4 	beq	$r6,$r20,116(0x74) # 1c008f8c <core_list_init+0x3ec>
1c008f1c:	02800804 	addi.w	$r4,$r0,2(0x2)
1c008f20:	580060c4 	beq	$r6,$r4,96(0x60) # 1c008f80 <core_list_init+0x3e0>
1c008f24:	02800c13 	addi.w	$r19,$r0,3(0x3)
1c008f28:	58004cd3 	beq	$r6,$r19,76(0x4c) # 1c008f74 <core_list_init+0x3d4>
1c008f2c:	02801010 	addi.w	$r16,$r0,4(0x4)
1c008f30:	580038d0 	beq	$r6,$r16,56(0x38) # 1c008f68 <core_list_init+0x3c8>
1c008f34:	0280140b 	addi.w	$r11,$r0,5(0x5)
1c008f38:	580024cb 	beq	$r6,$r11,36(0x24) # 1c008f5c <core_list_init+0x3bc>
1c008f3c:	0280180f 	addi.w	$r15,$r0,6(0x6)
1c008f40:	580010cf 	beq	$r6,$r15,16(0x10) # 1c008f50 <core_list_init+0x3b0>
1c008f44:	288001cc 	ld.w	$r12,$r14,0
1c008f48:	0280040d 	addi.w	$r13,$r0,1(0x1)
1c008f4c:	5800b580 	beq	$r12,$r0,180(0xb4) # 1c009000 <core_list_init+0x460>
1c008f50:	2880018c 	ld.w	$r12,$r12,0
1c008f54:	028005ad 	addi.w	$r13,$r13,1(0x1)
1c008f58:	5800a980 	beq	$r12,$r0,168(0xa8) # 1c009000 <core_list_init+0x460>
1c008f5c:	2880018c 	ld.w	$r12,$r12,0
1c008f60:	028005ad 	addi.w	$r13,$r13,1(0x1)
1c008f64:	58009d80 	beq	$r12,$r0,156(0x9c) # 1c009000 <core_list_init+0x460>
1c008f68:	2880018c 	ld.w	$r12,$r12,0
1c008f6c:	028005ad 	addi.w	$r13,$r13,1(0x1)
1c008f70:	58009180 	beq	$r12,$r0,144(0x90) # 1c009000 <core_list_init+0x460>
1c008f74:	2880018c 	ld.w	$r12,$r12,0
1c008f78:	028005ad 	addi.w	$r13,$r13,1(0x1)
1c008f7c:	58008580 	beq	$r12,$r0,132(0x84) # 1c009000 <core_list_init+0x460>
1c008f80:	2880018c 	ld.w	$r12,$r12,0
1c008f84:	028005ad 	addi.w	$r13,$r13,1(0x1)
1c008f88:	58007980 	beq	$r12,$r0,120(0x78) # 1c009000 <core_list_init+0x460>
1c008f8c:	2880018c 	ld.w	$r12,$r12,0
1c008f90:	028005ad 	addi.w	$r13,$r13,1(0x1)
1c008f94:	58006d80 	beq	$r12,$r0,108(0x6c) # 1c009000 <core_list_init+0x460>
1c008f98:	580069b1 	beq	$r13,$r17,104(0x68) # 1c009000 <core_list_init+0x460>
1c008f9c:	2880018c 	ld.w	$r12,$r12,0
1c008fa0:	028005ad 	addi.w	$r13,$r13,1(0x1)
1c008fa4:	001501aa 	move	$r10,$r13
1c008fa8:	58005980 	beq	$r12,$r0,88(0x58) # 1c009000 <core_list_init+0x460>
1c008fac:	2880018c 	ld.w	$r12,$r12,0
1c008fb0:	028005ad 	addi.w	$r13,$r13,1(0x1)
1c008fb4:	58004d80 	beq	$r12,$r0,76(0x4c) # 1c009000 <core_list_init+0x460>
1c008fb8:	2880018c 	ld.w	$r12,$r12,0
1c008fbc:	0280094d 	addi.w	$r13,$r10,2(0x2)
1c008fc0:	58004180 	beq	$r12,$r0,64(0x40) # 1c009000 <core_list_init+0x460>
1c008fc4:	2880018c 	ld.w	$r12,$r12,0
1c008fc8:	02800d4d 	addi.w	$r13,$r10,3(0x3)
1c008fcc:	58003580 	beq	$r12,$r0,52(0x34) # 1c009000 <core_list_init+0x460>
1c008fd0:	2880018c 	ld.w	$r12,$r12,0
1c008fd4:	0280114d 	addi.w	$r13,$r10,4(0x4)
1c008fd8:	58002980 	beq	$r12,$r0,40(0x28) # 1c009000 <core_list_init+0x460>
1c008fdc:	2880018c 	ld.w	$r12,$r12,0
1c008fe0:	0280154d 	addi.w	$r13,$r10,5(0x5)
1c008fe4:	58001d80 	beq	$r12,$r0,28(0x1c) # 1c009000 <core_list_init+0x460>
1c008fe8:	2880018c 	ld.w	$r12,$r12,0
1c008fec:	0280194d 	addi.w	$r13,$r10,6(0x6)
1c008ff0:	58001180 	beq	$r12,$r0,16(0x10) # 1c009000 <core_list_init+0x460>
1c008ff4:	2880018c 	ld.w	$r12,$r12,0
1c008ff8:	02801d4d 	addi.w	$r13,$r10,7(0x7)
1c008ffc:	5fff9d80 	bne	$r12,$r0,-100(0x3ff9c) # 1c008f98 <core_list_init+0x3f8>
1c009000:	001501cb 	move	$r11,$r14
1c009004:	00150230 	move	$r16,$r17
1c009008:	0015018e 	move	$r14,$r12
1c00900c:	580079a0 	beq	$r13,$r0,120(0x78) # 1c009084 <core_list_init+0x4e4>
1c009010:	58009a00 	beq	$r16,$r0,152(0x98) # 1c0090a8 <core_list_init+0x508>
1c009014:	580095c0 	beq	$r14,$r0,148(0x94) # 1c0090a8 <core_list_init+0x508>
1c009018:	28801164 	ld.w	$r4,$r11,4(0x4)
1c00901c:	288011d4 	ld.w	$r20,$r14,4(0x4)
1c009020:	2840008f 	ld.h	$r15,$r4,0
1c009024:	28400893 	ld.h	$r19,$r4,2(0x2)
1c009028:	28400a8a 	ld.h	$r10,$r20,2(0x2)
1c00902c:	2980306f 	st.w	$r15,$r3,12(0xc)
1c009030:	2a403066 	ld.hu	$r6,$r3,12(0xc)
1c009034:	0014a1ec 	and	$r12,$r15,$r8
1c009038:	00112a6f 	sub.w	$r15,$r19,$r10
1c00903c:	0044a0d3 	srli.w	$r19,$r6,0x8
1c009040:	00154d8a 	or	$r10,$r12,$r19
1c009044:	2940008a 	st.h	$r10,$r4,0
1c009048:	28400286 	ld.h	$r6,$r20,0
1c00904c:	29803066 	st.w	$r6,$r3,12(0xc)
1c009050:	2a403064 	ld.hu	$r4,$r3,12(0xc)
1c009054:	0014a0cc 	and	$r12,$r6,$r8
1c009058:	0044a093 	srli.w	$r19,$r4,0x8
1c00905c:	00154d8a 	or	$r10,$r12,$r19
1c009060:	2940028a 	st.h	$r10,$r20,0
1c009064:	6400440f 	bge	$r0,$r15,68(0x44) # 1c0090a8 <core_list_init+0x508>
1c009068:	001501d4 	move	$r20,$r14
1c00906c:	288001ce 	ld.w	$r14,$r14,0
1c009070:	02bffe10 	addi.w	$r16,$r16,-1(0xfff)
1c009074:	58002a40 	beq	$r18,$r0,40(0x28) # 1c00909c <core_list_init+0x4fc>
1c009078:	29800254 	st.w	$r20,$r18,0
1c00907c:	00150292 	move	$r18,$r20
1c009080:	5fff91a0 	bne	$r13,$r0,-112(0x3ff90) # 1c009010 <core_list_init+0x470>
1c009084:	58003600 	beq	$r16,$r0,52(0x34) # 1c0090b8 <core_list_init+0x518>
1c009088:	580039c0 	beq	$r14,$r0,56(0x38) # 1c0090c0 <core_list_init+0x520>
1c00908c:	001501d4 	move	$r20,$r14
1c009090:	02bffe10 	addi.w	$r16,$r16,-1(0xfff)
1c009094:	288001ce 	ld.w	$r14,$r14,0
1c009098:	5fffe240 	bne	$r18,$r0,-32(0x3ffe0) # 1c009078 <core_list_init+0x4d8>
1c00909c:	00150285 	move	$r5,$r20
1c0090a0:	00150292 	move	$r18,$r20
1c0090a4:	53ffdfff 	b	-36(0xfffffdc) # 1c009080 <core_list_init+0x4e0>
1c0090a8:	00150174 	move	$r20,$r11
1c0090ac:	02bffdad 	addi.w	$r13,$r13,-1(0xfff)
1c0090b0:	2880016b 	ld.w	$r11,$r11,0
1c0090b4:	53ffc3ff 	b	-64(0xfffffc0) # 1c009074 <core_list_init+0x4d4>
1c0090b8:	5ffe49c0 	bne	$r14,$r0,-440(0x3fe48) # 1c008f00 <core_list_init+0x360>
1c0090bc:	03400000 	andi	$r0,$r0,0x0
1c0090c0:	29800240 	st.w	$r0,$r18,0
1c0090c4:	58004ce9 	beq	$r7,$r9,76(0x4c) # 1c009110 <core_list_init+0x570>
1c0090c8:	00408631 	slli.w	$r17,$r17,0x1
1c0090cc:	5ffe24a0 	bne	$r5,$r0,-476(0x3fe24) # 1c008ef0 <core_list_init+0x350>
1c0090d0:	298000a0 	st.w	$r0,$r5,0
1c0090d4:	002a0000 	break	0x0
1c0090d8:	29803073 	st.w	$r19,$r3,12(0xc)
1c0090dc:	2a403072 	ld.hu	$r18,$r3,12(0xc)
1c0090e0:	2880018b 	ld.w	$r11,$r12,0
1c0090e4:	02800673 	addi.w	$r19,$r19,1(0x1)
1c0090e8:	0280064d 	addi.w	$r13,$r18,1(0x1)
1c0090ec:	0040a1a7 	slli.w	$r7,$r13,0x8
1c0090f0:	00159a50 	xor	$r16,$r18,$r6
1c0090f4:	035c00ee 	andi	$r14,$r7,0x700
1c0090f8:	001541cf 	or	$r15,$r14,$r16
1c0090fc:	0014a1e9 	and	$r9,$r15,$r8
1c009100:	29400889 	st.h	$r9,$r4,2(0x2)
1c009104:	5ffdc560 	bne	$r11,$r0,-572(0x3fdc4) # 1c008ec8 <core_list_init+0x328>
1c009108:	53fddfff 	b	-548(0xffffddc) # 1c008ee4 <core_list_init+0x344>
1c00910c:	03400000 	andi	$r0,$r0,0x0
1c009110:	001500a4 	move	$r4,$r5
1c009114:	02804063 	addi.w	$r3,$r3,16(0x10)
1c009118:	4c000020 	jirl	$r0,$r1,0
1c00911c:	03400000 	andi	$r0,$r0,0x0
1c009120:	0015018d 	move	$r13,$r12
1c009124:	0015022e 	move	$r14,$r17
1c009128:	0015000c 	move	$r12,$r0
1c00912c:	53faefff 	b	-1300(0xffffaec) # 1c008c18 <core_list_init+0x78>

1c009130 <core_list_insert_new>:
core_list_insert_new():
1c009130:	288000cc 	ld.w	$r12,$r6,0
1c009134:	0280218d 	addi.w	$r13,$r12,8(0x8)
1c009138:	6c004da8 	bgeu	$r13,$r8,76(0x4c) # 1c009184 <core_list_insert_new+0x54>
1c00913c:	288000ee 	ld.w	$r14,$r7,0
1c009140:	028011cf 	addi.w	$r15,$r14,4(0x4)
1c009144:	6c0041e9 	bgeu	$r15,$r9,64(0x40) # 1c009184 <core_list_insert_new+0x54>
1c009148:	298000cd 	st.w	$r13,$r6,0
1c00914c:	28800086 	ld.w	$r6,$r4,0
1c009150:	284000b0 	ld.h	$r16,$r5,0
1c009154:	284008a5 	ld.h	$r5,$r5,2(0x2)
1c009158:	29800186 	st.w	$r6,$r12,0
1c00915c:	2980008c 	st.w	$r12,$r4,0
1c009160:	2980118e 	st.w	$r14,$r12,4(0x4)
1c009164:	288000e4 	ld.w	$r4,$r7,0
1c009168:	02801088 	addi.w	$r8,$r4,4(0x4)
1c00916c:	298000e8 	st.w	$r8,$r7,0
1c009170:	28801187 	ld.w	$r7,$r12,4(0x4)
1c009174:	00150184 	move	$r4,$r12
1c009178:	294000f0 	st.h	$r16,$r7,0
1c00917c:	294008e5 	st.h	$r5,$r7,2(0x2)
1c009180:	4c000020 	jirl	$r0,$r1,0
1c009184:	0015000c 	move	$r12,$r0
1c009188:	00150184 	move	$r4,$r12
1c00918c:	4c000020 	jirl	$r0,$r1,0

1c009190 <core_list_remove>:
core_list_remove():
1c009190:	2880008c 	ld.w	$r12,$r4,0
1c009194:	2880108f 	ld.w	$r15,$r4,4(0x4)
1c009198:	0015008d 	move	$r13,$r4
1c00919c:	28801190 	ld.w	$r16,$r12,4(0x4)
1c0091a0:	2880018e 	ld.w	$r14,$r12,0
1c0091a4:	00150184 	move	$r4,$r12
1c0091a8:	298011b0 	st.w	$r16,$r13,4(0x4)
1c0091ac:	2980118f 	st.w	$r15,$r12,4(0x4)
1c0091b0:	298001ae 	st.w	$r14,$r13,0
1c0091b4:	29800180 	st.w	$r0,$r12,0
1c0091b8:	4c000020 	jirl	$r0,$r1,0
1c0091bc:	03400000 	andi	$r0,$r0,0x0

1c0091c0 <core_list_undo_remove>:
core_list_undo_remove():
1c0091c0:	288010af 	ld.w	$r15,$r5,4(0x4)
1c0091c4:	2880108e 	ld.w	$r14,$r4,4(0x4)
1c0091c8:	288000ad 	ld.w	$r13,$r5,0
1c0091cc:	2980108f 	st.w	$r15,$r4,4(0x4)
1c0091d0:	298010ae 	st.w	$r14,$r5,4(0x4)
1c0091d4:	2980008d 	st.w	$r13,$r4,0
1c0091d8:	298000a4 	st.w	$r4,$r5,0
1c0091dc:	4c000020 	jirl	$r0,$r1,0

1c0091e0 <core_list_find>:
core_list_find():
1c0091e0:	284008ad 	ld.h	$r13,$r5,2(0x2)
1c0091e4:	600035a0 	blt	$r13,$r0,52(0x34) # 1c009218 <core_list_find+0x38>
1c0091e8:	58002c80 	beq	$r4,$r0,44(0x2c) # 1c009214 <core_list_find+0x34>
1c0091ec:	28801089 	ld.w	$r9,$r4,4(0x4)
1c0091f0:	2840092a 	ld.h	$r10,$r9,2(0x2)
1c0091f4:	5c00194d 	bne	$r10,$r13,24(0x18) # 1c00920c <core_list_find+0x2c>
1c0091f8:	50005400 	b	84(0x54) # 1c00924c <core_list_find+0x6c>
1c0091fc:	03400000 	andi	$r0,$r0,0x0
1c009200:	2880108b 	ld.w	$r11,$r4,4(0x4)
1c009204:	2840096e 	ld.h	$r14,$r11,2(0x2)
1c009208:	58000dcd 	beq	$r14,$r13,12(0xc) # 1c009214 <core_list_find+0x34>
1c00920c:	28800084 	ld.w	$r4,$r4,0
1c009210:	5ffff080 	bne	$r4,$r0,-16(0x3fff0) # 1c009200 <core_list_find+0x20>
1c009214:	4c000020 	jirl	$r0,$r1,0
1c009218:	5bfffc80 	beq	$r4,$r0,-4(0x3fffc) # 1c009214 <core_list_find+0x34>
1c00921c:	2880108c 	ld.w	$r12,$r4,4(0x4)
1c009220:	284000a5 	ld.h	$r5,$r5,0
1c009224:	2a000186 	ld.bu	$r6,$r12,0
1c009228:	5c0014c5 	bne	$r6,$r5,20(0x14) # 1c00923c <core_list_find+0x5c>
1c00922c:	50002400 	b	36(0x24) # 1c009250 <core_list_find+0x70>
1c009230:	28801087 	ld.w	$r7,$r4,4(0x4)
1c009234:	2a0000e8 	ld.bu	$r8,$r7,0
1c009238:	58001105 	beq	$r8,$r5,16(0x10) # 1c009248 <core_list_find+0x68>
1c00923c:	28800084 	ld.w	$r4,$r4,0
1c009240:	5ffff080 	bne	$r4,$r0,-16(0x3fff0) # 1c009230 <core_list_find+0x50>
1c009244:	53ffd3ff 	b	-48(0xfffffd0) # 1c009214 <core_list_find+0x34>
1c009248:	4c000020 	jirl	$r0,$r1,0
1c00924c:	4c000020 	jirl	$r0,$r1,0
1c009250:	4c000020 	jirl	$r0,$r1,0
1c009254:	03400000 	andi	$r0,$r0,0x0
1c009258:	03400000 	andi	$r0,$r0,0x0
1c00925c:	03400000 	andi	$r0,$r0,0x0

1c009260 <core_list_reverse>:
core_list_reverse():
1c009260:	0015000a 	move	$r10,$r0
1c009264:	58009c80 	beq	$r4,$r0,156(0x9c) # 1c009300 <core_list_reverse+0xa0>
1c009268:	2880008c 	ld.w	$r12,$r4,0
1c00926c:	2980008a 	st.w	$r10,$r4,0
1c009270:	0015008e 	move	$r14,$r4
1c009274:	58008d80 	beq	$r12,$r0,140(0x8c) # 1c009300 <core_list_reverse+0xa0>
1c009278:	2880018d 	ld.w	$r13,$r12,0
1c00927c:	2980018e 	st.w	$r14,$r12,0
1c009280:	00150184 	move	$r4,$r12
1c009284:	580081a0 	beq	$r13,$r0,128(0x80) # 1c009304 <core_list_reverse+0xa4>
1c009288:	288001a5 	ld.w	$r5,$r13,0
1c00928c:	298001ac 	st.w	$r12,$r13,0
1c009290:	001501a4 	move	$r4,$r13
1c009294:	58006ca0 	beq	$r5,$r0,108(0x6c) # 1c009300 <core_list_reverse+0xa0>
1c009298:	288000a6 	ld.w	$r6,$r5,0
1c00929c:	298000ad 	st.w	$r13,$r5,0
1c0092a0:	001500a4 	move	$r4,$r5
1c0092a4:	58005cc0 	beq	$r6,$r0,92(0x5c) # 1c009300 <core_list_reverse+0xa0>
1c0092a8:	288000c7 	ld.w	$r7,$r6,0
1c0092ac:	298000c5 	st.w	$r5,$r6,0
1c0092b0:	001500c4 	move	$r4,$r6
1c0092b4:	58004ce0 	beq	$r7,$r0,76(0x4c) # 1c009300 <core_list_reverse+0xa0>
1c0092b8:	288000e8 	ld.w	$r8,$r7,0
1c0092bc:	298000e6 	st.w	$r6,$r7,0
1c0092c0:	001500e4 	move	$r4,$r7
1c0092c4:	58003d00 	beq	$r8,$r0,60(0x3c) # 1c009300 <core_list_reverse+0xa0>
1c0092c8:	28800109 	ld.w	$r9,$r8,0
1c0092cc:	29800107 	st.w	$r7,$r8,0
1c0092d0:	00150104 	move	$r4,$r8
1c0092d4:	58002d20 	beq	$r9,$r0,44(0x2c) # 1c009300 <core_list_reverse+0xa0>
1c0092d8:	2880012f 	ld.w	$r15,$r9,0
1c0092dc:	29800128 	st.w	$r8,$r9,0
1c0092e0:	00150124 	move	$r4,$r9
1c0092e4:	0015012a 	move	$r10,$r9
1c0092e8:	580019e0 	beq	$r15,$r0,24(0x18) # 1c009300 <core_list_reverse+0xa0>
1c0092ec:	001501e4 	move	$r4,$r15
1c0092f0:	2880008c 	ld.w	$r12,$r4,0
1c0092f4:	2980008a 	st.w	$r10,$r4,0
1c0092f8:	0015008e 	move	$r14,$r4
1c0092fc:	5fff7d80 	bne	$r12,$r0,-132(0x3ff7c) # 1c009278 <core_list_reverse+0x18>
1c009300:	4c000020 	jirl	$r0,$r1,0
1c009304:	4c000020 	jirl	$r0,$r1,0
1c009308:	03400000 	andi	$r0,$r0,0x0
1c00930c:	03400000 	andi	$r0,$r0,0x0

1c009310 <core_list_mergesort>:
core_list_mergesort():
1c009310:	58023080 	beq	$r4,$r0,560(0x230) # 1c009540 <core_list_mergesort+0x230>
1c009314:	02bf4063 	addi.w	$r3,$r3,-48(0xfd0)
1c009318:	2980607a 	st.w	$r26,$r3,24(0x18)
1c00931c:	2980507b 	st.w	$r27,$r3,20(0x14)
1c009320:	2980407c 	st.w	$r28,$r3,16(0x10)
1c009324:	2980307d 	st.w	$r29,$r3,12(0xc)
1c009328:	2980b061 	st.w	$r1,$r3,44(0x2c)
1c00932c:	2980a076 	st.w	$r22,$r3,40(0x28)
1c009330:	29809077 	st.w	$r23,$r3,36(0x24)
1c009334:	29808078 	st.w	$r24,$r3,32(0x20)
1c009338:	29807079 	st.w	$r25,$r3,28(0x1c)
1c00933c:	2980207e 	st.w	$r30,$r3,8(0x8)
1c009340:	2980107f 	st.w	$r31,$r3,4(0x4)
1c009344:	0015009a 	move	$r26,$r4
1c009348:	001500bb 	move	$r27,$r5
1c00934c:	001500dc 	move	$r28,$r6
1c009350:	0280041d 	addi.w	$r29,$r0,1(0x1)
1c009354:	0015035f 	move	$r31,$r26
1c009358:	0015001e 	move	$r30,$r0
1c00935c:	00150018 	move	$r24,$r0
1c009360:	0015001a 	move	$r26,$r0
1c009364:	03401fa1 	andi	$r1,$r29,0x7
1c009368:	028007de 	addi.w	$r30,$r30,1(0x1)
1c00936c:	001503f7 	move	$r23,$r31
1c009370:	00150019 	move	$r25,$r0
1c009374:	58008c20 	beq	$r1,$r0,140(0x8c) # 1c009400 <core_list_mergesort+0xf0>
1c009378:	0280040e 	addi.w	$r14,$r0,1(0x1)
1c00937c:	5800742e 	beq	$r1,$r14,116(0x74) # 1c0093f0 <core_list_mergesort+0xe0>
1c009380:	02800804 	addi.w	$r4,$r0,2(0x2)
1c009384:	58006024 	beq	$r1,$r4,96(0x60) # 1c0093e4 <core_list_mergesort+0xd4>
1c009388:	02800c05 	addi.w	$r5,$r0,3(0x3)
1c00938c:	58004c25 	beq	$r1,$r5,76(0x4c) # 1c0093d8 <core_list_mergesort+0xc8>
1c009390:	02801006 	addi.w	$r6,$r0,4(0x4)
1c009394:	58003826 	beq	$r1,$r6,56(0x38) # 1c0093cc <core_list_mergesort+0xbc>
1c009398:	02801407 	addi.w	$r7,$r0,5(0x5)
1c00939c:	58002427 	beq	$r1,$r7,36(0x24) # 1c0093c0 <core_list_mergesort+0xb0>
1c0093a0:	02801808 	addi.w	$r8,$r0,6(0x6)
1c0093a4:	58001028 	beq	$r1,$r8,16(0x10) # 1c0093b4 <core_list_mergesort+0xa4>
1c0093a8:	288003f7 	ld.w	$r23,$r31,0
1c0093ac:	02800419 	addi.w	$r25,$r0,1(0x1)
1c0093b0:	5800b6e0 	beq	$r23,$r0,180(0xb4) # 1c009464 <core_list_mergesort+0x154>
1c0093b4:	288002f7 	ld.w	$r23,$r23,0
1c0093b8:	02800739 	addi.w	$r25,$r25,1(0x1)
1c0093bc:	5800aae0 	beq	$r23,$r0,168(0xa8) # 1c009464 <core_list_mergesort+0x154>
1c0093c0:	288002f7 	ld.w	$r23,$r23,0
1c0093c4:	02800739 	addi.w	$r25,$r25,1(0x1)
1c0093c8:	58009ee0 	beq	$r23,$r0,156(0x9c) # 1c009464 <core_list_mergesort+0x154>
1c0093cc:	288002f7 	ld.w	$r23,$r23,0
1c0093d0:	02800739 	addi.w	$r25,$r25,1(0x1)
1c0093d4:	580092e0 	beq	$r23,$r0,144(0x90) # 1c009464 <core_list_mergesort+0x154>
1c0093d8:	288002f7 	ld.w	$r23,$r23,0
1c0093dc:	02800739 	addi.w	$r25,$r25,1(0x1)
1c0093e0:	580086e0 	beq	$r23,$r0,132(0x84) # 1c009464 <core_list_mergesort+0x154>
1c0093e4:	288002f7 	ld.w	$r23,$r23,0
1c0093e8:	02800739 	addi.w	$r25,$r25,1(0x1)
1c0093ec:	58007ae0 	beq	$r23,$r0,120(0x78) # 1c009464 <core_list_mergesort+0x154>
1c0093f0:	288002f7 	ld.w	$r23,$r23,0
1c0093f4:	02800739 	addi.w	$r25,$r25,1(0x1)
1c0093f8:	58006ee0 	beq	$r23,$r0,108(0x6c) # 1c009464 <core_list_mergesort+0x154>
1c0093fc:	58006b3d 	beq	$r25,$r29,104(0x68) # 1c009464 <core_list_mergesort+0x154>
1c009400:	288002f7 	ld.w	$r23,$r23,0
1c009404:	02800739 	addi.w	$r25,$r25,1(0x1)
1c009408:	00150329 	move	$r9,$r25
1c00940c:	58005ae0 	beq	$r23,$r0,88(0x58) # 1c009464 <core_list_mergesort+0x154>
1c009410:	288002f7 	ld.w	$r23,$r23,0
1c009414:	02800739 	addi.w	$r25,$r25,1(0x1)
1c009418:	58004ee0 	beq	$r23,$r0,76(0x4c) # 1c009464 <core_list_mergesort+0x154>
1c00941c:	288002f7 	ld.w	$r23,$r23,0
1c009420:	02800939 	addi.w	$r25,$r9,2(0x2)
1c009424:	580042e0 	beq	$r23,$r0,64(0x40) # 1c009464 <core_list_mergesort+0x154>
1c009428:	288002f7 	ld.w	$r23,$r23,0
1c00942c:	02800d39 	addi.w	$r25,$r9,3(0x3)
1c009430:	580036e0 	beq	$r23,$r0,52(0x34) # 1c009464 <core_list_mergesort+0x154>
1c009434:	288002f7 	ld.w	$r23,$r23,0
1c009438:	02801139 	addi.w	$r25,$r9,4(0x4)
1c00943c:	58002ae0 	beq	$r23,$r0,40(0x28) # 1c009464 <core_list_mergesort+0x154>
1c009440:	288002f7 	ld.w	$r23,$r23,0
1c009444:	02801539 	addi.w	$r25,$r9,5(0x5)
1c009448:	58001ee0 	beq	$r23,$r0,28(0x1c) # 1c009464 <core_list_mergesort+0x154>
1c00944c:	288002f7 	ld.w	$r23,$r23,0
1c009450:	02801939 	addi.w	$r25,$r9,6(0x6)
1c009454:	580012e0 	beq	$r23,$r0,16(0x10) # 1c009464 <core_list_mergesort+0x154>
1c009458:	288002f7 	ld.w	$r23,$r23,0
1c00945c:	02801d39 	addi.w	$r25,$r9,7(0x7)
1c009460:	5fff9ee0 	bne	$r23,$r0,-100(0x3ff9c) # 1c0093fc <core_list_mergesort+0xec>
1c009464:	001503b6 	move	$r22,$r29
1c009468:	58004320 	beq	$r25,$r0,64(0x40) # 1c0094a8 <core_list_mergesort+0x198>
1c00946c:	03400000 	andi	$r0,$r0,0x0
1c009470:	580062c0 	beq	$r22,$r0,96(0x60) # 1c0094d0 <core_list_mergesort+0x1c0>
1c009474:	58005ee0 	beq	$r23,$r0,92(0x5c) # 1c0094d0 <core_list_mergesort+0x1c0>
1c009478:	288012e5 	ld.w	$r5,$r23,4(0x4)
1c00947c:	288013e4 	ld.w	$r4,$r31,4(0x4)
1c009480:	00150386 	move	$r6,$r28
1c009484:	4c000361 	jirl	$r1,$r27,0
1c009488:	64004804 	bge	$r0,$r4,72(0x48) # 1c0094d0 <core_list_mergesort+0x1c0>
1c00948c:	001502ed 	move	$r13,$r23
1c009490:	288002f7 	ld.w	$r23,$r23,0
1c009494:	02bffed6 	addi.w	$r22,$r22,-1(0xfff)
1c009498:	58002b00 	beq	$r24,$r0,40(0x28) # 1c0094c0 <core_list_mergesort+0x1b0>
1c00949c:	2980030d 	st.w	$r13,$r24,0
1c0094a0:	001501b8 	move	$r24,$r13
1c0094a4:	5fffcf20 	bne	$r25,$r0,-52(0x3ffcc) # 1c009470 <core_list_mergesort+0x160>
1c0094a8:	58003ac0 	beq	$r22,$r0,56(0x38) # 1c0094e0 <core_list_mergesort+0x1d0>
1c0094ac:	58003ee0 	beq	$r23,$r0,60(0x3c) # 1c0094e8 <core_list_mergesort+0x1d8>
1c0094b0:	001502ed 	move	$r13,$r23
1c0094b4:	02bffed6 	addi.w	$r22,$r22,-1(0xfff)
1c0094b8:	288002f7 	ld.w	$r23,$r23,0
1c0094bc:	5fffe300 	bne	$r24,$r0,-32(0x3ffe0) # 1c00949c <core_list_mergesort+0x18c>
1c0094c0:	001501ba 	move	$r26,$r13
1c0094c4:	001501b8 	move	$r24,$r13
1c0094c8:	53ffdfff 	b	-36(0xfffffdc) # 1c0094a4 <core_list_mergesort+0x194>
1c0094cc:	03400000 	andi	$r0,$r0,0x0
1c0094d0:	001503ed 	move	$r13,$r31
1c0094d4:	02bfff39 	addi.w	$r25,$r25,-1(0xfff)
1c0094d8:	288003ff 	ld.w	$r31,$r31,0
1c0094dc:	53ffbfff 	b	-68(0xfffffbc) # 1c009498 <core_list_mergesort+0x188>
1c0094e0:	001502ff 	move	$r31,$r23
1c0094e4:	5ffe82e0 	bne	$r23,$r0,-384(0x3fe80) # 1c009364 <core_list_mergesort+0x54>
1c0094e8:	29800300 	st.w	$r0,$r24,0
1c0094ec:	0280040a 	addi.w	$r10,$r0,1(0x1)
1c0094f0:	58001bca 	beq	$r30,$r10,24(0x18) # 1c009508 <core_list_mergesort+0x1f8>
1c0094f4:	004087bd 	slli.w	$r29,$r29,0x1
1c0094f8:	5ffe5f40 	bne	$r26,$r0,-420(0x3fe5c) # 1c009354 <core_list_mergesort+0x44>
1c0094fc:	0015000b 	move	$r11,$r0
1c009500:	29800160 	st.w	$r0,$r11,0
1c009504:	002a0000 	break	0x0
1c009508:	2880b061 	ld.w	$r1,$r3,44(0x2c)
1c00950c:	2880a076 	ld.w	$r22,$r3,40(0x28)
1c009510:	00150344 	move	$r4,$r26
1c009514:	28809077 	ld.w	$r23,$r3,36(0x24)
1c009518:	28808078 	ld.w	$r24,$r3,32(0x20)
1c00951c:	28807079 	ld.w	$r25,$r3,28(0x1c)
1c009520:	2880607a 	ld.w	$r26,$r3,24(0x18)
1c009524:	2880507b 	ld.w	$r27,$r3,20(0x14)
1c009528:	2880407c 	ld.w	$r28,$r3,16(0x10)
1c00952c:	2880307d 	ld.w	$r29,$r3,12(0xc)
1c009530:	2880207e 	ld.w	$r30,$r3,8(0x8)
1c009534:	2880107f 	ld.w	$r31,$r3,4(0x4)
1c009538:	0280c063 	addi.w	$r3,$r3,48(0x30)
1c00953c:	4c000020 	jirl	$r0,$r1,0
1c009540:	0015000c 	move	$r12,$r0
1c009544:	29800180 	st.w	$r0,$r12,0
1c009548:	002a0000 	break	0x0
1c00954c:	03400000 	andi	$r0,$r0,0x0

1c009550 <printf>:
printf():
/home/132/git_rep/perf/soft/perf_func/lib/printf.c:2
int printf(const char *fmt,...)
{
1c009550:	02be8063 	addi.w	$r3,$r3,-96(0xfa0)
1c009554:	2980b07a 	st.w	$r26,$r3,44(0x2c)
1c009558:	2980f061 	st.w	$r1,$r3,60(0x3c)
1c00955c:	2980e077 	st.w	$r23,$r3,56(0x38)
1c009560:	2980d078 	st.w	$r24,$r3,52(0x34)
1c009564:	2980c079 	st.w	$r25,$r3,48(0x30)
1c009568:	2980a07b 	st.w	$r27,$r3,40(0x28)
1c00956c:	2980907c 	st.w	$r28,$r3,36(0x24)
1c009570:	29811065 	st.w	$r5,$r3,68(0x44)
1c009574:	29812066 	st.w	$r6,$r3,72(0x48)
/home/132/git_rep/perf/soft/perf_func/lib/printf.c:10
void **arg;
void *ap;
int w;
__builtin_va_start(ap,fmt);
arg=ap;
for(i=0;fmt[i];i++)
1c009578:	28000097 	ld.b	$r23,$r4,0
/home/132/git_rep/perf/soft/perf_func/lib/printf.c:8
__builtin_va_start(ap,fmt);
1c00957c:	0281107a 	addi.w	$r26,$r3,68(0x44)
/home/132/git_rep/perf/soft/perf_func/lib/printf.c:2
{
1c009580:	29813067 	st.w	$r7,$r3,76(0x4c)
1c009584:	29814068 	st.w	$r8,$r3,80(0x50)
1c009588:	29815069 	st.w	$r9,$r3,84(0x54)
1c00958c:	2981606a 	st.w	$r10,$r3,88(0x58)
1c009590:	2981706b 	st.w	$r11,$r3,92(0x5c)
/home/132/git_rep/perf/soft/perf_func/lib/printf.c:8
__builtin_va_start(ap,fmt);
1c009594:	2980707a 	st.w	$r26,$r3,28(0x1c)
/home/132/git_rep/perf/soft/perf_func/lib/printf.c:10
for(i=0;fmt[i];i++)
1c009598:	58008ae0 	beq	$r23,$r0,136(0x88) # 1c009620 <printf+0xd0>
1c00959c:	00150099 	move	$r25,$r4
1c0095a0:	00150018 	move	$r24,$r0
1c0095a4:	1c000efc 	pcaddu12i	$r28,119(0x77)
1c0095a8:	0284439c 	addi.w	$r28,$r28,272(0x110)
1c0095ac:	0280201b 	addi.w	$r27,$r0,8(0x8)
1c0095b0:	50001c00 	b	28(0x1c) # 1c0095cc <printf+0x7c>
/home/132/git_rep/perf/soft/perf_func/lib/printf.c:80
		}

	}
	else{
		if(c=='\n') putchar('\r');
		putchar(c);
1c0095b4:	001502e4 	move	$r4,$r23
1c0095b8:	5401d800 	bl	472(0x1d8) # 1c009790 <putchar>
/home/132/git_rep/perf/soft/perf_func/lib/printf.c:10 (discriminator 2)
for(i=0;fmt[i];i++)
1c0095bc:	02800718 	addi.w	$r24,$r24,1(0x1)
1c0095c0:	0010632c 	add.w	$r12,$r25,$r24
1c0095c4:	28000197 	ld.b	$r23,$r12,0
1c0095c8:	58005ae0 	beq	$r23,$r0,88(0x58) # 1c009620 <printf+0xd0>
/home/132/git_rep/perf/soft/perf_func/lib/printf.c:13
	if(c=='%')
1c0095cc:	0280940c 	addi.w	$r12,$r0,37(0x25)
1c0095d0:	58001aec 	beq	$r23,$r12,24(0x18) # 1c0095e8 <printf+0x98>
/home/132/git_rep/perf/soft/perf_func/lib/printf.c:79
		if(c=='\n') putchar('\r');
1c0095d4:	0280280c 	addi.w	$r12,$r0,10(0xa)
1c0095d8:	5fffdeec 	bne	$r23,$r12,-36(0x3ffdc) # 1c0095b4 <printf+0x64>
/home/132/git_rep/perf/soft/perf_func/lib/printf.c:79 (discriminator 1)
1c0095dc:	02803404 	addi.w	$r4,$r0,13(0xd)
1c0095e0:	5401b000 	bl	432(0x1b0) # 1c009790 <putchar>
1c0095e4:	53ffd3ff 	b	-48(0xfffffd0) # 1c0095b4 <printf+0x64>
1c0095e8:	0010632c 	add.w	$r12,$r25,$r24
1c0095ec:	2800058d 	ld.b	$r13,$r12,1(0x1)
/home/132/git_rep/perf/soft/perf_func/lib/printf.c:15
		w=1;
1c0095f0:	02800405 	addi.w	$r5,$r0,1(0x1)
/home/132/git_rep/perf/soft/perf_func/lib/printf.c:17
		switch(fmt[i+1])
1c0095f4:	02814c10 	addi.w	$r16,$r0,83(0x53)
/home/132/git_rep/perf/soft/perf_func/lib/printf.c:68
				 w=w*10+(fmt[i+1]-'0');
1c0095f8:	0280280f 	addi.w	$r15,$r0,10(0xa)
/home/132/git_rep/perf/soft/perf_func/lib/printf.c:17
		switch(fmt[i+1])
1c0095fc:	02bf6dac 	addi.w	$r12,$r13,-37(0xfdb)
1c009600:	2980306c 	st.w	$r12,$r3,12(0xc)
1c009604:	2a00306c 	ld.bu	$r12,$r3,12(0xc)
1c009608:	68017a0c 	bltu	$r16,$r12,376(0x178) # 1c009780 <printf+0x230>
1c00960c:	0040898c 	slli.w	$r12,$r12,0x2
1c009610:	0010338c 	add.w	$r12,$r28,$r12
1c009614:	2880018c 	ld.w	$r12,$r12,0
1c009618:	4c000180 	jirl	$r0,$r12,0
1c00961c:	03400000 	andi	$r0,$r0,0x0
/home/132/git_rep/perf/soft/perf_func/lib/printf.c:84
	}
}
	return 0;
}
1c009620:	2880f061 	ld.w	$r1,$r3,60(0x3c)
1c009624:	2880e077 	ld.w	$r23,$r3,56(0x38)
1c009628:	2880d078 	ld.w	$r24,$r3,52(0x34)
1c00962c:	2880c079 	ld.w	$r25,$r3,48(0x30)
1c009630:	2880b07a 	ld.w	$r26,$r3,44(0x2c)
1c009634:	2880a07b 	ld.w	$r27,$r3,40(0x28)
1c009638:	2880907c 	ld.w	$r28,$r3,36(0x24)
1c00963c:	00150004 	move	$r4,$r0
1c009640:	02818063 	addi.w	$r3,$r3,96(0x60)
1c009644:	4c000020 	jirl	$r0,$r1,0
/home/132/git_rep/perf/soft/perf_func/lib/printf.c:65
				i++;
1c009648:	0010632c 	add.w	$r12,$r25,$r24
1c00964c:	2800098d 	ld.b	$r13,$r12,2(0x2)
1c009650:	02800718 	addi.w	$r24,$r24,1(0x1)
/home/132/git_rep/perf/soft/perf_func/lib/printf.c:67 (discriminator 1)
				for(w=0;fmt[i+1]>'0' && fmt[i+1]<='9';i++)
1c009654:	02bf3dac 	addi.w	$r12,$r13,-49(0xfcf)
1c009658:	2980306c 	st.w	$r12,$r3,12(0xc)
1c00965c:	2a00306c 	ld.bu	$r12,$r3,12(0xc)
1c009660:	00150005 	move	$r5,$r0
1c009664:	6bff9b6c 	bltu	$r27,$r12,-104(0x3ff98) # 1c0095fc <printf+0xac>
/home/132/git_rep/perf/soft/perf_func/lib/printf.c:68 (discriminator 3)
				 w=w*10+(fmt[i+1]-'0');
1c009668:	001c3ca5 	mul.w	$r5,$r5,$r15
/home/132/git_rep/perf/soft/perf_func/lib/printf.c:67 (discriminator 3)
				for(w=0;fmt[i+1]>'0' && fmt[i+1]<='9';i++)
1c00966c:	02800718 	addi.w	$r24,$r24,1(0x1)
1c009670:	0010632c 	add.w	$r12,$r25,$r24
/home/132/git_rep/perf/soft/perf_func/lib/printf.c:68 (discriminator 3)
				 w=w*10+(fmt[i+1]-'0');
1c009674:	02bf41ae 	addi.w	$r14,$r13,-48(0xfd0)
/home/132/git_rep/perf/soft/perf_func/lib/printf.c:67 (discriminator 3)
				for(w=0;fmt[i+1]>'0' && fmt[i+1]<='9';i++)
1c009678:	2800058d 	ld.b	$r13,$r12,1(0x1)
1c00967c:	02bf3dac 	addi.w	$r12,$r13,-49(0xfcf)
1c009680:	2980306c 	st.w	$r12,$r3,12(0xc)
1c009684:	2a00306c 	ld.bu	$r12,$r3,12(0xc)
/home/132/git_rep/perf/soft/perf_func/lib/printf.c:68 (discriminator 3)
				 w=w*10+(fmt[i+1]-'0');
1c009688:	001015c5 	add.w	$r5,$r14,$r5
/home/132/git_rep/perf/soft/perf_func/lib/printf.c:67 (discriminator 3)
				for(w=0;fmt[i+1]>'0' && fmt[i+1]<='9';i++)
1c00968c:	6fffdf6c 	bgeu	$r27,$r12,-36(0x3ffdc) # 1c009668 <printf+0x118>
1c009690:	53ff6fff 	b	-148(0xfffff6c) # 1c0095fc <printf+0xac>
/home/132/git_rep/perf/soft/perf_func/lib/printf.c:50
				printbase((long)*arg,w,2,0);
1c009694:	28800344 	ld.w	$r4,$r26,0
1c009698:	00150007 	move	$r7,$r0
1c00969c:	02800806 	addi.w	$r6,$r0,2(0x2)
/home/132/git_rep/perf/soft/perf_func/lib/printf.c:51
				arg++;
1c0096a0:	0280135a 	addi.w	$r26,$r26,4(0x4)
/home/132/git_rep/perf/soft/perf_func/lib/printf.c:52
				i++;
1c0096a4:	02800718 	addi.w	$r24,$r24,1(0x1)
/home/132/git_rep/perf/soft/perf_func/lib/printf.c:50
				printbase((long)*arg,w,2,0);
1c0096a8:	5401f800 	bl	504(0x1f8) # 1c0098a0 <printbase>
/home/132/git_rep/perf/soft/perf_func/lib/printf.c:53
				break;
1c0096ac:	53ff13ff 	b	-240(0xfffff10) # 1c0095bc <printf+0x6c>
/home/132/git_rep/perf/soft/perf_func/lib/printf.c:25
				putchar((long)*arg);
1c0096b0:	28800344 	ld.w	$r4,$r26,0
/home/132/git_rep/perf/soft/perf_func/lib/printf.c:27
				i++;
1c0096b4:	02800718 	addi.w	$r24,$r24,1(0x1)
/home/132/git_rep/perf/soft/perf_func/lib/printf.c:26
				arg++;
1c0096b8:	0280135a 	addi.w	$r26,$r26,4(0x4)
/home/132/git_rep/perf/soft/perf_func/lib/printf.c:25
				putchar((long)*arg);
1c0096bc:	5400d400 	bl	212(0xd4) # 1c009790 <putchar>
/home/132/git_rep/perf/soft/perf_func/lib/printf.c:28
				break;
1c0096c0:	53feffff 	b	-260(0xffffefc) # 1c0095bc <printf+0x6c>
/home/132/git_rep/perf/soft/perf_func/lib/printf.c:35
				printbase((long)*arg,w,10,1);
1c0096c4:	28800344 	ld.w	$r4,$r26,0
1c0096c8:	02800407 	addi.w	$r7,$r0,1(0x1)
1c0096cc:	02802806 	addi.w	$r6,$r0,10(0xa)
/home/132/git_rep/perf/soft/perf_func/lib/printf.c:36
				arg++;
1c0096d0:	0280135a 	addi.w	$r26,$r26,4(0x4)
/home/132/git_rep/perf/soft/perf_func/lib/printf.c:37
				i++;
1c0096d4:	02800718 	addi.w	$r24,$r24,1(0x1)
/home/132/git_rep/perf/soft/perf_func/lib/printf.c:35
				printbase((long)*arg,w,10,1);
1c0096d8:	5401c800 	bl	456(0x1c8) # 1c0098a0 <printbase>
/home/132/git_rep/perf/soft/perf_func/lib/printf.c:38
				break;
1c0096dc:	53fee3ff 	b	-288(0xffffee0) # 1c0095bc <printf+0x6c>
/home/132/git_rep/perf/soft/perf_func/lib/printf.c:40
                printbase((long)*arg,w,10,0);
1c0096e0:	28800344 	ld.w	$r4,$r26,0
1c0096e4:	00150007 	move	$r7,$r0
1c0096e8:	02802806 	addi.w	$r6,$r0,10(0xa)
/home/132/git_rep/perf/soft/perf_func/lib/printf.c:41
                arg++;
1c0096ec:	0280135a 	addi.w	$r26,$r26,4(0x4)
/home/132/git_rep/perf/soft/perf_func/lib/printf.c:42
                i=i+2;
1c0096f0:	02800b18 	addi.w	$r24,$r24,2(0x2)
/home/132/git_rep/perf/soft/perf_func/lib/printf.c:40
                printbase((long)*arg,w,10,0);
1c0096f4:	5401ac00 	bl	428(0x1ac) # 1c0098a0 <printbase>
/home/132/git_rep/perf/soft/perf_func/lib/printf.c:43
                break;
1c0096f8:	53fec7ff 	b	-316(0xffffec4) # 1c0095bc <printf+0x6c>
1c0096fc:	03400000 	andi	$r0,$r0,0x0
/home/132/git_rep/perf/soft/perf_func/lib/printf.c:45
				printbase((long)*arg,w,8,0);
1c009700:	28800344 	ld.w	$r4,$r26,0
1c009704:	00150007 	move	$r7,$r0
1c009708:	02802006 	addi.w	$r6,$r0,8(0x8)
/home/132/git_rep/perf/soft/perf_func/lib/printf.c:46
				arg++;
1c00970c:	0280135a 	addi.w	$r26,$r26,4(0x4)
/home/132/git_rep/perf/soft/perf_func/lib/printf.c:47
				i++;
1c009710:	02800718 	addi.w	$r24,$r24,1(0x1)
/home/132/git_rep/perf/soft/perf_func/lib/printf.c:45
				printbase((long)*arg,w,8,0);
1c009714:	54018c00 	bl	396(0x18c) # 1c0098a0 <printbase>
/home/132/git_rep/perf/soft/perf_func/lib/printf.c:48
				break;
1c009718:	53fea7ff 	b	-348(0xffffea4) # 1c0095bc <printf+0x6c>
1c00971c:	03400000 	andi	$r0,$r0,0x0
/home/132/git_rep/perf/soft/perf_func/lib/printf.c:56
				printbase((long)*arg,w,16,0);
1c009720:	28800344 	ld.w	$r4,$r26,0
1c009724:	00150007 	move	$r7,$r0
1c009728:	02804006 	addi.w	$r6,$r0,16(0x10)
/home/132/git_rep/perf/soft/perf_func/lib/printf.c:57
				arg++;
1c00972c:	0280135a 	addi.w	$r26,$r26,4(0x4)
/home/132/git_rep/perf/soft/perf_func/lib/printf.c:58
				i++;
1c009730:	02800718 	addi.w	$r24,$r24,1(0x1)
/home/132/git_rep/perf/soft/perf_func/lib/printf.c:56
				printbase((long)*arg,w,16,0);
1c009734:	54016c00 	bl	364(0x16c) # 1c0098a0 <printbase>
/home/132/git_rep/perf/soft/perf_func/lib/printf.c:59
				break;
1c009738:	53fe87ff 	b	-380(0xffffe84) # 1c0095bc <printf+0x6c>
1c00973c:	03400000 	andi	$r0,$r0,0x0
/home/132/git_rep/perf/soft/perf_func/lib/printf.c:20
				putstring(*arg);
1c009740:	28800344 	ld.w	$r4,$r26,0
/home/132/git_rep/perf/soft/perf_func/lib/printf.c:22
				i++;
1c009744:	02800718 	addi.w	$r24,$r24,1(0x1)
/home/132/git_rep/perf/soft/perf_func/lib/printf.c:21
				arg++;
1c009748:	0280135a 	addi.w	$r26,$r26,4(0x4)
/home/132/git_rep/perf/soft/perf_func/lib/printf.c:20
				putstring(*arg);
1c00974c:	5400a400 	bl	164(0xa4) # 1c0097f0 <putstring>
/home/132/git_rep/perf/soft/perf_func/lib/printf.c:23
				break;
1c009750:	53fe6fff 	b	-404(0xffffe6c) # 1c0095bc <printf+0x6c>
/home/132/git_rep/perf/soft/perf_func/lib/printf.c:30
				printbase((long)*arg,w,10,0);
1c009754:	28800344 	ld.w	$r4,$r26,0
1c009758:	00150007 	move	$r7,$r0
1c00975c:	02802806 	addi.w	$r6,$r0,10(0xa)
/home/132/git_rep/perf/soft/perf_func/lib/printf.c:31
				arg++;
1c009760:	0280135a 	addi.w	$r26,$r26,4(0x4)
/home/132/git_rep/perf/soft/perf_func/lib/printf.c:32
				i++;
1c009764:	02800718 	addi.w	$r24,$r24,1(0x1)
/home/132/git_rep/perf/soft/perf_func/lib/printf.c:30
				printbase((long)*arg,w,10,0);
1c009768:	54013800 	bl	312(0x138) # 1c0098a0 <printbase>
/home/132/git_rep/perf/soft/perf_func/lib/printf.c:33
				break;
1c00976c:	53fe53ff 	b	-432(0xffffe50) # 1c0095bc <printf+0x6c>
/home/132/git_rep/perf/soft/perf_func/lib/printf.c:61
				putchar('%');
1c009770:	02809404 	addi.w	$r4,$r0,37(0x25)
/home/132/git_rep/perf/soft/perf_func/lib/printf.c:62
				i++;
1c009774:	02800718 	addi.w	$r24,$r24,1(0x1)
/home/132/git_rep/perf/soft/perf_func/lib/printf.c:61
				putchar('%');
1c009778:	54001800 	bl	24(0x18) # 1c009790 <putchar>
/home/132/git_rep/perf/soft/perf_func/lib/printf.c:63
				break;
1c00977c:	53fe43ff 	b	-448(0xffffe40) # 1c0095bc <printf+0x6c>
/home/132/git_rep/perf/soft/perf_func/lib/printf.c:73
				putchar('%');
1c009780:	02809404 	addi.w	$r4,$r0,37(0x25)
1c009784:	54000c00 	bl	12(0xc) # 1c009790 <putchar>
/home/132/git_rep/perf/soft/perf_func/lib/printf.c:74
				break;
1c009788:	53fe37ff 	b	-460(0xffffe34) # 1c0095bc <printf+0x6c>
1c00978c:	03400000 	andi	$r0,$r0,0x0

1c009790 <putchar>:
putchar():
/home/132/git_rep/perf/soft/perf_func/lib/putchar.c:2
int putchar(int c)
{
1c009790:	02bfc063 	addi.w	$r3,$r3,-16(0xff0)
1c009794:	29803079 	st.w	$r25,$r3,12(0xc)
/home/132/git_rep/perf/soft/perf_func/lib/putchar.c:9
return 0;
}

void tgt_putchar(c)
{   //UART_ADDR
    asm(
1c009798:	157f5ff9 	lu12i.w	$r25,-263425(0xbfaff)
1c00979c:	03bc4339 	ori	$r25,$r25,0xf10
1c0097a0:	29000324 	st.b	$r4,$r25,0
1c0097a4:	03400000 	andi	$r0,$r0,0x0
/home/132/git_rep/perf/soft/perf_func/lib/putchar.c:5
}
1c0097a8:	00150004 	move	$r4,$r0
1c0097ac:	28803079 	ld.w	$r25,$r3,12(0xc)
1c0097b0:	02804063 	addi.w	$r3,$r3,16(0x10)
1c0097b4:	4c000020 	jirl	$r0,$r1,0
1c0097b8:	03400000 	andi	$r0,$r0,0x0
1c0097bc:	03400000 	andi	$r0,$r0,0x0

1c0097c0 <tgt_putchar>:
tgt_putchar():
/home/132/git_rep/perf/soft/perf_func/lib/putchar.c:8
{   //UART_ADDR
1c0097c0:	02bfc063 	addi.w	$r3,$r3,-16(0xff0)
1c0097c4:	29803079 	st.w	$r25,$r3,12(0xc)
/home/132/git_rep/perf/soft/perf_func/lib/putchar.c:9
    asm(
1c0097c8:	157f5ff9 	lu12i.w	$r25,-263425(0xbfaff)
1c0097cc:	03bc4339 	ori	$r25,$r25,0xf10
1c0097d0:	29000324 	st.b	$r4,$r25,0
1c0097d4:	03400000 	andi	$r0,$r0,0x0
/home/132/git_rep/perf/soft/perf_func/lib/putchar.c:16
        "st.b %0,$r25,0\n\t"        
        "nop\n\t"
        :
        :"r"(c)
        :"$r25");
}
1c0097d8:	28803079 	ld.w	$r25,$r3,12(0xc)
1c0097dc:	02804063 	addi.w	$r3,$r3,16(0x10)
1c0097e0:	4c000020 	jirl	$r0,$r1,0
1c0097e4:	03400000 	andi	$r0,$r0,0x0
1c0097e8:	03400000 	andi	$r0,$r0,0x0
1c0097ec:	03400000 	andi	$r0,$r0,0x0

1c0097f0 <putstring>:
putstring():
/home/132/git_rep/perf/soft/perf_func/lib/puts.c:2
int putstring(char *s)
{
1c0097f0:	02bfc063 	addi.w	$r3,$r3,-16(0xff0)
1c0097f4:	29803061 	st.w	$r1,$r3,12(0xc)
1c0097f8:	29802077 	st.w	$r23,$r3,8(0x8)
1c0097fc:	29801078 	st.w	$r24,$r3,4(0x4)
1c009800:	29800079 	st.w	$r25,$r3,0
/home/132/git_rep/perf/soft/perf_func/lib/puts.c:4
char c;
while((c=*s))
1c009804:	28000097 	ld.b	$r23,$r4,0
1c009808:	580042e0 	beq	$r23,$r0,64(0x40) # 1c009848 <putstring+0x58>
1c00980c:	00150098 	move	$r24,$r4
/home/132/git_rep/perf/soft/perf_func/lib/puts.c:6
{
 if(c == '\n') putchar('\r');
1c009810:	02802819 	addi.w	$r25,$r0,10(0xa)
1c009814:	50001400 	b	20(0x14) # 1c009828 <putstring+0x38>
/home/132/git_rep/perf/soft/perf_func/lib/puts.c:7
 putchar(c);
1c009818:	001502e4 	move	$r4,$r23
1c00981c:	57ff77ff 	bl	-140(0xfffff74) # 1c009790 <putchar>
/home/132/git_rep/perf/soft/perf_func/lib/puts.c:4
while((c=*s))
1c009820:	28000317 	ld.b	$r23,$r24,0
1c009824:	580026e0 	beq	$r23,$r0,36(0x24) # 1c009848 <putstring+0x58>
/home/132/git_rep/perf/soft/perf_func/lib/puts.c:8
 s++;
1c009828:	02800718 	addi.w	$r24,$r24,1(0x1)
/home/132/git_rep/perf/soft/perf_func/lib/puts.c:6
 if(c == '\n') putchar('\r');
1c00982c:	5fffeef9 	bne	$r23,$r25,-20(0x3ffec) # 1c009818 <putstring+0x28>
/home/132/git_rep/perf/soft/perf_func/lib/puts.c:6 (discriminator 1)
1c009830:	02803404 	addi.w	$r4,$r0,13(0xd)
1c009834:	57ff5fff 	bl	-164(0xfffff5c) # 1c009790 <putchar>
/home/132/git_rep/perf/soft/perf_func/lib/puts.c:7 (discriminator 1)
 putchar(c);
1c009838:	001502e4 	move	$r4,$r23
1c00983c:	57ff57ff 	bl	-172(0xfffff54) # 1c009790 <putchar>
/home/132/git_rep/perf/soft/perf_func/lib/puts.c:4 (discriminator 1)
while((c=*s))
1c009840:	28000317 	ld.b	$r23,$r24,0
1c009844:	5fffe6e0 	bne	$r23,$r0,-28(0x3ffe4) # 1c009828 <putstring+0x38>
/home/132/git_rep/perf/soft/perf_func/lib/puts.c:11
}
return 0;
}
1c009848:	28803061 	ld.w	$r1,$r3,12(0xc)
1c00984c:	28802077 	ld.w	$r23,$r3,8(0x8)
1c009850:	28801078 	ld.w	$r24,$r3,4(0x4)
1c009854:	28800079 	ld.w	$r25,$r3,0
1c009858:	00150004 	move	$r4,$r0
1c00985c:	02804063 	addi.w	$r3,$r3,16(0x10)
1c009860:	4c000020 	jirl	$r0,$r1,0
1c009864:	03400000 	andi	$r0,$r0,0x0
1c009868:	03400000 	andi	$r0,$r0,0x0
1c00986c:	03400000 	andi	$r0,$r0,0x0

1c009870 <puts>:
puts():
/home/132/git_rep/perf/soft/perf_func/lib/puts.c:15


int puts(char *s)
{
1c009870:	02bfc063 	addi.w	$r3,$r3,-16(0xff0)
1c009874:	29803061 	st.w	$r1,$r3,12(0xc)
/home/132/git_rep/perf/soft/perf_func/lib/puts.c:16
putstring(s);
1c009878:	57ff7bff 	bl	-136(0xfffff78) # 1c0097f0 <putstring>
/home/132/git_rep/perf/soft/perf_func/lib/puts.c:17
putchar('\r');
1c00987c:	02803404 	addi.w	$r4,$r0,13(0xd)
1c009880:	57ff13ff 	bl	-240(0xfffff10) # 1c009790 <putchar>
/home/132/git_rep/perf/soft/perf_func/lib/puts.c:18
putchar('\n');
1c009884:	02802804 	addi.w	$r4,$r0,10(0xa)
1c009888:	57ff0bff 	bl	-248(0xfffff08) # 1c009790 <putchar>
/home/132/git_rep/perf/soft/perf_func/lib/puts.c:20
return 0;
}
1c00988c:	28803061 	ld.w	$r1,$r3,12(0xc)
1c009890:	00150004 	move	$r4,$r0
1c009894:	02804063 	addi.w	$r3,$r3,16(0x10)
1c009898:	4c000020 	jirl	$r0,$r1,0
1c00989c:	03400000 	andi	$r0,$r0,0x0

1c0098a0 <printbase>:
printbase():
/home/132/git_rep/perf/soft/perf_func/lib/printbase.c:2
int printbase(long v,int w,int base,int sign)
{
1c0098a0:	02be8063 	addi.w	$r3,$r3,-96(0xfa0)
1c0098a4:	29816077 	st.w	$r23,$r3,88(0x58)
1c0098a8:	29817061 	st.w	$r1,$r3,92(0x5c)
1c0098ac:	29815078 	st.w	$r24,$r3,84(0x54)
1c0098b0:	29814079 	st.w	$r25,$r3,80(0x50)
1c0098b4:	00150097 	move	$r23,$r4
/home/132/git_rep/perf/soft/perf_func/lib/printbase.c:7
	int i,j;
	int c;
	char buf[64];
	unsigned long value;
	if(sign && v<0)
1c0098b8:	580008e0 	beq	$r7,$r0,8(0x8) # 1c0098c0 <printbase+0x20>
/home/132/git_rep/perf/soft/perf_func/lib/printbase.c:7 (discriminator 1)
1c0098bc:	6000a480 	blt	$r4,$r0,164(0xa4) # 1c009960 <printbase+0xc0>
/home/132/git_rep/perf/soft/perf_func/lib/printbase.c:14
	value = -v;
	putchar('-');
	}
	else value=v;

	for(i=0;value;i++)
1c0098c0:	5800c2e0 	beq	$r23,$r0,192(0xc0) # 1c009980 <printbase+0xe0>
1c0098c4:	0280406c 	addi.w	$r12,$r3,16(0x10)
1c0098c8:	0280040e 	addi.w	$r14,$r0,1(0x1)
1c0098cc:	001131ce 	sub.w	$r14,$r14,$r12
1c0098d0:	50000800 	b	8(0x8) # 1c0098d8 <printbase+0x38>
/home/132/git_rep/perf/soft/perf_func/lib/printbase.c:17
	{
	buf[i]=value%base;
	value=value/base;
1c0098d4:	001501b7 	move	$r23,$r13
/home/132/git_rep/perf/soft/perf_func/lib/printbase.c:16 (discriminator 3)
	buf[i]=value%base;
1c0098d8:	00219aed 	mod.wu	$r13,$r23,$r6
1c0098dc:	5c0008c0 	bne	$r6,$r0,8(0x8) # 1c0098e4 <printbase+0x44>
1c0098e0:	002a0007 	break	0x7
1c0098e4:	2900018d 	st.b	$r13,$r12,0
/home/132/git_rep/perf/soft/perf_func/lib/printbase.c:17 (discriminator 3)
	value=value/base;
1c0098e8:	001031d8 	add.w	$r24,$r14,$r12
1c0098ec:	00211aed 	div.wu	$r13,$r23,$r6
1c0098f0:	5c0008c0 	bne	$r6,$r0,8(0x8) # 1c0098f8 <printbase+0x58>
1c0098f4:	002a0007 	break	0x7
1c0098f8:	0280058c 	addi.w	$r12,$r12,1(0x1)
/home/132/git_rep/perf/soft/perf_func/lib/printbase.c:14 (discriminator 3)
	for(i=0;value;i++)
1c0098fc:	6fffdae6 	bgeu	$r23,$r6,-40(0x3ffd8) # 1c0098d4 <printbase+0x34>
/home/132/git_rep/perf/soft/perf_func/lib/printbase.c:22
	}

#define max(a,b) (((a)>(b))?(a):(b))

	for(j=max(w,i);j>0;j--)
1c009900:	600058b8 	blt	$r5,$r24,88(0x58) # 1c009958 <printbase+0xb8>
1c009904:	001500b7 	move	$r23,$r5
/home/132/git_rep/perf/soft/perf_func/lib/printbase.c:25
	{
		c=j>i?0:buf[j-1];
		putchar((c<=9)?c+'0':c-0xa+'a');
1c009908:	02802419 	addi.w	$r25,$r0,9(0x9)
1c00990c:	03400000 	andi	$r0,$r0,0x0
/home/132/git_rep/perf/soft/perf_func/lib/printbase.c:24
		c=j>i?0:buf[j-1];
1c009910:	0280406c 	addi.w	$r12,$r3,16(0x10)
1c009914:	00105d8c 	add.w	$r12,$r12,$r23
1c009918:	0280c004 	addi.w	$r4,$r0,48(0x30)
1c00991c:	60001717 	blt	$r24,$r23,20(0x14) # 1c009930 <printbase+0x90>
/home/132/git_rep/perf/soft/perf_func/lib/printbase.c:24 (discriminator 1)
1c009920:	283ffd8c 	ld.b	$r12,$r12,-1(0xfff)
/home/132/git_rep/perf/soft/perf_func/lib/printbase.c:25 (discriminator 1)
		putchar((c<=9)?c+'0':c-0xa+'a');
1c009924:	02815d84 	addi.w	$r4,$r12,87(0x57)
1c009928:	60000b2c 	blt	$r25,$r12,8(0x8) # 1c009930 <printbase+0x90>
1c00992c:	0280c184 	addi.w	$r4,$r12,48(0x30)
1c009930:	02bffef7 	addi.w	$r23,$r23,-1(0xfff)
/home/132/git_rep/perf/soft/perf_func/lib/printbase.c:25 (discriminator 4)
1c009934:	57fe5fff 	bl	-420(0xffffe5c) # 1c009790 <putchar>
/home/132/git_rep/perf/soft/perf_func/lib/printbase.c:22 (discriminator 4)
	for(j=max(w,i);j>0;j--)
1c009938:	5fffdae0 	bne	$r23,$r0,-40(0x3ffd8) # 1c009910 <printbase+0x70>
/home/132/git_rep/perf/soft/perf_func/lib/printbase.c:28
	}
	return 0;
}
1c00993c:	28817061 	ld.w	$r1,$r3,92(0x5c)
1c009940:	28816077 	ld.w	$r23,$r3,88(0x58)
1c009944:	28815078 	ld.w	$r24,$r3,84(0x54)
1c009948:	28814079 	ld.w	$r25,$r3,80(0x50)
1c00994c:	00150004 	move	$r4,$r0
1c009950:	02818063 	addi.w	$r3,$r3,96(0x60)
1c009954:	4c000020 	jirl	$r0,$r1,0
/home/132/git_rep/perf/soft/perf_func/lib/printbase.c:22
	for(j=max(w,i);j>0;j--)
1c009958:	00150305 	move	$r5,$r24
1c00995c:	53ffabff 	b	-88(0xfffffa8) # 1c009904 <printbase+0x64>
/home/132/git_rep/perf/soft/perf_func/lib/printbase.c:10
	putchar('-');
1c009960:	0280b404 	addi.w	$r4,$r0,45(0x2d)
1c009964:	29803066 	st.w	$r6,$r3,12(0xc)
1c009968:	29802065 	st.w	$r5,$r3,8(0x8)
1c00996c:	57fe27ff 	bl	-476(0xffffe24) # 1c009790 <putchar>
/home/132/git_rep/perf/soft/perf_func/lib/printbase.c:9
	value = -v;
1c009970:	00115c17 	sub.w	$r23,$r0,$r23
/home/132/git_rep/perf/soft/perf_func/lib/printbase.c:10
	putchar('-');
1c009974:	28802065 	ld.w	$r5,$r3,8(0x8)
1c009978:	28803066 	ld.w	$r6,$r3,12(0xc)
1c00997c:	53ff4bff 	b	-184(0xfffff48) # 1c0098c4 <printbase+0x24>
/home/132/git_rep/perf/soft/perf_func/lib/printbase.c:22
	for(j=max(w,i);j>0;j--)
1c009980:	67ffbc05 	bge	$r0,$r5,-68(0x3ffbc) # 1c00993c <printbase+0x9c>
1c009984:	00150018 	move	$r24,$r0
1c009988:	53ff7fff 	b	-132(0xfffff7c) # 1c009904 <printbase+0x64>
1c00998c:	03400000 	andi	$r0,$r0,0x0

1c009990 <strlen>:
strlen():
/home/132/git_rep/perf/soft/perf_func/lib/string.c:14
 * The strlen() function returns the length of string @s.
 * */
size_t
strlen(const char *s) {
    size_t cnt = 0;
    while (*s ++ != '\0') {
1c009990:	2800008c 	ld.b	$r12,$r4,0
1c009994:	58002580 	beq	$r12,$r0,36(0x24) # 1c0099b8 <strlen+0x28>
/home/132/git_rep/perf/soft/perf_func/lib/string.c:13
    size_t cnt = 0;
1c009998:	0015000c 	move	$r12,$r0
1c00999c:	03400000 	andi	$r0,$r0,0x0
/home/132/git_rep/perf/soft/perf_func/lib/string.c:15
        cnt ++;
1c0099a0:	0280058c 	addi.w	$r12,$r12,1(0x1)
/home/132/git_rep/perf/soft/perf_func/lib/string.c:14
    while (*s ++ != '\0') {
1c0099a4:	0010308d 	add.w	$r13,$r4,$r12
1c0099a8:	280001ad 	ld.b	$r13,$r13,0
1c0099ac:	5ffff5a0 	bne	$r13,$r0,-12(0x3fff4) # 1c0099a0 <strlen+0x10>
/home/132/git_rep/perf/soft/perf_func/lib/string.c:18
    }
    return cnt;
}
1c0099b0:	00150184 	move	$r4,$r12
1c0099b4:	4c000020 	jirl	$r0,$r1,0
/home/132/git_rep/perf/soft/perf_func/lib/string.c:13
    size_t cnt = 0;
1c0099b8:	0015000c 	move	$r12,$r0
/home/132/git_rep/perf/soft/perf_func/lib/string.c:18
}
1c0099bc:	00150184 	move	$r4,$r12
1c0099c0:	4c000020 	jirl	$r0,$r1,0
1c0099c4:	03400000 	andi	$r0,$r0,0x0
1c0099c8:	03400000 	andi	$r0,$r0,0x0
1c0099cc:	03400000 	andi	$r0,$r0,0x0

1c0099d0 <strnlen>:
strnlen():
/home/132/git_rep/perf/soft/perf_func/lib/string.c:35
 * @len if there is no '\0' character among the first @len characters
 * pointed by @s.
 * */
size_t
strnlen(const char *s, size_t len) {
    size_t cnt = 0;
1c0099d0:	0015000c 	move	$r12,$r0
/home/132/git_rep/perf/soft/perf_func/lib/string.c:36
    while (cnt < len && *s ++ != '\0') {
1c0099d4:	580028a0 	beq	$r5,$r0,40(0x28) # 1c0099fc <strnlen+0x2c>
1c0099d8:	2800008d 	ld.b	$r13,$r4,0
/home/132/git_rep/perf/soft/perf_func/lib/string.c:35
    size_t cnt = 0;
1c0099dc:	0015000c 	move	$r12,$r0
/home/132/git_rep/perf/soft/perf_func/lib/string.c:36
    while (cnt < len && *s ++ != '\0') {
1c0099e0:	5c0011a0 	bne	$r13,$r0,16(0x10) # 1c0099f0 <strnlen+0x20>
1c0099e4:	50001800 	b	24(0x18) # 1c0099fc <strnlen+0x2c>
/home/132/git_rep/perf/soft/perf_func/lib/string.c:36 (discriminator 1)
1c0099e8:	280001ad 	ld.b	$r13,$r13,0
1c0099ec:	580011a0 	beq	$r13,$r0,16(0x10) # 1c0099fc <strnlen+0x2c>
/home/132/git_rep/perf/soft/perf_func/lib/string.c:37
        cnt ++;
1c0099f0:	0280058c 	addi.w	$r12,$r12,1(0x1)
/home/132/git_rep/perf/soft/perf_func/lib/string.c:36
    while (cnt < len && *s ++ != '\0') {
1c0099f4:	0010308d 	add.w	$r13,$r4,$r12
1c0099f8:	5ffff0ac 	bne	$r5,$r12,-16(0x3fff0) # 1c0099e8 <strnlen+0x18>
/home/132/git_rep/perf/soft/perf_func/lib/string.c:40
    }
    return cnt;
}
1c0099fc:	00150184 	move	$r4,$r12
1c009a00:	4c000020 	jirl	$r0,$r1,0
1c009a04:	03400000 	andi	$r0,$r0,0x0
1c009a08:	03400000 	andi	$r0,$r0,0x0
1c009a0c:	03400000 	andi	$r0,$r0,0x0

1c009a10 <strcpy>:
strcpy():
/home/132/git_rep/perf/soft/perf_func/lib/string.c:59
char *
strcpy(char *dst, const char *src) {
#ifdef __HAVE_ARCH_MEM_OPTS
    return __strcpy(dst, src);
#else
    char *p = dst;
1c009a10:	0015008c 	move	$r12,$r4
/home/132/git_rep/perf/soft/perf_func/lib/string.c:60 (discriminator 1)
    while ((*p ++ = *src ++) != '\0')
1c009a14:	028004a5 	addi.w	$r5,$r5,1(0x1)
1c009a18:	283ffcad 	ld.b	$r13,$r5,-1(0xfff)
1c009a1c:	0280058c 	addi.w	$r12,$r12,1(0x1)
1c009a20:	293ffd8d 	st.b	$r13,$r12,-1(0xfff)
1c009a24:	5ffff1a0 	bne	$r13,$r0,-16(0x3fff0) # 1c009a14 <strcpy+0x4>
/home/132/git_rep/perf/soft/perf_func/lib/string.c:64
        /* nothing */;
    return dst;
#endif /* __HAVE_ARCH_MEM_OPTS */
}
1c009a28:	4c000020 	jirl	$r0,$r1,0
1c009a2c:	03400000 	andi	$r0,$r0,0x0

1c009a30 <strncpy>:
strncpy():
/home/132/git_rep/perf/soft/perf_func/lib/string.c:79
 * The return value is @dst
 * */
char *
strncpy(char *dst, const char *src, size_t len) {
    char *p = dst;
    while (len > 0) {
1c009a30:	580028c0 	beq	$r6,$r0,40(0x28) # 1c009a58 <strncpy+0x28>
1c009a34:	00101886 	add.w	$r6,$r4,$r6
/home/132/git_rep/perf/soft/perf_func/lib/string.c:78
    char *p = dst;
1c009a38:	0015008d 	move	$r13,$r4
1c009a3c:	03400000 	andi	$r0,$r0,0x0
/home/132/git_rep/perf/soft/perf_func/lib/string.c:80
        if ((*p = *src) != '\0') {
1c009a40:	280000ac 	ld.b	$r12,$r5,0
/home/132/git_rep/perf/soft/perf_func/lib/string.c:83
            src ++;
        }
        p ++, len --;
1c009a44:	028005ad 	addi.w	$r13,$r13,1(0x1)
/home/132/git_rep/perf/soft/perf_func/lib/string.c:80
        if ((*p = *src) != '\0') {
1c009a48:	293ffdac 	st.b	$r12,$r13,-1(0xfff)
/home/132/git_rep/perf/soft/perf_func/lib/string.c:81
            src ++;
1c009a4c:	0012b00c 	sltu	$r12,$r0,$r12
1c009a50:	001030a5 	add.w	$r5,$r5,$r12
/home/132/git_rep/perf/soft/perf_func/lib/string.c:79
    while (len > 0) {
1c009a54:	5fffeda6 	bne	$r13,$r6,-20(0x3ffec) # 1c009a40 <strncpy+0x10>
/home/132/git_rep/perf/soft/perf_func/lib/string.c:86
    }
    return dst;
}
1c009a58:	4c000020 	jirl	$r0,$r1,0
1c009a5c:	03400000 	andi	$r0,$r0,0x0

1c009a60 <strncmp>:
strncmp():
/home/132/git_rep/perf/soft/perf_func/lib/string.c:101
 * the characters differ, until a terminating null-character is reached, or
 * until @n characters match in both strings, whichever happens first.
 * */
int
strncmp(const char *s1, const char *s2, size_t n) {
    while (n > 0 && *s1 != '\0' && *s1 == *s2) {
1c009a60:	580040c0 	beq	$r6,$r0,64(0x40) # 1c009aa0 <strncmp+0x40>
1c009a64:	2800008d 	ld.b	$r13,$r4,0
1c009a68:	280000ae 	ld.b	$r14,$r5,0
1c009a6c:	580041a0 	beq	$r13,$r0,64(0x40) # 1c009aac <strncmp+0x4c>
1c009a70:	5c003dae 	bne	$r13,$r14,60(0x3c) # 1c009aac <strncmp+0x4c>
1c009a74:	001018a6 	add.w	$r6,$r5,$r6
1c009a78:	50001c00 	b	28(0x1c) # 1c009a94 <strncmp+0x34>
1c009a7c:	03400000 	andi	$r0,$r0,0x0
/home/132/git_rep/perf/soft/perf_func/lib/string.c:101 (discriminator 1)
1c009a80:	2800008d 	ld.b	$r13,$r4,0
1c009a84:	580025a0 	beq	$r13,$r0,36(0x24) # 1c009aa8 <strncmp+0x48>
/home/132/git_rep/perf/soft/perf_func/lib/string.c:101 (discriminator 2)
1c009a88:	2800018e 	ld.b	$r14,$r12,0
1c009a8c:	00150185 	move	$r5,$r12
1c009a90:	5c001dae 	bne	$r13,$r14,28(0x1c) # 1c009aac <strncmp+0x4c>
/home/132/git_rep/perf/soft/perf_func/lib/string.c:102
        n --, s1 ++, s2 ++;
1c009a94:	028004ac 	addi.w	$r12,$r5,1(0x1)
1c009a98:	02800484 	addi.w	$r4,$r4,1(0x1)
/home/132/git_rep/perf/soft/perf_func/lib/string.c:101
    while (n > 0 && *s1 != '\0' && *s1 == *s2) {
1c009a9c:	5fffe586 	bne	$r12,$r6,-28(0x3ffe4) # 1c009a80 <strncmp+0x20>
/home/132/git_rep/perf/soft/perf_func/lib/string.c:104
    }
    return (n == 0) ? 0 : (int)((unsigned char)*s1 - (unsigned char)*s2);
1c009aa0:	00150004 	move	$r4,$r0
/home/132/git_rep/perf/soft/perf_func/lib/string.c:105
}
1c009aa4:	4c000020 	jirl	$r0,$r1,0
1c009aa8:	280004ae 	ld.b	$r14,$r5,1(0x1)
/home/132/git_rep/perf/soft/perf_func/lib/string.c:100
strncmp(const char *s1, const char *s2, size_t n) {
1c009aac:	02bfc063 	addi.w	$r3,$r3,-16(0xff0)
/home/132/git_rep/perf/soft/perf_func/lib/string.c:104
    return (n == 0) ? 0 : (int)((unsigned char)*s1 - (unsigned char)*s2);
1c009ab0:	2980306d 	st.w	$r13,$r3,12(0xc)
1c009ab4:	2a00306d 	ld.bu	$r13,$r3,12(0xc)
1c009ab8:	2980306e 	st.w	$r14,$r3,12(0xc)
1c009abc:	2a003064 	ld.bu	$r4,$r3,12(0xc)
/home/132/git_rep/perf/soft/perf_func/lib/string.c:105
}
1c009ac0:	02804063 	addi.w	$r3,$r3,16(0x10)
/home/132/git_rep/perf/soft/perf_func/lib/string.c:104
    return (n == 0) ? 0 : (int)((unsigned char)*s1 - (unsigned char)*s2);
1c009ac4:	001111a4 	sub.w	$r4,$r13,$r4
/home/132/git_rep/perf/soft/perf_func/lib/string.c:105
}
1c009ac8:	4c000020 	jirl	$r0,$r1,0
1c009acc:	03400000 	andi	$r0,$r0,0x0

1c009ad0 <strchr>:
strchr():
/home/132/git_rep/perf/soft/perf_func/lib/string.c:117
 * The strchr() function returns a pointer to the first occurrence of
 * character in @s. If the value is not found, the function returns 'NULL'.
 * */
char *
strchr(const char *s, char c) {
    while (*s != '\0') {
1c009ad0:	2800008d 	ld.b	$r13,$r4,0
/home/132/git_rep/perf/soft/perf_func/lib/string.c:116
strchr(const char *s, char c) {
1c009ad4:	0015008c 	move	$r12,$r4
/home/132/git_rep/perf/soft/perf_func/lib/string.c:117
    while (*s != '\0') {
1c009ad8:	58001da0 	beq	$r13,$r0,28(0x1c) # 1c009af4 <strchr+0x24>
/home/132/git_rep/perf/soft/perf_func/lib/string.c:118
        if (*s == c) {
1c009adc:	5c000da5 	bne	$r13,$r5,12(0xc) # 1c009ae8 <strchr+0x18>
1c009ae0:	50002800 	b	40(0x28) # 1c009b08 <strchr+0x38>
1c009ae4:	58001da5 	beq	$r13,$r5,28(0x1c) # 1c009b00 <strchr+0x30>
/home/132/git_rep/perf/soft/perf_func/lib/string.c:121
            return (char *)s;
        }
        s ++;
1c009ae8:	0280058c 	addi.w	$r12,$r12,1(0x1)
/home/132/git_rep/perf/soft/perf_func/lib/string.c:117
    while (*s != '\0') {
1c009aec:	2800018d 	ld.b	$r13,$r12,0
1c009af0:	5ffff5a0 	bne	$r13,$r0,-12(0x3fff4) # 1c009ae4 <strchr+0x14>
/home/132/git_rep/perf/soft/perf_func/lib/string.c:123
    }
    return NULL;
1c009af4:	00150004 	move	$r4,$r0
1c009af8:	4c000020 	jirl	$r0,$r1,0
1c009afc:	03400000 	andi	$r0,$r0,0x0
/home/132/git_rep/perf/soft/perf_func/lib/string.c:121
        s ++;
1c009b00:	00150184 	move	$r4,$r12
/home/132/git_rep/perf/soft/perf_func/lib/string.c:124
}
1c009b04:	4c000020 	jirl	$r0,$r1,0
1c009b08:	4c000020 	jirl	$r0,$r1,0
1c009b0c:	03400000 	andi	$r0,$r0,0x0

1c009b10 <strfind>:
strfind():
/home/132/git_rep/perf/soft/perf_func/lib/string.c:137
 * not found in @s, then it returns a pointer to the null byte at the
 * end of @s, rather than 'NULL'.
 * */
char *
strfind(const char *s, char c) {
    while (*s != '\0') {
1c009b10:	2800008c 	ld.b	$r12,$r4,0
1c009b14:	58001d80 	beq	$r12,$r0,28(0x1c) # 1c009b30 <strfind+0x20>
/home/132/git_rep/perf/soft/perf_func/lib/string.c:138
        if (*s == c) {
1c009b18:	5c000cac 	bne	$r5,$r12,12(0xc) # 1c009b24 <strfind+0x14>
1c009b1c:	50001800 	b	24(0x18) # 1c009b34 <strfind+0x24>
1c009b20:	58001185 	beq	$r12,$r5,16(0x10) # 1c009b30 <strfind+0x20>
/home/132/git_rep/perf/soft/perf_func/lib/string.c:141
            break;
        }
        s ++;
1c009b24:	02800484 	addi.w	$r4,$r4,1(0x1)
/home/132/git_rep/perf/soft/perf_func/lib/string.c:137
    while (*s != '\0') {
1c009b28:	2800008c 	ld.b	$r12,$r4,0
1c009b2c:	5ffff580 	bne	$r12,$r0,-12(0x3fff4) # 1c009b20 <strfind+0x10>
/home/132/git_rep/perf/soft/perf_func/lib/string.c:144
    }
    return (char *)s;
}
1c009b30:	4c000020 	jirl	$r0,$r1,0
1c009b34:	4c000020 	jirl	$r0,$r1,0
1c009b38:	03400000 	andi	$r0,$r0,0x0
1c009b3c:	03400000 	andi	$r0,$r0,0x0

1c009b40 <memset>:
memset():
/home/132/git_rep/perf/soft/perf_func/lib/string.c:251
memset(void *s, char c, size_t n) {
#ifdef __HAVE_ARCH_MEM_OPTS
    return __memset(s, c, n);
#else
    char *p = s;
    while (n -- > 0) {
1c009b40:	58001cc0 	beq	$r6,$r0,28(0x1c) # 1c009b5c <memset+0x1c>
1c009b44:	00101886 	add.w	$r6,$r4,$r6
/home/132/git_rep/perf/soft/perf_func/lib/string.c:250
    char *p = s;
1c009b48:	0015008c 	move	$r12,$r4
1c009b4c:	03400000 	andi	$r0,$r0,0x0
/home/132/git_rep/perf/soft/perf_func/lib/string.c:252
        *p ++ = c;
1c009b50:	0280058c 	addi.w	$r12,$r12,1(0x1)
1c009b54:	293ffd85 	st.b	$r5,$r12,-1(0xfff)
/home/132/git_rep/perf/soft/perf_func/lib/string.c:251
    while (n -- > 0) {
1c009b58:	5ffff986 	bne	$r12,$r6,-8(0x3fff8) # 1c009b50 <memset+0x10>
/home/132/git_rep/perf/soft/perf_func/lib/string.c:256
    }
    return s;
#endif /* __HAVE_ARCH_MEM_OPTS */
}
1c009b5c:	4c000020 	jirl	$r0,$r1,0

1c009b60 <memcpy>:
memcpy():
/home/132/git_rep/perf/soft/perf_func/lib/string.c:279
#ifdef __HAVE_ARCH_MEM_OPTS
    return __memcpy(dst, src, n);
#else
    const char *s = src;
    char *d = dst;
    while (n -- > 0) {
1c009b60:	580024c0 	beq	$r6,$r0,36(0x24) # 1c009b84 <memcpy+0x24>
1c009b64:	001018a6 	add.w	$r6,$r5,$r6
/home/132/git_rep/perf/soft/perf_func/lib/string.c:278
    char *d = dst;
1c009b68:	0015008c 	move	$r12,$r4
1c009b6c:	03400000 	andi	$r0,$r0,0x0
/home/132/git_rep/perf/soft/perf_func/lib/string.c:280
        *d ++ = *s ++;
1c009b70:	028004a5 	addi.w	$r5,$r5,1(0x1)
1c009b74:	283ffcad 	ld.b	$r13,$r5,-1(0xfff)
1c009b78:	0280058c 	addi.w	$r12,$r12,1(0x1)
1c009b7c:	293ffd8d 	st.b	$r13,$r12,-1(0xfff)
/home/132/git_rep/perf/soft/perf_func/lib/string.c:279
    while (n -- > 0) {
1c009b80:	5ffff0a6 	bne	$r5,$r6,-16(0x3fff0) # 1c009b70 <memcpy+0x10>
/home/132/git_rep/perf/soft/perf_func/lib/string.c:284
    }
    return dst;
#endif /* __HAVE_ARCH_MEM_OPTS */
}
1c009b84:	4c000020 	jirl	$r0,$r1,0
1c009b88:	03400000 	andi	$r0,$r0,0x0
1c009b8c:	03400000 	andi	$r0,$r0,0x0

1c009b90 <memmove>:
memmove():
/home/132/git_rep/perf/soft/perf_func/lib/string.c:302
#ifdef __HAVE_ARCH_MEM_OPTS
    return __memmove(dst, src, n);
#else
    const char *s = src;
    char *d = dst;
    if (s < d && s + n > d) {
1c009b90:	6c0030a4 	bgeu	$r5,$r4,48(0x30) # 1c009bc0 <memmove+0x30>
/home/132/git_rep/perf/soft/perf_func/lib/string.c:302 (discriminator 1)
1c009b94:	001018ac 	add.w	$r12,$r5,$r6
1c009b98:	6c00288c 	bgeu	$r4,$r12,40(0x28) # 1c009bc0 <memmove+0x30>
/home/132/git_rep/perf/soft/perf_func/lib/string.c:303
        s += n, d += n;
1c009b9c:	0010188d 	add.w	$r13,$r4,$r6
/home/132/git_rep/perf/soft/perf_func/lib/string.c:304
        while (n -- > 0) {
1c009ba0:	580044c0 	beq	$r6,$r0,68(0x44) # 1c009be4 <memmove+0x54>
/home/132/git_rep/perf/soft/perf_func/lib/string.c:305
            *-- d = *-- s;
1c009ba4:	02bffd8c 	addi.w	$r12,$r12,-1(0xfff)
1c009ba8:	2800018e 	ld.b	$r14,$r12,0
1c009bac:	02bffdad 	addi.w	$r13,$r13,-1(0xfff)
1c009bb0:	290001ae 	st.b	$r14,$r13,0
/home/132/git_rep/perf/soft/perf_func/lib/string.c:304
        while (n -- > 0) {
1c009bb4:	5ffff0ac 	bne	$r5,$r12,-16(0x3fff0) # 1c009ba4 <memmove+0x14>
1c009bb8:	4c000020 	jirl	$r0,$r1,0
1c009bbc:	03400000 	andi	$r0,$r0,0x0
1c009bc0:	001018ae 	add.w	$r14,$r5,$r6
/home/132/git_rep/perf/soft/perf_func/lib/string.c:308
        }
    } else {
        while (n -- > 0) {
1c009bc4:	0015008c 	move	$r12,$r4
1c009bc8:	580020c0 	beq	$r6,$r0,32(0x20) # 1c009be8 <memmove+0x58>
1c009bcc:	03400000 	andi	$r0,$r0,0x0
/home/132/git_rep/perf/soft/perf_func/lib/string.c:309
            *d ++ = *s ++;
1c009bd0:	028004a5 	addi.w	$r5,$r5,1(0x1)
1c009bd4:	283ffcad 	ld.b	$r13,$r5,-1(0xfff)
1c009bd8:	0280058c 	addi.w	$r12,$r12,1(0x1)
1c009bdc:	293ffd8d 	st.b	$r13,$r12,-1(0xfff)
/home/132/git_rep/perf/soft/perf_func/lib/string.c:308
        while (n -- > 0) {
1c009be0:	5ffff0ae 	bne	$r5,$r14,-16(0x3fff0) # 1c009bd0 <memmove+0x40>
/home/132/git_rep/perf/soft/perf_func/lib/string.c:314
        }
    }
    return dst;
#endif /* __HAVE_ARCH_MEM_OPTS */
}
1c009be4:	4c000020 	jirl	$r0,$r1,0
1c009be8:	4c000020 	jirl	$r0,$r1,0
1c009bec:	03400000 	andi	$r0,$r0,0x0

1c009bf0 <memcmp>:
memcmp():
/home/132/git_rep/perf/soft/perf_func/lib/string.c:334
 * */
int
memcmp(const void *v1, const void *v2, size_t n) {
    const char *s1 = (const char *)v1;
    const char *s2 = (const char *)v2;
    while (n -- > 0) {
1c009bf0:	580030c0 	beq	$r6,$r0,48(0x30) # 1c009c20 <memcmp+0x30>
/home/132/git_rep/perf/soft/perf_func/lib/string.c:335
        if (*s1 != *s2) {
1c009bf4:	2800008c 	ld.b	$r12,$r4,0
1c009bf8:	280000ad 	ld.b	$r13,$r5,0
1c009bfc:	00101886 	add.w	$r6,$r4,$r6
1c009c00:	580015ac 	beq	$r13,$r12,20(0x14) # 1c009c14 <memcmp+0x24>
1c009c04:	50002400 	b	36(0x24) # 1c009c28 <memcmp+0x38>
1c009c08:	2800008c 	ld.b	$r12,$r4,0
1c009c0c:	280000ad 	ld.b	$r13,$r5,0
1c009c10:	5c00198d 	bne	$r12,$r13,24(0x18) # 1c009c28 <memcmp+0x38>
/home/132/git_rep/perf/soft/perf_func/lib/string.c:338
            return (int)((unsigned char)*s1 - (unsigned char)*s2);
        }
        s1 ++, s2 ++;
1c009c14:	02800484 	addi.w	$r4,$r4,1(0x1)
1c009c18:	028004a5 	addi.w	$r5,$r5,1(0x1)
/home/132/git_rep/perf/soft/perf_func/lib/string.c:334
    while (n -- > 0) {
1c009c1c:	5fffec86 	bne	$r4,$r6,-20(0x3ffec) # 1c009c08 <memcmp+0x18>
/home/132/git_rep/perf/soft/perf_func/lib/string.c:340
    }
    return 0;
1c009c20:	00150004 	move	$r4,$r0
/home/132/git_rep/perf/soft/perf_func/lib/string.c:341
}
1c009c24:	4c000020 	jirl	$r0,$r1,0
/home/132/git_rep/perf/soft/perf_func/lib/string.c:331
memcmp(const void *v1, const void *v2, size_t n) {
1c009c28:	02bfc063 	addi.w	$r3,$r3,-16(0xff0)
/home/132/git_rep/perf/soft/perf_func/lib/string.c:336
            return (int)((unsigned char)*s1 - (unsigned char)*s2);
1c009c2c:	2980306c 	st.w	$r12,$r3,12(0xc)
1c009c30:	2a00306c 	ld.bu	$r12,$r3,12(0xc)
1c009c34:	2980306d 	st.w	$r13,$r3,12(0xc)
1c009c38:	2a003064 	ld.bu	$r4,$r3,12(0xc)
/home/132/git_rep/perf/soft/perf_func/lib/string.c:341
}
1c009c3c:	02804063 	addi.w	$r3,$r3,16(0x10)
/home/132/git_rep/perf/soft/perf_func/lib/string.c:336
            return (int)((unsigned char)*s1 - (unsigned char)*s2);
1c009c40:	00111184 	sub.w	$r4,$r12,$r4
/home/132/git_rep/perf/soft/perf_func/lib/string.c:341
}
1c009c44:	4c000020 	jirl	$r0,$r1,0
1c009c48:	03400000 	andi	$r0,$r0,0x0
1c009c4c:	03400000 	andi	$r0,$r0,0x0

1c009c50 <bzero>:
memset():
/home/132/git_rep/perf/soft/perf_func/lib/string.c:251
    while (n -- > 0) {
1c009c50:	580014a0 	beq	$r5,$r0,20(0x14) # 1c009c64 <bzero+0x14>
1c009c54:	00101485 	add.w	$r5,$r4,$r5
/home/132/git_rep/perf/soft/perf_func/lib/string.c:252
        *p ++ = c;
1c009c58:	02800484 	addi.w	$r4,$r4,1(0x1)
1c009c5c:	293ffc80 	st.b	$r0,$r4,-1(0xfff)
/home/132/git_rep/perf/soft/perf_func/lib/string.c:251
    while (n -- > 0) {
1c009c60:	5ffff885 	bne	$r4,$r5,-8(0x3fff8) # 1c009c58 <bzero+0x8>
bzero():
/home/132/git_rep/perf/soft/perf_func/lib/string.c:345

void bzero(void *s, size_t n){
	memset(s, 0, n);
}
1c009c64:	4c000020 	jirl	$r0,$r1,0
1c009c68:	03400000 	andi	$r0,$r0,0x0
1c009c6c:	03400000 	andi	$r0,$r0,0x0

1c009c70 <get_count>:
get_count():
/home/132/git_rep/perf/soft/perf_func/lib/time.c:18
        );
    return  _contval;
}

unsigned long get_count()
{
1c009c70:	02bfc063 	addi.w	$r3,$r3,-16(0xff0)
1c009c74:	29803079 	st.w	$r25,$r3,12(0xc)
/home/132/git_rep/perf/soft/perf_func/lib/time.c:7
    asm volatile(
1c009c78:	157f5fd9 	lu12i.w	$r25,-263426(0xbfafe)
1c009c7c:	28800324 	ld.w	$r4,$r25,0
/home/132/git_rep/perf/soft/perf_func/lib/time.c:20
    return  _get_count();
}
1c009c80:	28803079 	ld.w	$r25,$r3,12(0xc)
1c009c84:	02804063 	addi.w	$r3,$r3,16(0x10)
1c009c88:	4c000020 	jirl	$r0,$r1,0
1c009c8c:	03400000 	andi	$r0,$r0,0x0

1c009c90 <_get_count>:
_get_count():
/home/132/git_rep/perf/soft/perf_func/lib/time.c:20
1c009c90:	53ffe3ff 	b	-32(0xfffffe0) # 1c009c70 <get_count>
1c009c94:	03400000 	andi	$r0,$r0,0x0
1c009c98:	03400000 	andi	$r0,$r0,0x0
1c009c9c:	03400000 	andi	$r0,$r0,0x0

1c009ca0 <get_count_my>:
get_count_my():
/home/132/git_rep/perf/soft/perf_func/lib/time.c:25

unsigned long get_count_my()
{
    unsigned long n;
    asm volatile(
1c009ca0:	00006004 	rdtimel.w	$r4,$r0
/home/132/git_rep/perf/soft/perf_func/lib/time.c:30
        "rdcntvl.w %0\n\t"
        :"=r"(n)
        );
    return  n;
}
1c009ca4:	4c000020 	jirl	$r0,$r1,0
1c009ca8:	03400000 	andi	$r0,$r0,0x0
1c009cac:	03400000 	andi	$r0,$r0,0x0

1c009cb0 <clock_gettime>:
clock_gettime():
/home/132/git_rep/perf/soft/perf_func/lib/time.c:33

unsigned long clock_gettime(int sel,struct timespec *tmp)
{
1c009cb0:	02bfc063 	addi.w	$r3,$r3,-16(0xff0)
1c009cb4:	29803079 	st.w	$r25,$r3,12(0xc)
_get_count():
/home/132/git_rep/perf/soft/perf_func/lib/time.c:7
    asm volatile(
1c009cb8:	157f5fd9 	lu12i.w	$r25,-263426(0xbfafe)
1c009cbc:	2880032f 	ld.w	$r15,$r25,0
clock_gettime():
/home/132/git_rep/perf/soft/perf_func/lib/time.c:36
    unsigned long n = 0;
    n = _get_count();
    tmp->tv_nsec = n*(NSEC_PER_USEC/CPU_COUNT_PER_US)%NSEC_PER_USEC;
1c009cc0:	0280280d 	addi.w	$r13,$r0,10(0xa)
1c009cc4:	001c35ed 	mul.w	$r13,$r15,$r13
/home/132/git_rep/perf/soft/perf_func/lib/time.c:37
    tmp->tv_usec = (n/CPU_COUNT_PER_US)%USEC_PER_MSEC;
1c009cc8:	02819011 	addi.w	$r17,$r0,100(0x64)
/home/132/git_rep/perf/soft/perf_func/lib/time.c:38
    tmp->tv_msec = (n/CPU_COUNT_PER_US/USEC_PER_MSEC)%MSEC_PER_SEC;
1c009ccc:	1400030e 	lu12i.w	$r14,24(0x18)
/home/132/git_rep/perf/soft/perf_func/lib/time.c:37
    tmp->tv_usec = (n/CPU_COUNT_PER_US)%USEC_PER_MSEC;
1c009cd0:	002145f0 	div.wu	$r16,$r15,$r17
1c009cd4:	5c000a20 	bne	$r17,$r0,8(0x8) # 1c009cdc <clock_gettime+0x2c>
1c009cd8:	002a0007 	break	0x7
/home/132/git_rep/perf/soft/perf_func/lib/time.c:36
    tmp->tv_nsec = n*(NSEC_PER_USEC/CPU_COUNT_PER_US)%NSEC_PER_USEC;
1c009cdc:	028fa00c 	addi.w	$r12,$r0,1000(0x3e8)
/home/132/git_rep/perf/soft/perf_func/lib/time.c:38
    tmp->tv_msec = (n/CPU_COUNT_PER_US/USEC_PER_MSEC)%MSEC_PER_SEC;
1c009ce0:	039a81ce 	ori	$r14,$r14,0x6a0
/home/132/git_rep/perf/soft/perf_func/lib/time.c:37
    tmp->tv_usec = (n/CPU_COUNT_PER_US)%USEC_PER_MSEC;
1c009ce4:	0021b211 	mod.wu	$r17,$r16,$r12
1c009ce8:	5c000980 	bne	$r12,$r0,8(0x8) # 1c009cf0 <clock_gettime+0x40>
1c009cec:	002a0007 	break	0x7
/home/132/git_rep/perf/soft/perf_func/lib/time.c:38
    tmp->tv_msec = (n/CPU_COUNT_PER_US/USEC_PER_MSEC)%MSEC_PER_SEC;
1c009cf0:	002139f0 	div.wu	$r16,$r15,$r14
1c009cf4:	5c0009c0 	bne	$r14,$r0,8(0x8) # 1c009cfc <clock_gettime+0x4c>
1c009cf8:	002a0007 	break	0x7
1c009cfc:	0021b20e 	mod.wu	$r14,$r16,$r12
1c009d00:	5c000980 	bne	$r12,$r0,8(0x8) # 1c009d08 <clock_gettime+0x58>
1c009d04:	002a0007 	break	0x7
/home/132/git_rep/perf/soft/perf_func/lib/time.c:39
    tmp->tv_sec  = n/CPU_COUNT_PER_US/NSEC_PER_SEC;
1c009d08:	298000a0 	st.w	$r0,$r5,0
/home/132/git_rep/perf/soft/perf_func/lib/time.c:38
    tmp->tv_msec = (n/CPU_COUNT_PER_US/USEC_PER_MSEC)%MSEC_PER_SEC;
1c009d0c:	298030ae 	st.w	$r14,$r5,12(0xc)
/home/132/git_rep/perf/soft/perf_func/lib/time.c:37
    tmp->tv_usec = (n/CPU_COUNT_PER_US)%USEC_PER_MSEC;
1c009d10:	298020b1 	st.w	$r17,$r5,8(0x8)
/home/132/git_rep/perf/soft/perf_func/lib/time.c:42
    //printf("clock ns=%d,sec=%d\n",tmp->tv_nsec,tmp->tv_sec);
    return 0;
}
1c009d14:	28803079 	ld.w	$r25,$r3,12(0xc)
1c009d18:	00150004 	move	$r4,$r0
/home/132/git_rep/perf/soft/perf_func/lib/time.c:36
    tmp->tv_nsec = n*(NSEC_PER_USEC/CPU_COUNT_PER_US)%NSEC_PER_USEC;
1c009d1c:	0021b1ae 	mod.wu	$r14,$r13,$r12
1c009d20:	5c000980 	bne	$r12,$r0,8(0x8) # 1c009d28 <clock_gettime+0x78>
1c009d24:	002a0007 	break	0x7
1c009d28:	298010ae 	st.w	$r14,$r5,4(0x4)
/home/132/git_rep/perf/soft/perf_func/lib/time.c:42
}
1c009d2c:	02804063 	addi.w	$r3,$r3,16(0x10)
1c009d30:	4c000020 	jirl	$r0,$r1,0
1c009d34:	03400000 	andi	$r0,$r0,0x0
1c009d38:	03400000 	andi	$r0,$r0,0x0
1c009d3c:	03400000 	andi	$r0,$r0,0x0

1c009d40 <get_clock>:
get_clock():
/home/132/git_rep/perf/soft/perf_func/lib/time.c:42
1c009d40:	53ff33ff 	b	-208(0xfffff30) # 1c009c70 <get_count>
1c009d44:	03400000 	andi	$r0,$r0,0x0
1c009d48:	03400000 	andi	$r0,$r0,0x0
1c009d4c:	03400000 	andi	$r0,$r0,0x0

1c009d50 <get_ns>:
get_ns():
/home/132/git_rep/perf/soft/perf_func/lib/time.c:52
    n=_get_count();
    return n;
}

unsigned long get_ns(void)
{
1c009d50:	02bfc063 	addi.w	$r3,$r3,-16(0xff0)
1c009d54:	29803079 	st.w	$r25,$r3,12(0xc)
_get_count():
/home/132/git_rep/perf/soft/perf_func/lib/time.c:7
    asm volatile(
1c009d58:	157f5fd9 	lu12i.w	$r25,-263426(0xbfafe)
1c009d5c:	28800324 	ld.w	$r4,$r25,0
get_ns():
/home/132/git_rep/perf/soft/perf_func/lib/time.c:55
    unsigned long n=0;
    n = _get_count();
    n=n*(NSEC_PER_USEC/CPU_COUNT_PER_US);
1c009d60:	0280280c 	addi.w	$r12,$r0,10(0xa)
/home/132/git_rep/perf/soft/perf_func/lib/time.c:57
    return n;
}
1c009d64:	28803079 	ld.w	$r25,$r3,12(0xc)
1c009d68:	001c3084 	mul.w	$r4,$r4,$r12
1c009d6c:	02804063 	addi.w	$r3,$r3,16(0x10)
1c009d70:	4c000020 	jirl	$r0,$r1,0
1c009d74:	03400000 	andi	$r0,$r0,0x0
1c009d78:	03400000 	andi	$r0,$r0,0x0
1c009d7c:	03400000 	andi	$r0,$r0,0x0

1c009d80 <get_us>:
get_us():
/home/132/git_rep/perf/soft/perf_func/lib/time.c:61


unsigned long get_us(void)
{
1c009d80:	02bfc063 	addi.w	$r3,$r3,-16(0xff0)
1c009d84:	29803079 	st.w	$r25,$r3,12(0xc)
_get_count():
/home/132/git_rep/perf/soft/perf_func/lib/time.c:7
    asm volatile(
1c009d88:	157f5fd9 	lu12i.w	$r25,-263426(0xbfafe)
1c009d8c:	28800324 	ld.w	$r4,$r25,0
get_us():
/home/132/git_rep/perf/soft/perf_func/lib/time.c:64
    unsigned long n=0;
    n = _get_count();
    n=n/CPU_COUNT_PER_US;
1c009d90:	0281900c 	addi.w	$r12,$r0,100(0x64)
/home/132/git_rep/perf/soft/perf_func/lib/time.c:66
    return n;
}
1c009d94:	28803079 	ld.w	$r25,$r3,12(0xc)
1c009d98:	0021308d 	div.wu	$r13,$r4,$r12
1c009d9c:	5c000980 	bne	$r12,$r0,8(0x8) # 1c009da4 <get_us+0x24>
1c009da0:	002a0007 	break	0x7
1c009da4:	001501a4 	move	$r4,$r13
1c009da8:	02804063 	addi.w	$r3,$r3,16(0x10)
1c009dac:	4c000020 	jirl	$r0,$r1,0

Disassembly of section .data:

1c080000 <errpat-0x5c4>:
1c080000:	65726f63 	bge	$r27,$r3,94828(0x1726c) # 1c09726c <_end+0x16a2c>
1c080004:	6b72616d 	bltu	$r11,$r13,-36256(0x37260) # 1c077264 <_data_lma+0x6d4b4>
1c080008:	73657420 	vssrani.wu.d	$vr0,$vr1,0x1d
1c08000c:	65622074 	bge	$r3,$r20,90656(0x16220) # 1c09622c <_end+0x159ec>
1c080010:	2e6e6967 	0x2e6e6967
1c080014:	00000000 	0x00000000
1c080018:	65726f63 	bge	$r27,$r3,94828(0x1726c) # 1c097284 <_end+0x16a44>
1c08001c:	6b72616d 	bltu	$r11,$r13,-36256(0x37260) # 1c07727c <_data_lma+0x6d4cc>
1c080020:	53415020 	b	8601936(0x834150) # 1c8b4170 <_stack+0x7b4174>
1c080024:	00002153 	clo.d	$r19,$r10
1c080028:	65726f63 	bge	$r27,$r3,94828(0x1726c) # 1c097294 <_end+0x16a54>
1c08002c:	6b72616d 	bltu	$r11,$r13,-36256(0x37260) # 1c07728c <_data_lma+0x6d4dc>
1c080030:	52524520 	b	75649604(0x4825244) # 208a5274 <_stack+0x47a5278>
1c080034:	2121524f 	sc.w	$r15,$r18,8528(0x2150)
1c080038:	00000021 	0x00000021
1c08003c:	65726f63 	bge	$r27,$r3,94828(0x1726c) # 1c0972a8 <_end+0x16a68>
1c080040:	6b72616d 	bltu	$r11,$r13,-36256(0x37260) # 1c0772a0 <_data_lma+0x6d4f0>
1c080044:	6f54203a 	bgeu	$r1,$r26,-44000(0x35420) # 1c075464 <_data_lma+0x6b6b4>
1c080048:	206c6174 	ll.w	$r20,$r11,27744(0x6c60)
1c08004c:	6e756f43 	bgeu	$r26,$r3,-101012(0x2756c) # 1c0675b8 <_data_lma+0x5d808>
1c080050:	6f532874 	bgeu	$r3,$r20,-44248(0x35328) # 1c075378 <_data_lma+0x6b5c8>
1c080054:	6f632043 	bgeu	$r2,$r3,-40160(0x36320) # 1c076374 <_data_lma+0x6c5c4>
1c080058:	29746e75 	st.h	$r21,$r19,-741(0xd1b)
1c08005c:	30203d20 	vldrepl.w	$vr0,$r9,60(0x3c)
1c080060:	0a782578 	0x0a782578
1c080064:	00000000 	0x00000000
1c080068:	65726f63 	bge	$r27,$r3,94828(0x1726c) # 1c0972d4 <_end+0x16a94>
1c08006c:	6b72616d 	bltu	$r11,$r13,-36256(0x37260) # 1c0772cc <_data_lma+0x6d51c>
1c080070:	6f54203a 	bgeu	$r1,$r26,-44000(0x35420) # 1c075490 <_data_lma+0x6b6e0>
1c080074:	206c6174 	ll.w	$r20,$r11,27744(0x6c60)
1c080078:	6e756f43 	bgeu	$r26,$r3,-101012(0x2756c) # 1c0675e4 <_data_lma+0x5d834>
1c08007c:	50432874 	b	30425896(0x1d04328) # 1dd843a4 <_stack+0x1c843a8>
1c080080:	6f632055 	bgeu	$r2,$r21,-40160(0x36320) # 1c0763a0 <_data_lma+0x6c5f0>
1c080084:	29746e75 	st.h	$r21,$r19,-741(0xd1b)
1c080088:	30203d20 	vldrepl.w	$vr0,$r9,60(0x3c)
1c08008c:	0a782578 	0x0a782578
1c080090:	00000000 	0x00000000
1c080094:	20677261 	ll.w	$r1,$r19,26480(0x6770)
1c080098:	6c25203a 	bgeu	$r1,$r26,9504(0x2520) # 1c0825b8 <_end+0x1d78>
1c08009c:	25202c64 	stptr.w	$r4,$r3,8236(0x202c)
1c0800a0:	202c646c 	ll.w	$r12,$r3,11364(0x2c64)
1c0800a4:	2c646c25 	vst	$vr5,$r1,-1765(0x91b)
1c0800a8:	646c2520 	bge	$r9,$r0,27684(0x6c24) # 1c086ccc <_end+0x648c>
1c0800ac:	6c25202c 	bgeu	$r1,$r12,9504(0x2520) # 1c0825cc <_end+0x1d8c>
1c0800b0:	25202c64 	stptr.w	$r4,$r3,8236(0x202c)
1c0800b4:	202c646c 	ll.w	$r12,$r3,11364(0x2c64)
1c0800b8:	20646c25 	ll.w	$r5,$r1,25708(0x646c)
1c0800bc:	0000000a 	0x0000000a
1c0800c0:	74736574 	xvmin.w	$xr20,$xr11,$xr25
1c0800c4:	61747320 	blt	$r25,$r0,95344(0x17470) # 1c097534 <_end+0x16cf4>
1c0800c8:	00007472 	0x00007472
1c0800cc:	706d6f63 	0x706d6f63
1c0800d0:	74617475 	xvabsd.w	$xr21,$xr3,$xr29
1c0800d4:	206e6f69 	ll.w	$r9,$r27,28268(0x6e6c)
1c0800d8:	656e6f64 	bge	$r27,$r4,93804(0x16e6c) # 1c096f44 <_end+0x16704>
1c0800dc:	00000020 	0x00000020
1c0800e0:	70206b36 	vsubwev.h.b	$vr22,$vr25,$vr26
1c0800e4:	6f667265 	bgeu	$r19,$r5,-39312(0x36670) # 1c076754 <_data_lma+0x6c9a4>
1c0800e8:	6e616d72 	bgeu	$r11,$r18,-106132(0x2616c) # 1c066254 <_data_lma+0x5c4a4>
1c0800ec:	72206563 	0x72206563
1c0800f0:	70206e75 	vsubwev.h.b	$vr21,$vr19,$vr27
1c0800f4:	6d617261 	bgeu	$r19,$r1,90480(0x16170) # 1c096264 <_end+0x15a24>
1c0800f8:	72657465 	0x72657465
1c0800fc:	6f662073 	bgeu	$r3,$r19,-39392(0x36620) # 1c07671c <_data_lma+0x6c96c>
1c080100:	6f632072 	bgeu	$r3,$r18,-40160(0x36320) # 1c076420 <_data_lma+0x6c670>
1c080104:	616d6572 	blt	$r11,$r18,93540(0x16d64) # 1c096e68 <_end+0x16628>
1c080108:	002e6b72 	0x002e6b72
1c08010c:	76206b36 	0x76206b36
1c080110:	64696c61 	bge	$r3,$r1,26988(0x696c) # 1c086a7c <_end+0x623c>
1c080114:	6f697461 	bgeu	$r3,$r1,-38540(0x36974) # 1c076a88 <_data_lma+0x6ccd8>
1c080118:	7572206e 	0x7572206e
1c08011c:	6170206e 	blt	$r3,$r14,94240(0x17020) # 1c09713c <_end+0x168fc>
1c080120:	656d6172 	bge	$r11,$r18,93536(0x16d60) # 1c096e80 <_end+0x16640>
1c080124:	73726574 	0x73726574
1c080128:	726f6620 	0x726f6620
1c08012c:	726f6320 	0x726f6320
1c080130:	72616d65 	0x72616d65
1c080134:	00002e6b 	ctz.d	$r11,$r19
1c080138:	666f7250 	bge	$r18,$r16,-102544(0x26f70) # 1c0670a8 <_data_lma+0x5d2f8>
1c08013c:	20656c69 	ll.w	$r9,$r3,25964(0x656c)
1c080140:	656e6567 	bge	$r11,$r7,93796(0x16e64) # 1c096fa4 <_end+0x16764>
1c080144:	69746172 	bltu	$r11,$r18,95328(0x17460) # 1c0975a4 <_end+0x16d64>
1c080148:	72206e6f 	0x72206e6f
1c08014c:	70206e75 	vsubwev.h.b	$vr21,$vr19,$vr27
1c080150:	6d617261 	bgeu	$r19,$r1,90480(0x16170) # 1c0962c0 <_end+0x15a80>
1c080154:	72657465 	0x72657465
1c080158:	6f662073 	bgeu	$r3,$r19,-39392(0x36620) # 1c076778 <_data_lma+0x6c9c8>
1c08015c:	6f632072 	bgeu	$r3,$r18,-40160(0x36320) # 1c07647c <_data_lma+0x6c6cc>
1c080160:	616d6572 	blt	$r11,$r18,93540(0x16d64) # 1c096ec4 <_end+0x16684>
1c080164:	002e6b72 	0x002e6b72
1c080168:	70204b32 	vsubwev.h.b	$vr18,$vr25,$vr18
1c08016c:	6f667265 	bgeu	$r19,$r5,-39312(0x36670) # 1c0767dc <_data_lma+0x6ca2c>
1c080170:	6e616d72 	bgeu	$r11,$r18,-106132(0x2616c) # 1c0662dc <_data_lma+0x5c52c>
1c080174:	72206563 	0x72206563
1c080178:	70206e75 	vsubwev.h.b	$vr21,$vr19,$vr27
1c08017c:	6d617261 	bgeu	$r19,$r1,90480(0x16170) # 1c0962ec <_end+0x15aac>
1c080180:	72657465 	0x72657465
1c080184:	6f662073 	bgeu	$r3,$r19,-39392(0x36620) # 1c0767a4 <_data_lma+0x6c9f4>
1c080188:	6f632072 	bgeu	$r3,$r18,-40160(0x36320) # 1c0764a8 <_data_lma+0x6c6f8>
1c08018c:	616d6572 	blt	$r11,$r18,93540(0x16d64) # 1c096ef0 <_end+0x166b0>
1c080190:	002e6b72 	0x002e6b72
1c080194:	76204b32 	0x76204b32
1c080198:	64696c61 	bge	$r3,$r1,26988(0x696c) # 1c086b04 <_end+0x62c4>
1c08019c:	6f697461 	bgeu	$r3,$r1,-38540(0x36974) # 1c076b10 <_data_lma+0x6cd60>
1c0801a0:	7572206e 	0x7572206e
1c0801a4:	6170206e 	blt	$r3,$r14,94240(0x17020) # 1c0971c4 <_end+0x16984>
1c0801a8:	656d6172 	bge	$r11,$r18,93536(0x16d60) # 1c096f08 <_end+0x166c8>
1c0801ac:	73726574 	0x73726574
1c0801b0:	726f6620 	0x726f6620
1c0801b4:	726f6320 	0x726f6320
1c0801b8:	72616d65 	0x72616d65
1c0801bc:	00002e6b 	ctz.d	$r11,$r19
1c0801c0:	5d75255b 	bne	$r10,$r27,95524(0x17524) # 1c0976e4 <_end+0x16ea4>
1c0801c4:	4f525245 	jirl	$r5,$r18,-44464(0x35250)
1c0801c8:	6c202152 	bgeu	$r10,$r18,8224(0x2020) # 1c0821e8 <_end+0x19a8>
1c0801cc:	20747369 	ll.w	$r9,$r27,29808(0x7470)
1c0801d0:	20637263 	ll.w	$r3,$r19,25456(0x6370)
1c0801d4:	30257830 	vldrepl.w	$vr16,$r1,1400(0x578)
1c0801d8:	2d207834 	0x2d207834
1c0801dc:	6f687320 	bgeu	$r25,$r0,-38800(0x36870) # 1c076a4c <_data_lma+0x6cc9c>
1c0801e0:	20646c75 	ll.w	$r21,$r3,25708(0x646c)
1c0801e4:	30206562 	vldrepl.w	$vr2,$r11,100(0x64)
1c0801e8:	34302578 	0x34302578
1c0801ec:	00000a78 	0x00000a78
1c0801f0:	5d75255b 	bne	$r10,$r27,95524(0x17524) # 1c097714 <_end+0x16ed4>
1c0801f4:	4f525245 	jirl	$r5,$r18,-44464(0x35250)
1c0801f8:	6d202152 	bgeu	$r10,$r18,73760(0x12020) # 1c092218 <_end+0x119d8>
1c0801fc:	69727461 	bltu	$r3,$r1,94836(0x17274) # 1c097470 <_end+0x16c30>
1c080200:	72632078 	0x72632078
1c080204:	78302063 	0x78302063
1c080208:	78343025 	0x78343025
1c08020c:	73202d20 	0x73202d20
1c080210:	6c756f68 	bgeu	$r27,$r8,30060(0x756c) # 1c08777c <_end+0x6f3c>
1c080214:	65622064 	bge	$r3,$r4,90656(0x16220) # 1c096434 <_end+0x15bf4>
1c080218:	25783020 	stptr.w	$r0,$r1,30768(0x7830)
1c08021c:	0a783430 	0x0a783430
1c080220:	00000000 	0x00000000
1c080224:	5d75255b 	bne	$r10,$r27,95524(0x17524) # 1c097748 <_end+0x16f08>
1c080228:	4f525245 	jirl	$r5,$r18,-44464(0x35250)
1c08022c:	73202152 	0x73202152
1c080230:	65746174 	bge	$r11,$r20,95328(0x17460) # 1c097690 <_end+0x16e50>
1c080234:	63726320 	blt	$r25,$r0,-36256(0x37260) # 1c077494 <_data_lma+0x6d6e4>
1c080238:	25783020 	stptr.w	$r0,$r1,30768(0x7830)
1c08023c:	20783430 	ll.w	$r16,$r1,30772(0x7834)
1c080240:	6873202d 	bltu	$r1,$r13,29472(0x7320) # 1c087560 <_end+0x6d20>
1c080244:	646c756f 	bge	$r11,$r15,27764(0x6c74) # 1c086eb8 <_end+0x6678>
1c080248:	20656220 	ll.w	$r0,$r17,25952(0x6560)
1c08024c:	30257830 	vldrepl.w	$vr16,$r1,1400(0x578)
1c080250:	000a7834 	0x000a7834
1c080254:	65726f43 	bge	$r26,$r3,94828(0x1726c) # 1c0974c0 <_end+0x16c80>
1c080258:	6b72614d 	bltu	$r10,$r13,-36256(0x37260) # 1c0774b8 <_data_lma+0x6d708>
1c08025c:	7a695320 	0x7a695320
1c080260:	20202065 	ll.w	$r5,$r3,8224(0x2020)
1c080264:	25203a20 	stptr.w	$r0,$r17,8248(0x2038)
1c080268:	000a756c 	0x000a756c
1c08026c:	61746f54 	blt	$r26,$r20,95340(0x1746c) # 1c0976d8 <_end+0x16e98>
1c080270:	736e206c 	vssrarni.du.q	$vr12,$vr3,0x8
1c080274:	25203a20 	stptr.w	$r0,$r17,8248(0x2038)
1c080278:	000a756c 	0x000a756c
1c08027c:	72657449 	0x72657449
1c080280:	6f697461 	bgeu	$r3,$r1,-38540(0x36974) # 1c076bf4 <_data_lma+0x6ce44>
1c080284:	532f736e 	b	-38064272(0xdbb2f70) # 19c331f4 <__stack_size+0x19c231f4>
1c080288:	3a206365 	0x3a206365
1c08028c:	756c2520 	0x756c2520
1c080290:	0000000a 	0x0000000a
1c080294:	45524f43 	bnez	$r26,873036(0xd524c) # 1c1554e0 <_stack+0x554e4>
1c080298:	4b52414d 	bcnez	$fcc2,3625536(0x375240) # 1c3f54d8 <_stack+0x2f54dc>
1c08029c:	5a484d2f 	beq	$r9,$r15,-112564(0x2484c) # 1c064ae8 <_data_lma+0x5ad38>
1c0802a0:	28203d20 	ld.b	$r0,$r9,-2033(0x80f)
1c0802a4:	30303031 	0x30303031
1c0802a8:	2e303030 	0x2e303030
1c0802ac:	50432f30 	b	-54508756(0xcc0432c) # 18c845d8 <__stack_size+0x18c745d8>
1c0802b0:	4f435f55 	jirl	$r21,$r26,-48292(0x3435c)
1c0802b4:	5f544e55 	bne	$r18,$r21,-43956(0x3544c) # 1c075700 <_data_lma+0x6b950>
1c0802b8:	5f524550 	bne	$r10,$r16,-44476(0x35244) # 1c0754fc <_data_lma+0x6b74c>
1c0802bc:	2a295355 	ld.bu	$r21,$r26,-1452(0xa54)
1c0802c0:	4345534e 	beqz	$r26,3884368(0x3b4550) # 1c434810 <_stack+0x334814>
1c0802c4:	5245505f 	b	25052496(0x17e4550) # 1d864814 <_stack+0x1764818>
1c0802c8:	4553555f 	bnez	$r10,-175276(0x7d5354) # 1c05561c <_data_lma+0x4b86c>
1c0802cc:	65722a43 	bge	$r18,$r3,94760(0x17228) # 1c0974f4 <_end+0x16cb4>
1c0802d0:	746c7573 	0x746c7573
1c0802d4:	5d305b73 	bne	$r27,$r19,77912(0x13058) # 1c09332c <_end+0x12aec>
1c0802d8:	6574692e 	bge	$r9,$r14,95336(0x17468) # 1c097740 <_end+0x16f00>
1c0802dc:	69746172 	bltu	$r11,$r18,95328(0x17460) # 1c09773c <_end+0x16efc>
1c0802e0:	2f736e6f 	0x2f736e6f
1c0802e4:	61746f74 	blt	$r27,$r20,95340(0x1746c) # 1c097750 <_end+0x16f10>
1c0802e8:	736e5f6c 	vssrarni.du.q	$vr12,$vr27,0x17
1c0802ec:	00000000 	0x00000000
1c0802f0:	65207449 	bge	$r2,$r9,73844(0x12074) # 1c092364 <_end+0x11b24>
1c0802f4:	6c617571 	bgeu	$r11,$r17,24948(0x6174) # 1c086468 <_end+0x5c28>
1c0802f8:	6f742073 	bgeu	$r3,$r19,-35808(0x37420) # 1c077718 <_data_lma+0x6d968>
1c0802fc:	30303120 	0x30303120
1c080300:	30312a30 	0x30312a30
1c080304:	692a3030 	bltu	$r1,$r16,76336(0x12a30) # 1c092d34 <_end+0x124f4>
1c080308:	61726574 	blt	$r11,$r20,94820(0x17264) # 1c09756c <_end+0x16d2c>
1c08030c:	6e6f6974 	bgeu	$r11,$r20,-102552(0x26f68) # 1c067274 <_data_lma+0x5d4c4>
1c080310:	746f742f 	0x746f742f
1c080314:	6e5f6c61 	bgeu	$r3,$r1,-106644(0x25f6c) # 1c066280 <_data_lma+0x5c4d0>
1c080318:	00000073 	0x00000073
1c08031c:	74206e49 	xvsubwev.h.b	$xr9,$xr18,$xr27
1c080320:	20736968 	ll.w	$r8,$r11,29544(0x7368)
1c080324:	2c6e7572 	vst	$vr18,$r11,-1123(0xb9d)
1c080328:	65746920 	bge	$r9,$r0,95336(0x17468) # 1c097790 <_end+0x16f50>
1c08032c:	65746172 	bge	$r11,$r18,95328(0x17460) # 1c09778c <_end+0x16f4c>
1c080330:	756c253d 	0x756c253d
1c080334:	6f74202c 	bgeu	$r1,$r12,-35808(0x37420) # 1c077754 <_data_lma+0x6d9a4>
1c080338:	5f6c6174 	bne	$r11,$r20,-37792(0x36c60) # 1c076f98 <_data_lma+0x6d1e8>
1c08033c:	253d736e 	stptr.w	$r14,$r27,15728(0x3d70)
1c080340:	0a0a756c 	0x0a0a756c
1c080344:	00000000 	0x00000000
1c080348:	61746f54 	blt	$r26,$r20,95340(0x1746c) # 1c0977b4 <_end+0x16f74>
1c08034c:	6974206c 	bltu	$r3,$r12,95264(0x17420) # 1c09776c <_end+0x16f2c>
1c080350:	20736b63 	ll.w	$r3,$r27,29544(0x7368)
1c080354:	20202020 	ll.w	$r0,$r1,8224(0x2020)
1c080358:	25203a20 	stptr.w	$r0,$r17,8248(0x2038)
1c08035c:	000a756c 	0x000a756c
1c080360:	61746f54 	blt	$r26,$r20,95340(0x1746c) # 1c0977cc <_end+0x16f8c>
1c080364:	6974206c 	bltu	$r3,$r12,95264(0x17420) # 1c097784 <_end+0x16f44>
1c080368:	2820656d 	ld.b	$r13,$r11,-2023(0x819)
1c08036c:	73636573 	vssrani.d.q	$vr19,$vr11,0x59
1c080370:	25203a29 	stptr.w	$r9,$r17,8248(0x2038)
1c080374:	00000a64 	0x00000a64
1c080378:	72657449 	0x72657449
1c08037c:	6f697461 	bgeu	$r3,$r1,-38540(0x36974) # 1c076cf0 <_data_lma+0x6cf40>
1c080380:	532f736e 	b	-38064272(0xdbb2f70) # 19c332f0 <__stack_size+0x19c232f0>
1c080384:	20206365 	ll.w	$r5,$r27,8288(0x2060)
1c080388:	25203a20 	stptr.w	$r0,$r17,8248(0x2038)
1c08038c:	00000a64 	0x00000a64
1c080390:	72657449 	0x72657449
1c080394:	6f697461 	bgeu	$r3,$r1,-38540(0x36974) # 1c076d08 <_data_lma+0x6cf58>
1c080398:	2020736e 	ll.w	$r14,$r27,8304(0x2070)
1c08039c:	20202020 	ll.w	$r0,$r1,8224(0x2020)
1c0803a0:	25203a20 	stptr.w	$r0,$r17,8248(0x2038)
1c0803a4:	000a756c 	0x000a756c
1c0803a8:	38434347 	0x38434347
1c0803ac:	302e332e 	vldrepl.w	$vr14,$r25,-464(0xe30)
1c0803b0:	00000000 	0x00000000
1c0803b4:	706d6f43 	0x706d6f43
1c0803b8:	72656c69 	0x72656c69
1c0803bc:	72657620 	0x72657620
1c0803c0:	6e6f6973 	bgeu	$r11,$r19,-102552(0x26f68) # 1c067328 <_data_lma+0x5d578>
1c0803c4:	25203a20 	stptr.w	$r0,$r17,8248(0x2038)
1c0803c8:	00000a73 	0x00000a73
1c0803cc:	706d6f43 	0x706d6f43
1c0803d0:	72656c69 	0x72656c69
1c0803d4:	616c6620 	blt	$r17,$r0,93284(0x16c64) # 1c097038 <_end+0x167f8>
1c0803d8:	20207367 	ll.w	$r7,$r27,8304(0x2070)
1c0803dc:	25203a20 	stptr.w	$r0,$r17,8248(0x2038)
1c0803e0:	00000a73 	0x00000a73
1c0803e4:	61656c50 	blt	$r2,$r16,91500(0x1656c) # 1c096950 <_end+0x16110>
1c0803e8:	70206573 	vsubwev.h.b	$vr19,$vr11,$vr25
1c0803ec:	64207475 	bge	$r3,$r21,8308(0x2074) # 1c082460 <_end+0x1c20>
1c0803f0:	20617461 	ll.w	$r1,$r3,24948(0x6174)
1c0803f4:	6f6d656d 	bgeu	$r11,$r13,-37532(0x36d64) # 1c077158 <_data_lma+0x6d3a8>
1c0803f8:	6c207972 	bgeu	$r11,$r18,8312(0x2078) # 1c082470 <_end+0x1c30>
1c0803fc:	7461636f 	xvabsd.w	$xr15,$xr27,$xr24
1c080400:	206e6f69 	ll.w	$r9,$r27,28268(0x6e6c)
1c080404:	65726568 	bge	$r11,$r8,94820(0x17264) # 1c097668 <_end+0x16e28>
1c080408:	0909090a 	0x0909090a
1c08040c:	672e6528 	bge	$r9,$r8,-53660(0x32e64) # 1c073270 <_data_lma+0x694c0>
1c080410:	6f63202e 	bgeu	$r1,$r14,-40160(0x36320) # 1c076730 <_data_lma+0x6c980>
1c080414:	69206564 	bltu	$r11,$r4,73828(0x12064) # 1c092478 <_end+0x11c38>
1c080418:	6c66206e 	bgeu	$r3,$r14,26144(0x6620) # 1c086a38 <_end+0x61f8>
1c08041c:	2c687361 	vst	$vr1,$r27,-1508(0xa1c)
1c080420:	74616420 	xvabsd.w	$xr0,$xr1,$xr25
1c080424:	6e6f2061 	bgeu	$r3,$r1,-102624(0x26f20) # 1c067344 <_data_lma+0x5d594>
1c080428:	61656820 	blt	$r1,$r0,91496(0x16568) # 1c096990 <_end+0x16150>
1c08042c:	74652070 	xvavg.w	$xr16,$xr3,$xr8
1c080430:	00002963 	cto.d	$r3,$r11
1c080434:	6f6d654d 	bgeu	$r10,$r13,-37532(0x36d64) # 1c077198 <_data_lma+0x6d3e8>
1c080438:	6c207972 	bgeu	$r11,$r18,8312(0x2078) # 1c0824b0 <_end+0x1c70>
1c08043c:	7461636f 	xvabsd.w	$xr15,$xr27,$xr24
1c080440:	206e6f69 	ll.w	$r9,$r27,28268(0x6e6c)
1c080444:	25203a20 	stptr.w	$r0,$r17,8248(0x2038)
1c080448:	00000a73 	0x00000a73
1c08044c:	64656573 	bge	$r11,$r19,25956(0x6564) # 1c0869b0 <_end+0x6170>
1c080450:	20637263 	ll.w	$r3,$r19,25456(0x6370)
1c080454:	20202020 	ll.w	$r0,$r1,8224(0x2020)
1c080458:	20202020 	ll.w	$r0,$r1,8224(0x2020)
1c08045c:	30203a20 	vldrepl.w	$vr0,$r17,56(0x38)
1c080460:	34302578 	0x34302578
1c080464:	00000a78 	0x00000a78
1c080468:	5d64255b 	bne	$r10,$r27,91172(0x16424) # 1c09688c <_end+0x1604c>
1c08046c:	6c637263 	bgeu	$r19,$r3,25456(0x6370) # 1c0867dc <_end+0x5f9c>
1c080470:	20747369 	ll.w	$r9,$r27,29808(0x7470)
1c080474:	20202020 	ll.w	$r0,$r1,8224(0x2020)
1c080478:	203a2020 	ll.w	$r0,$r1,14880(0x3a20)
1c08047c:	30257830 	vldrepl.w	$vr16,$r1,1400(0x578)
1c080480:	000a7834 	0x000a7834
1c080484:	5d64255b 	bne	$r10,$r27,91172(0x16424) # 1c0968a8 <_end+0x16068>
1c080488:	6d637263 	bgeu	$r19,$r3,90992(0x16370) # 1c0967f8 <_end+0x15fb8>
1c08048c:	69727461 	bltu	$r3,$r1,94836(0x17274) # 1c097700 <_end+0x16ec0>
1c080490:	20202078 	ll.w	$r24,$r3,8224(0x2020)
1c080494:	203a2020 	ll.w	$r0,$r1,14880(0x3a20)
1c080498:	30257830 	vldrepl.w	$vr16,$r1,1400(0x578)
1c08049c:	000a7834 	0x000a7834
1c0804a0:	5d64255b 	bne	$r10,$r27,91172(0x16424) # 1c0968c4 <_end+0x16084>
1c0804a4:	73637263 	vssrani.d.q	$vr3,$vr19,0x5c
1c0804a8:	65746174 	bge	$r11,$r20,95328(0x17460) # 1c097908 <_end+0x170c8>
1c0804ac:	20202020 	ll.w	$r0,$r1,8224(0x2020)
1c0804b0:	203a2020 	ll.w	$r0,$r1,14880(0x3a20)
1c0804b4:	30257830 	vldrepl.w	$vr16,$r1,1400(0x578)
1c0804b8:	000a7834 	0x000a7834
1c0804bc:	5d64255b 	bne	$r10,$r27,91172(0x16424) # 1c0968e0 <_end+0x160a0>
1c0804c0:	66637263 	bge	$r19,$r3,-105616(0x26370) # 1c066830 <_data_lma+0x5ca80>
1c0804c4:	6c616e69 	bgeu	$r19,$r9,24940(0x616c) # 1c086630 <_end+0x5df0>
1c0804c8:	20202020 	ll.w	$r0,$r1,8224(0x2020)
1c0804cc:	203a2020 	ll.w	$r0,$r1,14880(0x3a20)
1c0804d0:	30257830 	vldrepl.w	$vr16,$r1,1400(0x578)
1c0804d4:	000a7834 	0x000a7834
1c0804d8:	72726f43 	0x72726f43
1c0804dc:	20746365 	ll.w	$r5,$r27,29792(0x7460)
1c0804e0:	7265706f 	0x7265706f
1c0804e4:	6f697461 	bgeu	$r3,$r1,-38540(0x36974) # 1c076e58 <_data_lma+0x6d0a8>
1c0804e8:	6176206e 	blt	$r3,$r14,95776(0x17620) # 1c097b08 <_end+0x172c8>
1c0804ec:	6164696c 	blt	$r11,$r12,91240(0x16468) # 1c096954 <_end+0x16114>
1c0804f0:	2e646574 	0x2e646574
1c0804f4:	65655320 	bge	$r25,$r0,91472(0x16550) # 1c096a44 <_end+0x16204>
1c0804f8:	61657220 	blt	$r17,$r0,91504(0x16570) # 1c096a68 <_end+0x16228>
1c0804fc:	2e656d64 	0x2e656d64
1c080500:	20747874 	ll.w	$r20,$r3,29816(0x7478)
1c080504:	20726f66 	ll.w	$r6,$r27,29292(0x726c)
1c080508:	206e7572 	ll.w	$r18,$r11,28276(0x6e74)
1c08050c:	20646e61 	ll.w	$r1,$r19,25708(0x646c)
1c080510:	6f706572 	bgeu	$r11,$r18,-36764(0x37064) # 1c077574 <_data_lma+0x6d7c4>
1c080514:	6e697472 	bgeu	$r3,$r18,-104076(0x26974) # 1c066e88 <_data_lma+0x5d0d8>
1c080518:	75722067 	0x75722067
1c08051c:	2e73656c 	0x2e73656c
1c080520:	00000000 	0x00000000
1c080524:	6f727245 	bgeu	$r18,$r5,-36240(0x37270) # 1c077794 <_data_lma+0x6d9e4>
1c080528:	64207372 	bge	$r27,$r18,8304(0x2070) # 1c082598 <_end+0x1d58>
1c08052c:	63657465 	blt	$r3,$r5,-39564(0x36574) # 1c076aa0 <_data_lma+0x6ccf0>
1c080530:	00646574 	bstrins.w	$r20,$r11,0x4,0x19
1c080534:	6e6e6143 	bgeu	$r10,$r3,-102816(0x26e60) # 1c067394 <_data_lma+0x5d5e4>
1c080538:	7620746f 	0x7620746f
1c08053c:	64696c61 	bge	$r3,$r1,26988(0x696c) # 1c086ea8 <_end+0x6668>
1c080540:	20657461 	ll.w	$r1,$r3,25972(0x6574)
1c080544:	7265706f 	0x7265706f
1c080548:	6f697461 	bgeu	$r3,$r1,-38540(0x36974) # 1c076ebc <_data_lma+0x6d10c>
1c08054c:	6f66206e 	bgeu	$r3,$r14,-39392(0x36620) # 1c076b6c <_data_lma+0x6cdbc>
1c080550:	68742072 	bltu	$r3,$r18,29728(0x7420) # 1c087970 <_end+0x7130>
1c080554:	20657365 	ll.w	$r5,$r27,25968(0x6570)
1c080558:	64656573 	bge	$r11,$r19,25956(0x6564) # 1c086abc <_end+0x627c>
1c08055c:	6c617620 	bgeu	$r17,$r0,24948(0x6174) # 1c0866d0 <_end+0x5e90>
1c080560:	2c736575 	vst	$vr21,$r11,-807(0xcd9)
1c080564:	656c7020 	bge	$r1,$r0,93296(0x16c70) # 1c0971d4 <_end+0x16994>
1c080568:	20657361 	ll.w	$r1,$r27,25968(0x6570)
1c08056c:	706d6f63 	0x706d6f63
1c080570:	20657261 	ll.w	$r1,$r19,25968(0x6570)
1c080574:	68746977 	bltu	$r11,$r23,29800(0x7468) # 1c0879dc <_end+0x719c>
1c080578:	73657220 	vssrani.wu.d	$vr0,$vr17,0x1c
1c08057c:	73746c75 	0x73746c75
1c080580:	206e6f20 	ll.w	$r0,$r25,28268(0x6e6c)
1c080584:	6e6b2061 	bgeu	$r3,$r1,-103648(0x26b20) # 1c0670a4 <_data_lma+0x5d2f4>
1c080588:	206e776f 	ll.w	$r15,$r27,28276(0x6e74)
1c08058c:	74616c70 	xvabsd.w	$xr16,$xr3,$xr27
1c080590:	6d726f66 	bgeu	$r27,$r6,94828(0x1726c) # 1c0977fc <_end+0x16fbc>
1c080594:	0000002e 	0x0000002e
1c080598:	74617453 	xvabsd.w	$xr19,$xr2,$xr29
1c08059c:	00006369 	rdtimel.w	$r9,$r27
1c0805a0:	70616548 	vabsd.w	$vr8,$vr10,$vr25
1c0805a4:	00000000 	0x00000000
1c0805a8:	63617453 	blt	$r2,$r19,-40588(0x36174) # 1c07671c <_data_lma+0x6c96c>
1c0805ac:	0000006b 	0x0000006b
1c0805b0:	1c006898 	pcaddu12i	$r24,836(0x344)
1c0805b4:	1c006898 	pcaddu12i	$r24,836(0x344)
1c0805b8:	1c006998 	pcaddu12i	$r24,844(0x34c)
1c0805bc:	1c006998 	pcaddu12i	$r24,844(0x34c)
1c0805c0:	1c0069c8 	pcaddu12i	$r8,846(0x34e)

1c0805c4 <errpat>:
1c0805c4:	1c080604 	pcaddu12i	$r4,16432(0x4030)
1c0805c8:	1c080610 	pcaddu12i	$r16,16432(0x4030)
1c0805cc:	1c08061c 	pcaddu12i	$r28,16432(0x4030)
1c0805d0:	1c080628 	pcaddu12i	$r8,16433(0x4031)

1c0805d4 <scipat>:
1c0805d4:	1c080634 	pcaddu12i	$r20,16433(0x4031)
1c0805d8:	1c080640 	pcaddu12i	$r0,16434(0x4032)
1c0805dc:	1c08064c 	pcaddu12i	$r12,16434(0x4032)
1c0805e0:	1c080658 	pcaddu12i	$r24,16434(0x4032)

1c0805e4 <floatpat>:
1c0805e4:	1c080664 	pcaddu12i	$r4,16435(0x4033)
1c0805e8:	1c080670 	pcaddu12i	$r16,16435(0x4033)
1c0805ec:	1c08067c 	pcaddu12i	$r28,16435(0x4033)
1c0805f0:	1c080688 	pcaddu12i	$r8,16436(0x4034)

1c0805f4 <intpat>:
1c0805f4:	1c080694 	pcaddu12i	$r20,16436(0x4034)
1c0805f8:	1c08069c 	pcaddu12i	$r28,16436(0x4034)
1c0805fc:	1c0806a4 	pcaddu12i	$r4,16437(0x4035)
1c080600:	1c0806ac 	pcaddu12i	$r12,16437(0x4035)
1c080604:	332e3054 	xvstelm.w	$xr20,$r2,-464(0x230),0x3
1c080608:	46312d65 	bnez	$r11,1454380(0x16312c) # 1c1e3734 <_stack+0xe3738>
1c08060c:	00000000 	0x00000000
1c080610:	542e542d 	bl	11808340(0xb42e54) # 1cbc3464 <_stack+0xac3468>
1c080614:	71542b2b 	0x71542b2b
1c080618:	00000000 	0x00000000
1c08061c:	2e335431 	0x2e335431
1c080620:	7a346534 	0x7a346534
1c080624:	00000000 	0x00000000
1c080628:	302e3433 	vldrepl.w	$vr19,$r1,-460(0xe34)
1c08062c:	5e542d65 	bne	$r11,$r5,-109524(0x2542c) # 1c065a58 <_data_lma+0x5bca8>
1c080630:	00000000 	0x00000000
1c080634:	30352e35 	0x30352e35
1c080638:	332b6530 	xvstelm.w	$xr16,$r9,-156(0x364),0x2
1c08063c:	00000000 	0x00000000
1c080640:	32312e2d 	0x32312e2d
1c080644:	322d6533 	xvldrepl.w	$xr19,$r9,-668(0xd64)
1c080648:	00000000 	0x00000000
1c08064c:	6537382d 	bge	$r1,$r13,79672(0x13738) # 1c093d84 <_end+0x13544>
1c080650:	3233382b 	0x3233382b
1c080654:	00000000 	0x00000000
1c080658:	362e302b 	0x362e302b
1c08065c:	32312d65 	0x32312d65
1c080660:	00000000 	0x00000000
1c080664:	352e3533 	0x352e3533
1c080668:	30303434 	0x30303434
1c08066c:	00000000 	0x00000000
1c080670:	3332312e 	xvstelm.w	$xr14,$r9,-464(0x230),0x4
1c080674:	30303534 	0x30303534
1c080678:	00000000 	0x00000000
1c08067c:	3031312d 	0x3031312d
1c080680:	3030372e 	0x3030372e
1c080684:	00000000 	0x00000000
1c080688:	362e302b 	0x362e302b
1c08068c:	30303434 	0x30303434
1c080690:	00000000 	0x00000000
1c080694:	32313035 	0x32313035
1c080698:	00000000 	0x00000000
1c08069c:	34333231 	0x34333231
1c0806a0:	00000000 	0x00000000
1c0806a4:	3437382d 	0x3437382d
1c0806a8:	00000000 	0x00000000
1c0806ac:	3232312b 	0x3232312b
1c0806b0:	00000000 	0x00000000
1c0806b4:	1c009770 	pcaddu12i	$r16,1211(0x4bb)
1c0806b8:	1c009780 	pcaddu12i	$r0,1212(0x4bc)
1c0806bc:	1c009780 	pcaddu12i	$r0,1212(0x4bc)
1c0806c0:	1c009780 	pcaddu12i	$r0,1212(0x4bc)
1c0806c4:	1c009780 	pcaddu12i	$r0,1212(0x4bc)
1c0806c8:	1c009780 	pcaddu12i	$r0,1212(0x4bc)
1c0806cc:	1c009780 	pcaddu12i	$r0,1212(0x4bc)
1c0806d0:	1c009780 	pcaddu12i	$r0,1212(0x4bc)
1c0806d4:	1c009780 	pcaddu12i	$r0,1212(0x4bc)
1c0806d8:	1c009780 	pcaddu12i	$r0,1212(0x4bc)
1c0806dc:	1c009780 	pcaddu12i	$r0,1212(0x4bc)
1c0806e0:	1c009648 	pcaddu12i	$r8,1202(0x4b2)
1c0806e4:	1c009654 	pcaddu12i	$r20,1202(0x4b2)
1c0806e8:	1c009654 	pcaddu12i	$r20,1202(0x4b2)
1c0806ec:	1c009654 	pcaddu12i	$r20,1202(0x4b2)
1c0806f0:	1c009654 	pcaddu12i	$r20,1202(0x4b2)
1c0806f4:	1c009654 	pcaddu12i	$r20,1202(0x4b2)
1c0806f8:	1c009654 	pcaddu12i	$r20,1202(0x4b2)
1c0806fc:	1c009654 	pcaddu12i	$r20,1202(0x4b2)
1c080700:	1c009654 	pcaddu12i	$r20,1202(0x4b2)
1c080704:	1c009654 	pcaddu12i	$r20,1202(0x4b2)
1c080708:	1c009780 	pcaddu12i	$r0,1212(0x4bc)
1c08070c:	1c009780 	pcaddu12i	$r0,1212(0x4bc)
1c080710:	1c009780 	pcaddu12i	$r0,1212(0x4bc)
1c080714:	1c009780 	pcaddu12i	$r0,1212(0x4bc)
1c080718:	1c009780 	pcaddu12i	$r0,1212(0x4bc)
1c08071c:	1c009780 	pcaddu12i	$r0,1212(0x4bc)
1c080720:	1c009780 	pcaddu12i	$r0,1212(0x4bc)
1c080724:	1c009780 	pcaddu12i	$r0,1212(0x4bc)
1c080728:	1c009780 	pcaddu12i	$r0,1212(0x4bc)
1c08072c:	1c009780 	pcaddu12i	$r0,1212(0x4bc)
1c080730:	1c009780 	pcaddu12i	$r0,1212(0x4bc)
1c080734:	1c009780 	pcaddu12i	$r0,1212(0x4bc)
1c080738:	1c009780 	pcaddu12i	$r0,1212(0x4bc)
1c08073c:	1c009780 	pcaddu12i	$r0,1212(0x4bc)
1c080740:	1c009780 	pcaddu12i	$r0,1212(0x4bc)
1c080744:	1c009780 	pcaddu12i	$r0,1212(0x4bc)
1c080748:	1c009780 	pcaddu12i	$r0,1212(0x4bc)
1c08074c:	1c009780 	pcaddu12i	$r0,1212(0x4bc)
1c080750:	1c009780 	pcaddu12i	$r0,1212(0x4bc)
1c080754:	1c009780 	pcaddu12i	$r0,1212(0x4bc)
1c080758:	1c009780 	pcaddu12i	$r0,1212(0x4bc)
1c08075c:	1c009780 	pcaddu12i	$r0,1212(0x4bc)
1c080760:	1c009780 	pcaddu12i	$r0,1212(0x4bc)
1c080764:	1c009780 	pcaddu12i	$r0,1212(0x4bc)
1c080768:	1c009780 	pcaddu12i	$r0,1212(0x4bc)
1c08076c:	1c009780 	pcaddu12i	$r0,1212(0x4bc)
1c080770:	1c009780 	pcaddu12i	$r0,1212(0x4bc)
1c080774:	1c009780 	pcaddu12i	$r0,1212(0x4bc)
1c080778:	1c009780 	pcaddu12i	$r0,1212(0x4bc)
1c08077c:	1c009780 	pcaddu12i	$r0,1212(0x4bc)
1c080780:	1c009780 	pcaddu12i	$r0,1212(0x4bc)
1c080784:	1c009780 	pcaddu12i	$r0,1212(0x4bc)
1c080788:	1c009780 	pcaddu12i	$r0,1212(0x4bc)
1c08078c:	1c009780 	pcaddu12i	$r0,1212(0x4bc)
1c080790:	1c009780 	pcaddu12i	$r0,1212(0x4bc)
1c080794:	1c009780 	pcaddu12i	$r0,1212(0x4bc)
1c080798:	1c009780 	pcaddu12i	$r0,1212(0x4bc)
1c08079c:	1c009780 	pcaddu12i	$r0,1212(0x4bc)
1c0807a0:	1c009780 	pcaddu12i	$r0,1212(0x4bc)
1c0807a4:	1c009780 	pcaddu12i	$r0,1212(0x4bc)
1c0807a8:	1c009694 	pcaddu12i	$r20,1204(0x4b4)
1c0807ac:	1c0096b0 	pcaddu12i	$r16,1205(0x4b5)
1c0807b0:	1c0096c4 	pcaddu12i	$r4,1206(0x4b6)
1c0807b4:	1c009780 	pcaddu12i	$r0,1212(0x4bc)
1c0807b8:	1c009780 	pcaddu12i	$r0,1212(0x4bc)
1c0807bc:	1c009780 	pcaddu12i	$r0,1212(0x4bc)
1c0807c0:	1c009780 	pcaddu12i	$r0,1212(0x4bc)
1c0807c4:	1c009780 	pcaddu12i	$r0,1212(0x4bc)
1c0807c8:	1c009780 	pcaddu12i	$r0,1212(0x4bc)
1c0807cc:	1c009780 	pcaddu12i	$r0,1212(0x4bc)
1c0807d0:	1c0096e0 	pcaddu12i	$r0,1207(0x4b7)
1c0807d4:	1c009780 	pcaddu12i	$r0,1212(0x4bc)
1c0807d8:	1c009780 	pcaddu12i	$r0,1212(0x4bc)
1c0807dc:	1c009700 	pcaddu12i	$r0,1208(0x4b8)
1c0807e0:	1c009720 	pcaddu12i	$r0,1209(0x4b9)
1c0807e4:	1c009780 	pcaddu12i	$r0,1212(0x4bc)
1c0807e8:	1c009780 	pcaddu12i	$r0,1212(0x4bc)
1c0807ec:	1c009740 	pcaddu12i	$r0,1210(0x4ba)
1c0807f0:	1c009780 	pcaddu12i	$r0,1212(0x4bc)
1c0807f4:	1c009754 	pcaddu12i	$r20,1210(0x4ba)
1c0807f8:	1c009780 	pcaddu12i	$r0,1212(0x4bc)
1c0807fc:	1c009780 	pcaddu12i	$r0,1212(0x4bc)
1c080800:	1c009720 	pcaddu12i	$r0,1209(0x4b9)

1c080804 <mem_name>:
rodata_end():
1c080804:	1c080598 	pcaddu12i	$r24,16428(0x402c)
1c080808:	1c0805a0 	pcaddu12i	$r0,16429(0x402d)
1c08080c:	1c0805a8 	pcaddu12i	$r8,16429(0x402d)

1c080810 <default_num_contexts>:
1c080810:	00000001 	0x00000001
1c080814:	00000000 	0x00000000

Disassembly of section .got:

1c080818 <_GLOBAL_OFFSET_TABLE_>:
1c080818:	00000000 	0x00000000
1c08081c:	1c080810 	pcaddu12i	$r16,16448(0x4040)

Disassembly of section .bss:

1c080820 <__bss_start>:
	...

1c080830 <start_time_val>:
	...

Disassembly of section .stack:

1c0f0000 <_stack-0xfffc>:
	...

Disassembly of section .comment:

00000000 <.comment>:
   0:	3a434347 	0x3a434347
   4:	6f4c2820 	bgeu	$r1,$r0,-46040(0x34c28) # ffff4c2c <_stack+0xe3ef4c30>
   8:	41676e6f 	beqz	$r19,4024172(0x3d676c) # 3d6774 <__stack_size+0x3c6774>
   c:	20686372 	ll.w	$r18,$r27,26720(0x6860)
  10:	20554e47 	ll.w	$r7,$r18,21836(0x554c)
  14:	6c6f6f74 	bgeu	$r27,$r20,28524(0x6f6c) # 6f80 <__stack_size-0x9080>
  18:	69616863 	bltu	$r3,$r3,90472(0x16168) # 16180 <__stack_size+0x6180>
  1c:	414c206e 	beqz	$r3,3755040(0x394c20) # 394c3c <__stack_size+0x384c3c>
  20:	76203233 	0x76203233
  24:	20302e32 	ll.w	$r18,$r17,12332(0x302c)
  28:	32303228 	0x32303228
  2c:	30393033 	0x30393033
  30:	20292933 	ll.w	$r19,$r9,10536(0x2928)
  34:	2e332e38 	0x2e332e38
  38:	Address 0x0000000000000038 is out of bounds.


Disassembly of section .debug_info:

00000000 <.debug_info>:
   0:	00000268 	0x00000268
   4:	00000004 	0x00000004
   8:	01040000 	0x01040000
   c:	00000018 	0x00000018
  10:	0000b30c 	0x0000b30c
  14:	0000bc00 	0x0000bc00
  18:	00955000 	bstrins.d	$r0,$r0,0x15,0x14
  1c:	00023c1c 	0x00023c1c
  20:	00000000 	0x00000000
  24:	03040200 	lu52i.d	$r0,$r16,256(0x100)
  28:	000b0704 	0x000b0704
  2c:	04030000 	csrrd	$r0,0xc0
  30:	00000607 	0x00000607
  34:	00e60400 	bstrpick.d	$r0,$r0,0x26,0x1
  38:	01010000 	fadd.d	$f0,$f0,$f0
  3c:	00022805 	0x00022805
  40:	00955000 	bstrins.d	$r0,$r0,0x15,0x14
  44:	00023c1c 	0x00023c1c
  48:	289c0100 	ld.w	$r0,$r8,1792(0x700)
  4c:	05000002 	0x05000002
  50:	00746d66 	bstrins.w	$r6,$r11,0x14,0x1b
  54:	2f180101 	0x2f180101
  58:	08000002 	0x08000002
  5c:	00000000 	0x00000000
  60:	06000000 	cacop	0x0,$r0,0
  64:	01006907 	0x01006907
  68:	02280503 	slti	$r3,$r8,-1535(0xa01)
  6c:	00710000 	bstrins.w	$r0,$r0,0x11,0x0
  70:	003f0000 	0x003f0000
  74:	63070000 	blt	$r0,$r0,-63744(0x30700) # ffff0774 <_stack+0xe3ef0778>
  78:	06040100 	cacop	0x0,$r8,256(0x100)
  7c:	00000235 	0x00000235
  80:	000001a9 	0x000001a9
  84:	000001a3 	0x000001a3
  88:	67726107 	bge	$r8,$r7,-36256(0x37260) # ffff72e8 <_stack+0xe3ef72ec>
  8c:	08050100 	0x08050100
  90:	00000241 	0x00000241
  94:	000001f6 	0x000001f6
  98:	000001d2 	0x000001d2
  9c:	00706108 	bstrins.w	$r8,$r8,0x10,0x18
  a0:	25070601 	stptr.w	$r1,$r16,1796(0x704)
  a4:	03000000 	lu52i.d	$r0,$r0,0
  a8:	077fbc91 	0x077fbc91
  ac:	07010077 	0x07010077
  b0:	00022805 	0x00022805
  b4:	0002f000 	0x0002f000
  b8:	0002d400 	0x0002d400
  bc:	00000900 	0x00000900
  c0:	10010000 	addu16i.d	$r0,$r0,64(0x40)
  c4:	0095fc01 	bstrins.d	$r1,$r0,0x15,0x3f
  c8:	00180a1c 	sra.w	$r28,$r16,$r2
  cc:	01d00000 	0x01d00000
  d0:	a90b0000 	0xa90b0000
  d4:	01000000 	0x01000000
  d8:	02280514 	slti	$r20,$r8,-1535(0xa01)
  dc:	00e40000 	bstrpick.d	$r0,$r0,0x24,0x0
  e0:	00060000 	alsl.wu	$r0,$r0,$r0,0x1
  e4:	0000f10b 	0x0000f10b
  e8:	05190100 	0x05190100
  ec:	00000228 	0x00000228
  f0:	000000f6 	0x000000f6
  f4:	9f0b0006 	0x9f0b0006
  f8:	01000000 	0x01000000
  fc:	0228051e 	slti	$r30,$r8,-1535(0xa01)
 100:	01080000 	0x01080000
 104:	00060000 	alsl.wu	$r0,$r0,$r0,0x1
 108:	0096ac0c 	bstrins.d	$r12,$r0,0x16,0x2b
 10c:	0002471c 	0x0002471c
 110:	00012000 	asrtle.d	$r0,$r8
 114:	56010d00 	bl	67240204(0x402010c) # 4020220 <__stack_size+0x4010220>
 118:	010d3201 	fmaxa.d	$f1,$f16,$f12
 11c:	00300157 	0x00300157
 120:	0096c00e 	bstrins.d	$r14,$r0,0x16,0x30
 124:	0002531c 	0x0002531c
 128:	96dc0c00 	0x96dc0c00
 12c:	02471c00 	sltui	$r0,$r0,455(0x1c7)
 130:	01410000 	0x01410000
 134:	010d0000 	fmaxa.d	$f0,$f0,$f0
 138:	0d3a0156 	0x0d3a0156
 13c:	31015701 	0x31015701
 140:	96f80c00 	0x96f80c00
 144:	02471c00 	sltui	$r0,$r0,455(0x1c7)
 148:	01590000 	0x01590000
 14c:	010d0000 	fmaxa.d	$f0,$f0,$f0
 150:	0d3a0156 	0x0d3a0156
 154:	30015701 	0x30015701
 158:	97180c00 	0x97180c00
 15c:	02471c00 	sltui	$r0,$r0,455(0x1c7)
 160:	01720000 	0x01720000
 164:	010d0000 	fmaxa.d	$f0,$f0,$f0
 168:	008b0256 	bstrins.d	$r22,$r18,0xb,0x0
 16c:	0157010d 	0x0157010d
 170:	380c0030 	ldx.d	$r16,$r1,$r0
 174:	471c0097 	bnez	$r4,-2155520(0x5f1c00) # ffdf1d74 <_stack+0xe3cf1d78>
 178:	8a000002 	0x8a000002
 17c:	0d000001 	fsel	$f1,$f0,$f0,$fcc0
 180:	40015601 	beqz	$r16,262484(0x40154) # 402d4 <__stack_size+0x302d4>
 184:	0157010d 	0x0157010d
 188:	500e0030 	b	12586496(0xc00e00) # c00f88 <__stack_size+0xbf0f88>
 18c:	5f1c0097 	bne	$r4,$r23,-58368(0x31c00) # ffff1d8c <_stack+0xe3ef1d90>
 190:	0c000002 	0x0c000002
 194:	1c00976c 	pcaddu12i	$r12,1211(0x4bb)
 198:	00000247 	0x00000247
 19c:	000001ab 	0x000001ab
 1a0:	0156010d 	0x0156010d
 1a4:	57010d3a 	bl	82510092(0x4eb010c) # 4eb02b0 <__stack_size+0x4ea02b0>
 1a8:	0c003001 	0x0c003001
 1ac:	1c00977c 	pcaddu12i	$r28,1211(0x4bb)
 1b0:	00000253 	0x00000253
 1b4:	000001bf 	0x000001bf
 1b8:	0254010d 	sltui	$r13,$r8,1280(0x500)
 1bc:	0f002508 	0x0f002508
 1c0:	1c009788 	pcaddu12i	$r8,1212(0x4bc)
 1c4:	00000253 	0x00000253
 1c8:	0254010d 	sltui	$r13,$r8,1280(0x500)
 1cc:	00002508 	clz.d	$r8,$r8
 1d0:	00000010 	0x00000010
 1d4:	00f10b00 	bstrpick.d	$r0,$r24,0x31,0x2
 1d8:	19010000 	pcaddi	$r0,-522240(0x80800)
 1dc:	00022805 	0x00022805
 1e0:	0001e700 	asrtgt.d	$r24,$r25
 1e4:	11000600 	addu16i.d	$r0,$r16,16385(0x4001)
 1e8:	1c0095dc 	pcaddu12i	$r28,1198(0x4ae)
 1ec:	00000014 	0x00000014
 1f0:	00000216 	0x00000216
 1f4:	0000f10b 	0x0000f10b
 1f8:	05190100 	0x05190100
 1fc:	00000228 	0x00000228
 200:	00000206 	0x00000206
 204:	e40f0006 	0xe40f0006
 208:	531c0095 	b	39263232(0x2571c00) # 2571e08 <__stack_size+0x2561e08>
 20c:	0d000002 	fsel	$f2,$f0,$f0,$fcc0
 210:	3d015401 	0x3d015401
 214:	bc0f0000 	0xbc0f0000
 218:	531c0095 	b	39263232(0x2571c00) # 2571e18 <__stack_size+0x2561e18>
 21c:	0d000002 	fsel	$f2,$f0,$f0,$fcc0
 220:	87025401 	0x87025401
 224:	00000000 	0x00000000
 228:	69050412 	bltu	$r0,$r18,66820(0x10504) # 1072c <__stack_size+0x72c>
 22c:	1300746e 	addu16i.d	$r14,$r3,-16355(0xc01d)
 230:	00023c04 	0x00023c04
 234:	06010300 	cacop	0x0,$r24,64(0x40)
 238:	000000f4 	0x000000f4
 23c:	00023514 	0x00023514
 240:	25041300 	stptr.w	$r0,$r24,1040(0x410)
 244:	15000000 	lu12i.w	$r0,-524288(0x80000)
 248:	0000009f 	0x0000009f
 24c:	0000009f 	0x0000009f
 250:	15051e01 	lu12i.w	$r1,-513808(0x828f0)
 254:	000000f1 	0x000000f1
 258:	000000f1 	0x000000f1
 25c:	15051901 	lu12i.w	$r1,-513848(0x828c8)
 260:	000000a9 	0x000000a9
 264:	000000a9 	0x000000a9
 268:	00051401 	alsl.w	$r1,$r0,$r5,0x3
 26c:	000000c4 	0x000000c4
 270:	011e0004 	0x011e0004
 274:	01040000 	0x01040000
 278:	00000018 	0x00000018
 27c:	0000f90c 	0x0000f90c
 280:	0000bc00 	0x0000bc00
 284:	00979000 	bstrins.d	$r0,$r0,0x17,0x24
 288:	0000541c 	bitrev.d	$r28,$r0
 28c:	0001a800 	asrtgt.d	$r0,$r10
 290:	07040200 	0x07040200
 294:	0000000b 	0x0000000b
 298:	06070402 	cacop	0x2,$r0,449(0x1c1)
 29c:	03000000 	lu52i.d	$r0,$r0,0
 2a0:	000000ed 	0x000000ed
 2a4:	01060701 	0x01060701
 2a8:	0000004b 	0x0000004b
 2ac:	01006304 	0x01006304
 2b0:	004b0607 	0x004b0607
 2b4:	05000000 	0x05000000
 2b8:	6e690504 	bgeu	$r8,$r4,-104188(0x26904) # fffe6bbc <_stack+0xe3ee6bc0>
 2bc:	f1060074 	0xf1060074
 2c0:	01000000 	0x01000000
 2c4:	004b0501 	0x004b0501
 2c8:	97900000 	0x97900000
 2cc:	00281c00 	0x00281c00
 2d0:	9c010000 	0x9c010000
 2d4:	000000b0 	0x000000b0
 2d8:	01006307 	0x01006307
 2dc:	004b1101 	0x004b1101
 2e0:	03970000 	ori	$r0,$r0,0x5c0
 2e4:	03930000 	ori	$r0,$r0,0x4c0
 2e8:	ed080000 	0xed080000
 2ec:	01000000 	0x01000000
 2f0:	004b0103 	0x004b0103
 2f4:	00900000 	bstrins.d	$r0,$r0,0x10,0x0
 2f8:	00090000 	bytepick.w	$r0,$r0,$r0,0x2
 2fc:	0000330a 	revb.2h	$r10,$r24
 300:	00979000 	bstrins.d	$r0,$r0,0x17,0x24
 304:	0030021c 	0x0030021c
 308:	03010000 	lu52i.d	$r0,$r0,64(0x40)
 30c:	00400b01 	0x00400b01
 310:	03ba0000 	ori	$r0,$r0,0xe80
 314:	03b80000 	ori	$r0,$r0,0xe00
 318:	00000000 	0x00000000
 31c:	0000330c 	revb.2h	$r12,$r24
 320:	0097c000 	bstrins.d	$r0,$r0,0x17,0x30
 324:	0000241c 	clz.d	$r28,$r0
 328:	0d9c0100 	0x0d9c0100
 32c:	00000040 	0x00000040
 330:	00005401 	bitrev.d	$r1,$r0
 334:	00000170 	0x00000170
 338:	01ef0004 	0x01ef0004
 33c:	01040000 	0x01040000
 340:	00000018 	0x00000018
 344:	0001030c 	0x0001030c
 348:	0000bc00 	0x0000bc00
 34c:	0097f000 	bstrins.d	$r0,$r0,0x17,0x3c
 350:	0000ac1c 	0x0000ac1c
 354:	00020900 	0x00020900
 358:	07040200 	0x07040200
 35c:	0000000b 	0x0000000b
 360:	06070402 	cacop	0x2,$r0,449(0x1c1)
 364:	03000000 	lu52i.d	$r0,$r0,0
 368:	0000010a 	0x0000010a
 36c:	a9050e01 	0xa9050e01
 370:	70000000 	vseq.b	$vr0,$vr0,$vr0
 374:	2c1c0098 	vld	$vr24,$r4,1792(0x700)
 378:	01000000 	0x01000000
 37c:	0000a99c 	0x0000a99c
 380:	00730400 	bstrins.w	$r0,$r0,0x13,0x1
 384:	b0100e01 	0xb0100e01
 388:	d1000000 	0xd1000000
 38c:	cd000003 	0xcd000003
 390:	05000003 	0x05000003
 394:	000000f1 	0x000000f1
 398:	a9100601 	0xa9100601
 39c:	71000000 	0x71000000
 3a0:	06000000 	cacop	0x0,$r0,0
 3a4:	987c0700 	0x987c0700
 3a8:	00bd1c00 	bstrins.d	$r0,$r0,0x3d,0x7
 3ac:	00860000 	bstrins.d	$r0,$r0,0x6,0x0
 3b0:	01080000 	0x01080000
 3b4:	01f30354 	0x01f30354
 3b8:	84070054 	0x84070054
 3bc:	671c0098 	bge	$r4,$r24,-58368(0x31c00) # ffff1fbc <_stack+0xe3ef1fc0>
 3c0:	99000001 	0x99000001
 3c4:	08000000 	0x08000000
 3c8:	3d015401 	0x3d015401
 3cc:	988c0900 	0x988c0900
 3d0:	01671c00 	0x01671c00
 3d4:	01080000 	0x01080000
 3d8:	003a0154 	0x003a0154
 3dc:	05040a00 	0x05040a00
 3e0:	00746e69 	bstrins.w	$r9,$r19,0x14,0x1b
 3e4:	00b6040b 	bstrins.d	$r11,$r0,0x36,0x1
 3e8:	01020000 	0x01020000
 3ec:	0000f406 	0x0000f406
 3f0:	00a90300 	bstrins.d	$r0,$r24,0x29,0x0
 3f4:	01010000 	fadd.d	$f0,$f0,$f0
 3f8:	0000a905 	0x0000a905
 3fc:	0097f000 	bstrins.d	$r0,$r0,0x17,0x3c
 400:	0000741c 	0x0000741c
 404:	679c0100 	bge	$r8,$r0,-25600(0x39c00) # ffffa004 <_stack+0xe3efa008>
 408:	04000001 	csrrd	$r1,0x0
 40c:	01010073 	fadd.d	$f19,$f3,$f0
 410:	0000b015 	0x0000b015
 414:	0003fc00 	0x0003fc00
 418:	0003f200 	0x0003f200
 41c:	00630c00 	bstrins.w	$r0,$r0,0x3,0x3
 420:	b6060301 	0xb6060301
 424:	41000000 	beqz	$r0,65536(0x10000) # 10424 <__stack_size+0x424>
 428:	3f000004 	0x3f000004
 42c:	0d000004 	fsel	$f4,$f0,$f0,$fcc0
 430:	00000048 	0x00000048
 434:	0000f105 	0x0000f105
 438:	10060100 	addu16i.d	$r0,$r8,384(0x180)
 43c:	000000a9 	0x000000a9
 440:	00000112 	0x00000112
 444:	300e0006 	0x300e0006
 448:	081c0098 	fmadd.s	$f24,$f4,$f0,$f24
 44c:	41000000 	beqz	$r0,65536(0x10000) # 1044c <__stack_size+0x44c>
 450:	05000001 	0x05000001
 454:	000000f1 	0x000000f1
 458:	a9100601 	0xa9100601
 45c:	31000000 	0x31000000
 460:	06000001 	cacop	0x1,$r0,0
 464:	98380900 	0x98380900
 468:	01671c00 	0x01671c00
 46c:	01080000 	0x01080000
 470:	003d0154 	0x003d0154
 474:	98200700 	0x98200700
 478:	01671c00 	0x01671c00
 47c:	01550000 	0x01550000
 480:	01080000 	0x01080000
 484:	00870254 	bstrins.d	$r20,$r18,0x7,0x0
 488:	98400900 	0x98400900
 48c:	01671c00 	0x01671c00
 490:	01080000 	0x01080000
 494:	00870254 	bstrins.d	$r20,$r18,0x7,0x0
 498:	0f000000 	0x0f000000
 49c:	000000f1 	0x000000f1
 4a0:	000000f1 	0x000000f1
 4a4:	00100601 	add.w	$r1,$r16,$r1
 4a8:	00000177 	0x00000177
 4ac:	02cb0004 	addi.d	$r4,$r0,704(0x2c0)
 4b0:	01040000 	0x01040000
 4b4:	00000018 	0x00000018
 4b8:	00010f0c 	0x00010f0c
 4bc:	0000bc00 	0x0000bc00
 4c0:	0098a000 	bstrins.d	$r0,$r0,0x18,0x28
 4c4:	0000ec1c 	0x0000ec1c
 4c8:	0002a100 	0x0002a100
 4cc:	07040200 	0x07040200
 4d0:	0000000b 	0x0000000b
 4d4:	06070402 	cacop	0x2,$r0,449(0x1c1)
 4d8:	03000000 	lu52i.d	$r0,$r0,0
 4dc:	0000009f 	0x0000009f
 4e0:	49050101 	bcnez	$fcc0,328960(0x50500) # 509e0 <__stack_size+0x409e0>
 4e4:	a0000001 	0xa0000001
 4e8:	ec1c0098 	0xec1c0098
 4ec:	01000000 	0x01000000
 4f0:	0001499c 	0x0001499c
 4f4:	00760400 	bstrins.w	$r0,$r0,0x16,0x1
 4f8:	50140101 	b	67376128(0x4041400) # 40418f8 <__stack_size+0x40318f8>
 4fc:	60000001 	blt	$r0,$r1,0 # 4fc <__stack_size-0xfb04>
 500:	54000004 	bl	1048576(0x100000) # 100500 <__stack_size+0xf0500>
 504:	04000004 	csrrd	$r4,0x0
 508:	01010077 	fadd.d	$f23,$f3,$f0
 50c:	0001491a 	0x0001491a
 510:	0004ba00 	alsl.w	$r0,$r16,$r14,0x2
 514:	0004b000 	alsl.w	$r0,$r0,$r12,0x2
 518:	00a40500 	bstrins.d	$r0,$r8,0x24,0x1
 51c:	01010000 	fadd.d	$f0,$f0,$f0
 520:	00014920 	asrtle.d	$r9,$r18
 524:	00050800 	alsl.w	$r0,$r0,$r2,0x3
 528:	0004fe00 	alsl.w	$r0,$r16,$r31,0x2
 52c:	01210500 	0x01210500
 530:	01010000 	fadd.d	$f0,$f0,$f0
 534:	00014929 	0x00014929
 538:	00055600 	alsl.w	$r0,$r16,$r21,0x3
 53c:	00054c00 	alsl.w	$r0,$r0,$r19,0x3
 540:	00690600 	bstrins.w	$r0,$r16,0x9,0x1
 544:	49060301 	0x49060301
 548:	a7000001 	0xa7000001
 54c:	9b000005 	0x9b000005
 550:	06000005 	cacop	0x5,$r0,0
 554:	0301006a 	lu52i.d	$r10,$r3,64(0x40)
 558:	00014908 	0x00014908
 55c:	00060400 	alsl.wu	$r0,$r0,$r1,0x1
 560:	0005fa00 	alsl.w	$r0,$r16,$r30,0x4
 564:	00630600 	bstrins.w	$r0,$r16,0x3,0x1
 568:	49060401 	bceqz	$fcc0,329220(0x50604) # 50b6c <__stack_size+0x40b6c>
 56c:	53000001 	b	458752(0x70000) # 7056c <__stack_size+0x6056c>
 570:	51000006 	b	1638400(0x190000) # 190570 <__stack_size+0x180570>
 574:	07000006 	0x07000006
 578:	00667562 	bstrins.w	$r2,$r11,0x6,0x1d
 57c:	57070501 	bl	67569412(0x4070704) # 4070c80 <__stack_size+0x4060c80>
 580:	03000001 	lu52i.d	$r1,$r0,0
 584:	087fb091 	0x087fb091
 588:	0000011b 	0x0000011b
 58c:	2c100601 	vld	$vr1,$r16,1025(0x401)
 590:	76000000 	0x76000000
 594:	66000006 	bge	$r0,$r6,-131072(0x20000) # fffe0594 <_stack+0xe3ee0598>
 598:	09000006 	0x09000006
 59c:	1c009960 	pcaddu12i	$r0,1227(0x4cb)
 5a0:	00000020 	0x00000020
 5a4:	00000123 	0x00000123
 5a8:	0000f10a 	0x0000f10a
 5ac:	020a0100 	slti	$r0,$r8,640(0x280)
 5b0:	00000149 	0x00000149
 5b4:	00000112 	0x00000112
 5b8:	700c000b 	vsub.b	$vr11,$vr0,$vr0
 5bc:	6e1c0099 	bgeu	$r4,$r25,-123904(0x21c00) # fffe21bc <_stack+0xe3ee21c0>
 5c0:	0d000001 	fsel	$f1,$f0,$f0,$fcc0
 5c4:	08025401 	0x08025401
 5c8:	0e00002d 	0x0e00002d
 5cc:	1c009908 	pcaddu12i	$r8,1224(0x4c8)
 5d0:	00000030 	0x00000030
 5d4:	0000f10a 	0x0000f10a
 5d8:	020a0100 	slti	$r0,$r8,640(0x280)
 5dc:	00000149 	0x00000149
 5e0:	0000013e 	0x0000013e
 5e4:	380f000b 	0x380f000b
 5e8:	6e1c0099 	bgeu	$r4,$r25,-123904(0x21c00) # fffe21e8 <_stack+0xe3ee21ec>
 5ec:	00000001 	0x00000001
 5f0:	05041000 	0x05041000
 5f4:	00746e69 	bstrins.w	$r9,$r19,0x14,0x1b
 5f8:	26050402 	ldptr.d	$r2,$r0,1284(0x504)
 5fc:	11000001 	addu16i.d	$r1,$r0,16384(0x4000)
 600:	00000167 	0x00000167
 604:	00000167 	0x00000167
 608:	00002512 	clz.d	$r18,$r8
 60c:	02003f00 	slti	$r0,$r24,15(0xf)
 610:	00f40601 	bstrpick.d	$r1,$r16,0x34,0x1
 614:	f1130000 	0xf1130000
 618:	f1000000 	0xf1000000
 61c:	01000000 	0x01000000
 620:	da00020a 	0xda00020a
 624:	04000004 	csrrd	$r4,0x0
 628:	0003e900 	0x0003e900
 62c:	18010400 	pcaddi	$r0,2080(0x820)
 630:	0c000000 	0x0c000000
 634:	0000013c 	0x0000013c
 638:	000000bc 	0x000000bc
 63c:	00000060 	0x00000060
 640:	00000000 	0x00000000
 644:	0000038d 	0x0000038d
 648:	04030402 	csrrd	$r2,0xc1
 64c:	00000b07 	0x00000b07
 650:	07040300 	0x07040300
 654:	00000006 	0x00000006
 658:	00014504 	0x00014504
 65c:	160f0200 	lu32i.d	$r0,30736(0x7810)
 660:	00000027 	0x00000027
 664:	00013605 	0x00013605
 668:	01570100 	0x01570100
 66c:	009c5006 	bstrins.d	$r6,$r0,0x1c,0x14
 670:	0000181c 	cto.w	$r28,$r0
 674:	cd9c0100 	0xcd9c0100
 678:	06000000 	cacop	0x0,$r0,0
 67c:	57010073 	bl	30343424(0x1cf0100) # 1cf077c <__stack_size+0x1ce077c>
 680:	00251201 	crc.w.w.w	$r1,$r16,$r4
 684:	06da0000 	0x06da0000
 688:	06d60000 	0x06d60000
 68c:	6e060000 	bgeu	$r0,$r0,-129536(0x20600) # fffe0c8c <_stack+0xe3ee0c90>
 690:	01570100 	0x01570100
 694:	0000351c 	revb.4h	$r28,$r8
 698:	0006ff00 	alsl.wu	$r0,$r24,$r31,0x2
 69c:	0006fb00 	alsl.wu	$r0,$r24,$r30,0x2
 6a0:	02640700 	sltui	$r0,$r24,-1791(0x901)
 6a4:	9c500000 	0x9c500000
 6a8:	50021c00 	b	540(0x21c) # 8c4 <__stack_size-0xf73c>
 6ac:	141c009c 	lu12i.w	$r28,57348(0xe004)
 6b0:	01000000 	0x01000000
 6b4:	08020158 	0x08020158
 6b8:	00000289 	0x00000289
 6bc:	00000726 	0x00000726
 6c0:	00000720 	0x00000720
 6c4:	00027f09 	0x00027f09
 6c8:	75080000 	0x75080000
 6cc:	5a000002 	beq	$r0,$r2,-131072(0x20000) # fffe06cc <_stack+0xe3ee06d0>
 6d0:	56000007 	bl	1966080(0x1e0000) # 1e06d0 <__stack_size+0x1d06d0>
 6d4:	0a000007 	0x0a000007
 6d8:	1c009c50 	pcaddu12i	$r16,1250(0x4e2)
 6dc:	00000014 	0x00000014
 6e0:	0002930b 	0x0002930b
 6e4:	00077d00 	alsl.wu	$r0,$r8,$r31,0x3
 6e8:	00077b00 	alsl.wu	$r0,$r24,$r30,0x3
 6ec:	00000000 	0x00000000
 6f0:	00014c0c 	0x00014c0c
 6f4:	014b0100 	0x014b0100
 6f8:	00014c01 	0x00014c01
 6fc:	009bf000 	bstrins.d	$r0,$r0,0x1b,0x3c
 700:	0000581c 	ext.w.h	$r28,$r0
 704:	4c9c0100 	jirl	$r0,$r8,39936(0x9c00)
 708:	06000001 	cacop	0x1,$r0,0
 70c:	01003176 	0x01003176
 710:	5314014b 	b	86971392(0x52f1400) # 52f1b10 <__stack_size+0x52e1b10>
 714:	94000001 	0x94000001
 718:	90000007 	0x90000007
 71c:	06000007 	cacop	0x7,$r0,0
 720:	01003276 	0x01003276
 724:	5324014b 	b	86975488(0x52f2400) # 52f2b24 <__stack_size+0x52e2b24>
 728:	b9000001 	0xb9000001
 72c:	b5000007 	0xb5000007
 730:	06000007 	cacop	0x7,$r0,0
 734:	4b01006e 	bceqz	$fcc3,3866880(0x3b0100) # 3b0834 <__stack_size+0x3a0834>
 738:	00352f01 	0x00352f01
 73c:	07e20000 	0x07e20000
 740:	07da0000 	0x07da0000
 744:	730d0000 	vextl.qu.du	$vr0,$vr0
 748:	4c010031 	jirl	$r17,$r1,256(0x100)
 74c:	015a1101 	0x015a1101
 750:	08260000 	fmadd.d	$f0,$f0,$f0,$f12
 754:	08220000 	fmadd.d	$f0,$f0,$f0,$f4
 758:	730d0000 	vextl.qu.du	$vr0,$vr0
 75c:	4d010032 	jirl	$r18,$r1,65792(0x10100)
 760:	015a1101 	0x015a1101
 764:	08460000 	0x08460000
 768:	08440000 	0x08440000
 76c:	0e000000 	0x0e000000
 770:	6e690504 	bgeu	$r8,$r4,-104188(0x26904) # fffe7074 <_stack+0xe3ee7078>
 774:	040f0074 	csrxchg	$r20,$r3,0x3c0
 778:	00000159 	0x00000159
 77c:	67040f10 	bge	$r24,$r16,-64500(0x3040c) # ffff0b88 <_stack+0xe3ef0b8c>
 780:	03000001 	lu52i.d	$r1,$r0,0
 784:	00f40601 	bstrpick.d	$r1,$r16,0x34,0x1
 788:	60110000 	blt	$r0,$r0,4352(0x1100) # 1888 <__stack_size-0xe778>
 78c:	0c000001 	0x0c000001
 790:	00000178 	0x00000178
 794:	01012801 	fadd.d	$f1,$f0,$f10
 798:	00000025 	0x00000025
 79c:	1c009b90 	pcaddu12i	$r16,1244(0x4dc)
 7a0:	0000005c 	0x0000005c
 7a4:	01e59c01 	0x01e59c01
 7a8:	64120000 	bge	$r0,$r0,4608(0x1200) # 19a8 <__stack_size-0xe658>
 7ac:	01007473 	0x01007473
 7b0:	250f0128 	stptr.w	$r8,$r9,3840(0xf00)
 7b4:	01000000 	0x01000000
 7b8:	72730654 	0x72730654
 7bc:	28010063 	ld.b	$r3,$r3,64(0x40)
 7c0:	01532001 	0x01532001
 7c4:	085f0000 	fmsub.s	$f0,$f0,$f0,$f30
 7c8:	08590000 	fmsub.s	$f0,$f0,$f0,$f18
 7cc:	6e060000 	bgeu	$r0,$r0,-129536(0x20600) # fffe0dcc <_stack+0xe3ee0dd0>
 7d0:	01280100 	0x01280100
 7d4:	0000352c 	revb.4h	$r12,$r9
 7d8:	00089100 	bytepick.w	$r0,$r8,$r4,0x1
 7dc:	00088b00 	bytepick.w	$r0,$r24,$r2,0x1
 7e0:	00730d00 	bstrins.w	$r0,$r8,0x13,0x3
 7e4:	11012c01 	addu16i.d	$r1,$r0,16459(0x404b)
 7e8:	0000015a 	0x0000015a
 7ec:	000008c6 	0x000008c6
 7f0:	000008be 	0x000008be
 7f4:	0100640d 	0x0100640d
 7f8:	e50b012d 	0xe50b012d
 7fc:	04000001 	csrrd	$r1,0x0
 800:	fa000009 	0xfa000009
 804:	00000008 	0x00000008
 808:	0160040f 	0x0160040f
 80c:	6a0c0000 	bltu	$r0,$r0,-128000(0x20c00) # fffe140c <_stack+0xe3ee1410>
 810:	01000001 	0x01000001
 814:	25010111 	stptr.w	$r17,$r8,256(0x100)
 818:	60000000 	blt	$r0,$r0,0 # 818 <__stack_size-0xf7e8>
 81c:	281c009b 	ld.b	$r27,$r4,1792(0x700)
 820:	01000000 	0x01000000
 824:	0002649c 	0x0002649c
 828:	73641200 	0x73641200
 82c:	11010074 	addu16i.d	$r20,$r3,16448(0x4040)
 830:	00250e01 	crc.w.w.w	$r1,$r16,$r3
 834:	54010000 	bl	256(0x100) # 934 <__stack_size-0xf6cc>
 838:	63727306 	blt	$r24,$r6,-36240(0x37270) # ffff7aa8 <_stack+0xe3ef7aac>
 83c:	01110100 	fscaleb.d	$f0,$f8,$f0
 840:	0001531f 	0x0001531f
 844:	00094700 	bytepick.w	$r0,$r24,$r17,0x2
 848:	00094300 	bytepick.w	$r0,$r24,$r16,0x2
 84c:	006e0600 	bstrins.w	$r0,$r16,0xe,0x1
 850:	2b011101 	fld.s	$f1,$r8,68(0x44)
 854:	00000035 	0x00000035
 858:	0000096e 	0x0000096e
 85c:	00000968 	0x00000968
 860:	0100730d 	0x0100730d
 864:	5a110115 	beq	$r8,$r21,-126720(0x21100) # fffe1964 <_stack+0xe3ee1968>
 868:	a0000001 	0xa0000001
 86c:	9e000009 	0x9e000009
 870:	0d000009 	fsel	$f9,$f0,$f0,$fcc0
 874:	16010064 	lu32i.d	$r4,2051(0x803)
 878:	01e50b01 	0x01e50b01
 87c:	09b70000 	0x09b70000
 880:	09b30000 	0x09b30000
 884:	13000000 	addu16i.d	$r0,$r0,-16384(0xc000)
 888:	00000190 	0x00000190
 88c:	2501f601 	stptr.w	$r1,$r16,500(0x1f4)
 890:	01000000 	0x01000000
 894:	0000029e 	0x0000029e
 898:	01007314 	0x01007314
 89c:	00250ef6 	crc.w.w.w	$r22,$r23,$r3
 8a0:	63140000 	blt	$r0,$r0,-60416(0x31400) # ffff1ca0 <_stack+0xe3ef1ca4>
 8a4:	16f60100 	lu32i.d	$r0,503816(0x7b008)
 8a8:	00000160 	0x00000160
 8ac:	01006e14 	0x01006e14
 8b0:	003520f6 	0x003520f6
 8b4:	70150000 	0x70150000
 8b8:	0bfa0100 	0x0bfa0100
 8bc:	000001e5 	0x000001e5
 8c0:	01881600 	0x01881600
 8c4:	88010000 	0x88010000
 8c8:	0001e501 	0x0001e501
 8cc:	009b1000 	bstrins.d	$r0,$r0,0x1b,0x4
 8d0:	0000281c 	cto.d	$r28,$r0
 8d4:	d79c0100 	0xd79c0100
 8d8:	17000002 	lu32i.d	$r2,-524288(0x80000)
 8dc:	88010073 	0x88010073
 8e0:	00015a15 	0x00015a15
 8e4:	0009d900 	bytepick.w	$r0,$r8,$r22,0x3
 8e8:	0009d500 	bytepick.w	$r0,$r8,$r21,0x3
 8ec:	00631800 	bstrins.w	$r0,$r0,0x3,0x6
 8f0:	601d8801 	blt	$r0,$r1,7560(0x1d88) # 2678 <__stack_size-0xd988>
 8f4:	01000001 	0x01000001
 8f8:	63160055 	blt	$r2,$r21,-59904(0x31600) # ffff1ef8 <_stack+0xe3ef1efc>
 8fc:	01000001 	0x01000001
 900:	01e50174 	0x01e50174
 904:	9ad00000 	0x9ad00000
 908:	003c1c00 	0x003c1c00
 90c:	9c010000 	0x9c010000
 910:	00000310 	0x00000310
 914:	01007317 	0x01007317
 918:	015a1474 	0x015a1474
 91c:	09fd0000 	0x09fd0000
 920:	09f70000 	0x09f70000
 924:	63180000 	blt	$r0,$r0,-59392(0x31800) # ffff2124 <_stack+0xe3ef2128>
 928:	1c740100 	pcaddu12i	$r0,237576(0x3a008)
 92c:	00000160 	0x00000160
 930:	16005501 	lu32i.d	$r1,680(0x2a8)
 934:	00000180 	0x00000180
 938:	4c016401 	jirl	$r1,$r0,356(0x164)
 93c:	60000001 	blt	$r0,$r1,0 # 93c <__stack_size-0xf6c4>
 940:	6c1c009a 	bgeu	$r4,$r26,7168(0x1c00) # 2540 <__stack_size-0xdac0>
 944:	01000000 	0x01000000
 948:	0003639c 	0x0003639c
 94c:	31731700 	0x31731700
 950:	15640100 	lu12i.w	$r0,-319480(0xb2008)
 954:	0000015a 	0x0000015a
 958:	00000a2c 	0x00000a2c
 95c:	00000a26 	0x00000a26
 960:	00327317 	0x00327317
 964:	5a256401 	beq	$r0,$r1,-121500(0x22564) # fffe2ec8 <_stack+0xe3ee2ecc>
 968:	5f000001 	bne	$r0,$r1,-65536(0x30000) # ffff0968 <_stack+0xe3ef096c>
 96c:	5500000a 	bl	2686976(0x290000) # 29096c <__stack_size+0x28096c>
 970:	1700000a 	lu32i.d	$r10,-524288(0x80000)
 974:	6401006e 	bge	$r3,$r14,256(0x100) # a74 <__stack_size-0xf58c>
 978:	00003530 	revb.4h	$r16,$r9
 97c:	000aaa00 	0x000aaa00
 980:	000a9e00 	0x000a9e00
 984:	53160000 	b	202240(0x31600) # 31f84 <__stack_size+0x21f84>
 988:	01000001 	0x01000001
 98c:	01e5014d 	0x01e5014d
 990:	9a300000 	0x9a300000
 994:	002c1c00 	alsl.d	$r0,$r0,$r7,0x1
 998:	9c010000 	0x9c010000
 99c:	000003c6 	0x000003c6
 9a0:	74736418 	xvmin.w	$xr24,$xr0,$xr25
 9a4:	0f4d0100 	0x0f4d0100
 9a8:	000001e5 	0x000001e5
 9ac:	73175401 	0x73175401
 9b0:	01006372 	0x01006372
 9b4:	015a204d 	0x015a204d
 9b8:	0b0d0000 	0x0b0d0000
 9bc:	0b090000 	0x0b090000
 9c0:	6c170000 	bgeu	$r0,$r0,5888(0x1700) # 20c0 <__stack_size-0xdf40>
 9c4:	01006e65 	0x01006e65
 9c8:	00352c4d 	0x00352c4d
 9cc:	0b350000 	0x0b350000
 9d0:	0b2b0000 	0x0b2b0000
 9d4:	70190000 	0x70190000
 9d8:	0b4e0100 	0x0b4e0100
 9dc:	000001e5 	0x000001e5
 9e0:	00000b9c 	0x00000b9c
 9e4:	00000b94 	0x00000b94
 9e8:	012f1600 	0x012f1600
 9ec:	37010000 	0x37010000
 9f0:	0001e501 	0x0001e501
 9f4:	009a1000 	bstrins.d	$r0,$r0,0x1a,0x4
 9f8:	00001c1c 	ctz.w	$r28,$r0
 9fc:	159c0100 	lu12i.w	$r0,-204792(0xce008)
 a00:	18000004 	pcaddi	$r4,0
 a04:	00747364 	bstrins.w	$r4,$r27,0x14,0x1c
 a08:	e50e3701 	0xe50e3701
 a0c:	01000001 	0x01000001
 a10:	72731754 	0x72731754
 a14:	37010063 	0x37010063
 a18:	00015a1f 	0x00015a1f
 a1c:	000bd600 	0x000bd600
 a20:	000bd200 	0x000bd200
 a24:	00701900 	bstrins.w	$r0,$r8,0x10,0x6
 a28:	e50b3b01 	0xe50b3b01
 a2c:	f8000001 	0xf8000001
 a30:	f400000b 	0xf400000b
 a34:	0000000b 	0x0000000b
 a38:	00015b16 	0x00015b16
 a3c:	01220100 	0x01220100
 a40:	00000035 	0x00000035
 a44:	1c0099d0 	pcaddu12i	$r16,1230(0x4ce)
 a48:	00000034 	0x00000034
 a4c:	04649c01 	csrrd	$r1,0x1927
 a50:	73170000 	0x73170000
 a54:	15220100 	lu12i.w	$r0,-454648(0x91008)
 a58:	0000015a 	0x0000015a
 a5c:	00000c1c 	0x00000c1c
 a60:	00000c16 	0x00000c16
 a64:	6e656c18 	bgeu	$r0,$r24,-105108(0x2656c) # fffe6fd0 <_stack+0xe3ee6fd4>
 a68:	1f220100 	pcaddu18i	$r0,-454648(0x91008)
 a6c:	00000035 	0x00000035
 a70:	63195501 	blt	$r8,$r1,-59052(0x31954) # ffff23c4 <_stack+0xe3ef23c8>
 a74:	0100746e 	0x0100746e
 a78:	00350c23 	0x00350c23
 a7c:	0c520000 	vfcmp.ceq.s	$vr0,$vr0,$vr0
 a80:	0c4e0000 	0x0c4e0000
 a84:	16000000 	lu32i.d	$r0,0
 a88:	00000171 	0x00000171
 a8c:	35010c01 	0x35010c01
 a90:	90000000 	0x90000000
 a94:	341c0099 	0x341c0099
 a98:	01000000 	0x01000000
 a9c:	0004a59c 	alsl.w	$r28,$r12,$r9,0x2
 aa0:	00731700 	bstrins.w	$r0,$r24,0x13,0x5
 aa4:	5a140c01 	beq	$r0,$r1,-125940(0x2140c) # fffe1eb0 <_stack+0xe3ee1eb4>
 aa8:	7d000001 	0x7d000001
 aac:	7100000c 	0x7100000c
 ab0:	1900000c 	pcaddi	$r12,-524288(0x80000)
 ab4:	00746e63 	bstrins.w	$r3,$r19,0x14,0x1b
 ab8:	350c0d01 	0x350c0d01
 abc:	e5000000 	0xe5000000
 ac0:	df00000c 	0xdf00000c
 ac4:	0000000c 	0x0000000c
 ac8:	0002641a 	0x0002641a
 acc:	009b4000 	bstrins.d	$r0,$r0,0x1b,0x10
 ad0:	0000201c 	clo.d	$r28,$r0
 ad4:	1b9c0100 	pcalau12i	$r0,-204792(0xce008)
 ad8:	00000275 	0x00000275
 adc:	7f1b5401 	0x7f1b5401
 ae0:	01000002 	0x01000002
 ae4:	02890855 	addi.w	$r21,$r2,578(0x242)
 ae8:	0d1c0000 	vbitsel.v	$vr0,$vr0,$vr0,$vr24
 aec:	0d100000 	vbitsel.v	$vr0,$vr0,$vr0,$vr0
 af0:	930b0000 	0x930b0000
 af4:	8e000002 	0x8e000002
 af8:	8a00000d 	0x8a00000d
 afc:	0000000d 	0x0000000d
 b00:	00024500 	0x00024500
 b04:	96000400 	0x96000400
 b08:	04000005 	csrrd	$r5,0x0
 b0c:	00001801 	cto.w	$r1,$r0
 b10:	01c90c00 	0x01c90c00
 b14:	00bc0000 	bstrins.d	$r0,$r0,0x3c,0x0
 b18:	9c700000 	0x9c700000
 b1c:	01401c00 	0x01401c00
 b20:	06910000 	0x06910000
 b24:	04020000 	csrrd	$r0,0x80
 b28:	00000b07 	0x00000b07
 b2c:	07040200 	0x07040200
 b30:	00000006 	0x00000006
 b34:	0001b803 	0x0001b803
 b38:	17030200 	lu32i.d	$r0,-518128(0x81810)
 b3c:	0000002c 	0x0000002c
 b40:	69050404 	bltu	$r0,$r4,66820(0x10504) # 11044 <__stack_size+0x1044>
 b44:	0500746e 	0x0500746e
 b48:	000001af 	0x000001af
 b4c:	08200210 	fmadd.d	$f16,$f16,$f0,$f0
 b50:	00000088 	0x00000088
 b54:	0001f206 	0x0001f206
 b58:	0b210200 	0x0b210200
 b5c:	00000033 	0x00000033
 b60:	02000600 	slti	$r0,$r16,1(0x1)
 b64:	22020000 	ll.d	$r0,$r0,512(0x200)
 b68:	0000330b 	revb.2h	$r11,$r24
 b6c:	e1060400 	0xe1060400
 b70:	02000001 	slti	$r1,$r0,0
 b74:	00330b23 	0x00330b23
 b78:	06080000 	cacop	0x0,$r0,512(0x200)
 b7c:	000001c1 	0x000001c1
 b80:	330b2402 	0x330b2402
 b84:	0c000000 	0x0c000000
 b88:	01d00700 	0x01d00700
 b8c:	3c010000 	0x3c010000
 b90:	00002c0f 	ctz.d	$r15,$r0
 b94:	009d8000 	bstrins.d	$r0,$r0,0x1d,0x20
 b98:	0000301c 	revb.2h	$r28,$r0
 b9c:	da9c0100 	0xda9c0100
 ba0:	08000000 	0x08000000
 ba4:	3e01006e 	0x3e01006e
 ba8:	00002c13 	ctz.d	$r19,$r0
 bac:	000db400 	bytepick.d	$r0,$r0,$r13,0x3
 bb0:	000dac00 	bytepick.d	$r0,$r0,$r11,0x3
 bb4:	022e0900 	slti	$r0,$r8,-1150(0xb82)
 bb8:	9d800000 	0x9d800000
 bbc:	b8031c00 	0xb8031c00
 bc0:	01000000 	0x01000000
 bc4:	b80a093f 	0xb80a093f
 bc8:	0b000000 	0x0b000000
 bcc:	0000023b 	0x0000023b
 bd0:	00000df6 	0x00000df6
 bd4:	00000df4 	0x00000df4
 bd8:	07000000 	0x07000000
 bdc:	000001f9 	0x000001f9
 be0:	2c0f3301 	vld	$vr1,$r24,972(0x3cc)
 be4:	50000000 	b	0 # be4 <__stack_size-0xf41c>
 be8:	241c009d 	ldptr.w	$r29,$r4,7168(0x1c00)
 bec:	01000000 	0x01000000
 bf0:	00012c9c 	0x00012c9c
 bf4:	006e0800 	bstrins.w	$r0,$r0,0xe,0x2
 bf8:	2c133501 	vld	$vr1,$r8,1229(0x4cd)
 bfc:	11000000 	addu16i.d	$r0,$r0,16384(0x4000)
 c00:	0900000e 	0x0900000e
 c04:	0900000e 	0x0900000e
 c08:	0000022e 	0x0000022e
 c0c:	1c009d50 	pcaddu12i	$r16,1258(0x4ea)
 c10:	0000a003 	0x0000a003
 c14:	09360100 	0x09360100
 c18:	0000a00a 	0x0000a00a
 c1c:	023b0b00 	slti	$r0,$r24,-318(0xec2)
 c20:	0e4c0000 	0x0e4c0000
 c24:	0e4a0000 	0x0e4a0000
 c28:	00000000 	0x00000000
 c2c:	01d70c00 	0x01d70c00
 c30:	2c010000 	vld	$vr0,$r0,64(0x40)
 c34:	00002c0f 	ctz.d	$r15,$r0
 c38:	00014700 	asrtle.d	$r24,$r17
 c3c:	006e0d00 	bstrins.w	$r0,$r8,0xe,0x3
 c40:	2c132e01 	vld	$vr1,$r16,1227(0x4cb)
 c44:	00000000 	0x00000000
 c48:	00020807 	0x00020807
 c4c:	0f200100 	0x0f200100
 c50:	0000002c 	0x0000002c
 c54:	1c009cb0 	pcaddu12i	$r16,1253(0x4e5)
 c58:	00000084 	0x00000084
 c5c:	01bb9c01 	0x01bb9c01
 c60:	730e0000 	0x730e0000
 c64:	01006c65 	0x01006c65
 c68:	003f2120 	0x003f2120
 c6c:	0e630000 	0x0e630000
 c70:	0e5f0000 	0x0e5f0000
 c74:	740f0000 	0x740f0000
 c78:	0100706d 	0x0100706d
 c7c:	01bb3620 	0x01bb3620
 c80:	55010000 	bl	65792(0x10100) # 10d80 <__stack_size+0xd80>
 c84:	01006e08 	0x01006e08
 c88:	002c1322 	alsl.d	$r2,$r25,$r4,0x1
 c8c:	0e880000 	0x0e880000
 c90:	0e840000 	0x0e840000
 c94:	2e090000 	0x2e090000
 c98:	b0000002 	0xb0000002
 c9c:	031c009c 	lu52i.d	$r28,$r4,1792(0x700)
 ca0:	00000088 	0x00000088
 ca4:	0a092301 	0x0a092301
 ca8:	00000088 	0x00000088
 cac:	00023b0b 	0x00023b0b
 cb0:	000ea900 	bytepick.d	$r0,$r8,$r10,0x5
 cb4:	000ea700 	bytepick.d	$r0,$r24,$r9,0x5
 cb8:	00000000 	0x00000000
 cbc:	00460410 	0x00460410
 cc0:	97110000 	0x97110000
 cc4:	01000001 	0x01000001
 cc8:	002c0f16 	alsl.d	$r22,$r24,$r3,0x1
 ccc:	9ca00000 	0x9ca00000
 cd0:	00081c00 	bytepick.w	$r0,$r0,$r7,0x0
 cd4:	9c010000 	0x9c010000
 cd8:	000001ee 	0x000001ee
 cdc:	01006e08 	0x01006e08
 ce0:	002c1318 	alsl.d	$r24,$r24,$r4,0x1
 ce4:	0ebe0000 	0x0ebe0000
 ce8:	0ebc0000 	0x0ebc0000
 cec:	11000000 	addu16i.d	$r0,$r0,16384(0x4000)
 cf0:	000001a5 	0x000001a5
 cf4:	2c0f1101 	vld	$vr1,$r8,964(0x3c4)
 cf8:	70000000 	vseq.b	$vr0,$vr0,$vr0
 cfc:	1c1c009c 	pcaddu12i	$r28,57348(0xe004)
 d00:	01000000 	0x01000000
 d04:	00022e9c 	0x00022e9c
 d08:	022e0900 	slti	$r0,$r8,-1150(0xb82)
 d0c:	9c700000 	0x9c700000
 d10:	70021c00 	vsle.b	$vr0,$vr0,$vr7
 d14:	01000000 	0x01000000
 d18:	700a0d13 	vadd.b	$vr19,$vr8,$vr3
 d1c:	0b000000 	0x0b000000
 d20:	0000023b 	0x0000023b
 d24:	00000ed3 	0x00000ed3
 d28:	00000ed1 	0x00000ed1
 d2c:	12000000 	addu16i.d	$r0,$r0,-32768(0x8000)
 d30:	000001a4 	0x000001a4
 d34:	2c0f0401 	vld	$vr1,$r0,961(0x3c1)
 d38:	01000000 	0x01000000
 d3c:	0001e913 	0x0001e913
 d40:	13060100 	addu16i.d	$r0,$r8,-16000(0xc180)
 d44:	0000002c 	0x0000002c
	...

Disassembly of section .debug_abbrev:

00000000 <.debug_abbrev>:
   0:	25011101 	stptr.w	$r1,$r8,272(0x110)
   4:	030b130e 	lu52i.d	$r14,$r24,708(0x2c4)
   8:	110e1b0e 	addu16i.d	$r14,$r24,17286(0x4386)
   c:	10061201 	addu16i.d	$r1,$r16,388(0x184)
  10:	02000017 	slti	$r23,$r0,0
  14:	0b0b000f 	0x0b0b000f
  18:	24030000 	ldptr.w	$r0,$r0,768(0x300)
  1c:	3e0b0b00 	0x3e0b0b00
  20:	000e030b 	bytepick.d	$r11,$r24,$r0,0x4
  24:	012e0400 	0x012e0400
  28:	0e03193f 	0x0e03193f
  2c:	0b3b0b3a 	0x0b3b0b3a
  30:	19270b39 	pcaddi	$r25,-444327(0x93859)
  34:	01111349 	fscaleb.d	$f9,$f26,$f4
  38:	18400612 	pcaddi	$r18,131120(0x20030)
  3c:	01194297 	0x01194297
  40:	05000013 	0x05000013
  44:	08030005 	0x08030005
  48:	0b3b0b3a 	0x0b3b0b3a
  4c:	13490b39 	addu16i.d	$r25,$r25,-11710(0xd242)
  50:	42b71702 	beqz	$r24,702228(0xab714) # ab764 <__stack_size+0x9b764>
  54:	06000017 	cacop	0x17,$r0,0
  58:	00000018 	0x00000018
  5c:	03003407 	lu52i.d	$r7,$r0,13(0xd)
  60:	3b0b3a08 	0x3b0b3a08
  64:	490b390b 	bcnez	$fcc0,2951992(0x2d0b38) # 2d0b9c <__stack_size+0x2c0b9c>
  68:	b7170213 	0xb7170213
  6c:	00001742 	clz.w	$r2,$r26
  70:	03003408 	lu52i.d	$r8,$r0,13(0xd)
  74:	3b0b3a08 	0x3b0b3a08
  78:	490b390b 	bcnez	$fcc0,2951992(0x2d0b38) # 2d0bb0 <__stack_size+0x2c0bb0>
  7c:	00180213 	sra.w	$r19,$r16,$r0
  80:	000a0900 	0x000a0900
  84:	0b3a0e03 	0x0b3a0e03
  88:	0b390b3b 	0x0b390b3b
  8c:	00000111 	0x00000111
  90:	55010b0a 	bl	-64421624(0xc290108) # fc290198 <_stack+0xe019019c>
  94:	00130117 	maskeqz	$r23,$r8,$r0
  98:	012e0b00 	0x012e0b00
  9c:	0e03193f 	0x0e03193f
  a0:	0b3b0b3a 	0x0b3b0b3a
  a4:	13490b39 	addu16i.d	$r25,$r25,-11710(0xd242)
  a8:	1301193c 	addu16i.d	$r28,$r9,-16314(0xc046)
  ac:	890c0000 	0x890c0000
  b0:	11010182 	addu16i.d	$r2,$r12,16448(0x4040)
  b4:	01133101 	fcopysign.d	$f1,$f8,$f12
  b8:	0d000013 	fsel	$f19,$f0,$f0,$fcc0
  bc:	0001828a 	0x0001828a
  c0:	42911802 	beqz	$r0,692504(0xa9118) # a91d8 <__stack_size+0x991d8>
  c4:	0e000018 	0x0e000018
  c8:	00018289 	0x00018289
  cc:	13310111 	addu16i.d	$r17,$r8,-13248(0xcc40)
  d0:	890f0000 	0x890f0000
  d4:	11010182 	addu16i.d	$r2,$r12,16448(0x4040)
  d8:	00133101 	maskeqz	$r1,$r8,$r12
  dc:	010b1000 	fmin.d	$f0,$f0,$f4
  e0:	00001755 	clz.w	$r21,$r26
  e4:	11010b11 	addu16i.d	$r17,$r24,16450(0x4042)
  e8:	01061201 	0x01061201
  ec:	12000013 	addu16i.d	$r19,$r0,-32768(0x8000)
  f0:	0b0b0024 	0x0b0b0024
  f4:	08030b3e 	0x08030b3e
  f8:	0f130000 	0x0f130000
  fc:	490b0b00 	0x490b0b00
 100:	14000013 	lu12i.w	$r19,0
 104:	13490026 	addu16i.d	$r6,$r1,-11712(0xd240)
 108:	2e150000 	0x2e150000
 10c:	3c193f00 	0x3c193f00
 110:	030e6e19 	lu52i.d	$r25,$r16,923(0x39b)
 114:	3b0b3a0e 	0x3b0b3a0e
 118:	000b390b 	0x000b390b
 11c:	11010000 	addu16i.d	$r0,$r0,16448(0x4040)
 120:	130e2501 	addu16i.d	$r1,$r8,-15479(0xc389)
 124:	1b0e030b 	pcalau12i	$r11,-495592(0x87018)
 128:	1201110e 	addu16i.d	$r14,$r8,-32700(0x8044)
 12c:	00171006 	sll.w	$r6,$r0,$r4
 130:	00240200 	crc.w.b.w	$r0,$r16,$r0
 134:	0b3e0b0b 	0x0b3e0b0b
 138:	00000e03 	0x00000e03
 13c:	3f012e03 	0x3f012e03
 140:	3a0e0319 	0x3a0e0319
 144:	390b3b0b 	0x390b3b0b
 148:	010b200b 	fmin.d	$f11,$f0,$f8
 14c:	04000013 	csrrd	$r19,0x0
 150:	08030005 	0x08030005
 154:	0b3b0b3a 	0x0b3b0b3a
 158:	13490b39 	addu16i.d	$r25,$r25,-11710(0xd242)
 15c:	24050000 	ldptr.w	$r0,$r0,1280(0x500)
 160:	3e0b0b00 	0x3e0b0b00
 164:	0008030b 	bytepick.w	$r11,$r24,$r0,0x0
 168:	012e0600 	0x012e0600
 16c:	0e03193f 	0x0e03193f
 170:	0b3b0b3a 	0x0b3b0b3a
 174:	19270b39 	pcaddi	$r25,-444327(0x93859)
 178:	01111349 	fscaleb.d	$f9,$f26,$f4
 17c:	18400612 	pcaddi	$r18,131120(0x20030)
 180:	01194297 	0x01194297
 184:	07000013 	0x07000013
 188:	08030005 	0x08030005
 18c:	0b3b0b3a 	0x0b3b0b3a
 190:	13490b39 	addu16i.d	$r25,$r25,-11710(0xd242)
 194:	42b71702 	beqz	$r24,702228(0xab714) # ab8a8 <__stack_size+0x9b8a8>
 198:	08000017 	0x08000017
 19c:	193f012e 	pcaddi	$r14,-395255(0x9f809)
 1a0:	0b3a0e03 	0x0b3a0e03
 1a4:	0b390b3b 	0x0b390b3b
 1a8:	193c1349 	pcaddi	$r9,-401254(0x9e09a)
 1ac:	00001301 	clo.w	$r1,$r24
 1b0:	00001809 	cto.w	$r9,$r0
 1b4:	011d0a00 	0x011d0a00
 1b8:	01521331 	0x01521331
 1bc:	550b42b8 	bl	-85914816(0xae10b40) # fae10cfc <_stack+0xded10d00>
 1c0:	590b5817 	beq	$r0,$r23,68440(0x10b58) # 10d18 <__stack_size+0xd18>
 1c4:	000b570b 	0x000b570b
 1c8:	00050b00 	alsl.w	$r0,$r24,$r2,0x3
 1cc:	17021331 	lu32i.d	$r17,-520039(0x81099)
 1d0:	001742b7 	sll.w	$r23,$r21,$r16
 1d4:	012e0c00 	0x012e0c00
 1d8:	01111331 	fscaleb.d	$f17,$f25,$f4
 1dc:	18400612 	pcaddi	$r18,131120(0x20030)
 1e0:	00194297 	srl.d	$r23,$r20,$r16
 1e4:	00050d00 	alsl.w	$r0,$r8,$r3,0x3
 1e8:	18021331 	pcaddi	$r17,4249(0x1099)
 1ec:	01000000 	0x01000000
 1f0:	0e250111 	0x0e250111
 1f4:	0e030b13 	0x0e030b13
 1f8:	01110e1b 	fscaleb.d	$f27,$f16,$f3
 1fc:	17100612 	lu32i.d	$r18,-491472(0x88030)
 200:	24020000 	ldptr.w	$r0,$r0,512(0x200)
 204:	3e0b0b00 	0x3e0b0b00
 208:	000e030b 	bytepick.d	$r11,$r24,$r0,0x4
 20c:	012e0300 	0x012e0300
 210:	0e03193f 	0x0e03193f
 214:	0b3b0b3a 	0x0b3b0b3a
 218:	19270b39 	pcaddi	$r25,-444327(0x93859)
 21c:	01111349 	fscaleb.d	$f9,$f26,$f4
 220:	18400612 	pcaddi	$r18,131120(0x20030)
 224:	01194297 	0x01194297
 228:	04000013 	csrrd	$r19,0x0
 22c:	08030005 	0x08030005
 230:	0b3b0b3a 	0x0b3b0b3a
 234:	13490b39 	addu16i.d	$r25,$r25,-11710(0xd242)
 238:	42b71702 	beqz	$r24,702228(0xab714) # ab94c <__stack_size+0x9b94c>
 23c:	05000017 	0x05000017
 240:	193f012e 	pcaddi	$r14,-395255(0x9f809)
 244:	0b3a0e03 	0x0b3a0e03
 248:	0b390b3b 	0x0b390b3b
 24c:	193c1349 	pcaddi	$r9,-401254(0x9e09a)
 250:	00001301 	clo.w	$r1,$r24
 254:	00001806 	cto.w	$r6,$r0
 258:	82890700 	0x82890700
 25c:	01110101 	fscaleb.d	$f1,$f8,$f0
 260:	13011331 	addu16i.d	$r17,$r25,-16316(0xc044)
 264:	8a080000 	0x8a080000
 268:	02000182 	slti	$r2,$r12,0
 26c:	18429118 	pcaddi	$r24,136328(0x21488)
 270:	89090000 	0x89090000
 274:	11010182 	addu16i.d	$r2,$r12,16448(0x4040)
 278:	00133101 	maskeqz	$r1,$r8,$r12
 27c:	00240a00 	crc.w.b.w	$r0,$r16,$r2
 280:	0b3e0b0b 	0x0b3e0b0b
 284:	00000803 	0x00000803
 288:	0b000f0b 	0x0b000f0b
 28c:	0013490b 	maskeqz	$r11,$r8,$r18
 290:	00340c00 	0x00340c00
 294:	0b3a0803 	0x0b3a0803
 298:	0b390b3b 	0x0b390b3b
 29c:	17021349 	lu32i.d	$r9,-520038(0x8109a)
 2a0:	001742b7 	sll.w	$r23,$r21,$r16
 2a4:	010b0d00 	fmin.d	$f0,$f8,$f3
 2a8:	00001755 	clz.w	$r21,$r26
 2ac:	11010b0e 	addu16i.d	$r14,$r24,16450(0x4042)
 2b0:	01061201 	0x01061201
 2b4:	0f000013 	0x0f000013
 2b8:	193f002e 	pcaddi	$r14,-395263(0x9f801)
 2bc:	0e6e193c 	0x0e6e193c
 2c0:	0b3a0e03 	0x0b3a0e03
 2c4:	0b390b3b 	0x0b390b3b
 2c8:	01000000 	0x01000000
 2cc:	0e250111 	0x0e250111
 2d0:	0e030b13 	0x0e030b13
 2d4:	01110e1b 	fscaleb.d	$f27,$f16,$f3
 2d8:	17100612 	lu32i.d	$r18,-491472(0x88030)
 2dc:	24020000 	ldptr.w	$r0,$r0,512(0x200)
 2e0:	3e0b0b00 	0x3e0b0b00
 2e4:	000e030b 	bytepick.d	$r11,$r24,$r0,0x4
 2e8:	012e0300 	0x012e0300
 2ec:	0e03193f 	0x0e03193f
 2f0:	0b3b0b3a 	0x0b3b0b3a
 2f4:	19270b39 	pcaddi	$r25,-444327(0x93859)
 2f8:	01111349 	fscaleb.d	$f9,$f26,$f4
 2fc:	18400612 	pcaddi	$r18,131120(0x20030)
 300:	01194297 	0x01194297
 304:	04000013 	csrrd	$r19,0x0
 308:	08030005 	0x08030005
 30c:	0b3b0b3a 	0x0b3b0b3a
 310:	13490b39 	addu16i.d	$r25,$r25,-11710(0xd242)
 314:	42b71702 	beqz	$r24,702228(0xab714) # aba28 <__stack_size+0x9ba28>
 318:	05000017 	0x05000017
 31c:	0e030005 	0x0e030005
 320:	0b3b0b3a 	0x0b3b0b3a
 324:	13490b39 	addu16i.d	$r25,$r25,-11710(0xd242)
 328:	42b71702 	beqz	$r24,702228(0xab714) # aba3c <__stack_size+0x9ba3c>
 32c:	06000017 	cacop	0x17,$r0,0
 330:	08030034 	0x08030034
 334:	0b3b0b3a 	0x0b3b0b3a
 338:	13490b39 	addu16i.d	$r25,$r25,-11710(0xd242)
 33c:	42b71702 	beqz	$r24,702228(0xab714) # aba50 <__stack_size+0x9ba50>
 340:	07000017 	0x07000017
 344:	08030034 	0x08030034
 348:	0b3b0b3a 	0x0b3b0b3a
 34c:	13490b39 	addu16i.d	$r25,$r25,-11710(0xd242)
 350:	00001802 	cto.w	$r2,$r0
 354:	03003408 	lu52i.d	$r8,$r0,13(0xd)
 358:	3b0b3a0e 	0x3b0b3a0e
 35c:	490b390b 	bcnez	$fcc0,2951992(0x2d0b38) # 2d0e94 <__stack_size+0x2c0e94>
 360:	b7170213 	0xb7170213
 364:	00001742 	clz.w	$r2,$r26
 368:	11010b09 	addu16i.d	$r9,$r24,16450(0x4042)
 36c:	01061201 	0x01061201
 370:	0a000013 	0x0a000013
 374:	193f012e 	pcaddi	$r14,-395255(0x9f809)
 378:	0b3a0e03 	0x0b3a0e03
 37c:	0b390b3b 	0x0b390b3b
 380:	193c1349 	pcaddi	$r9,-401254(0x9e09a)
 384:	00001301 	clo.w	$r1,$r24
 388:	0000180b 	cto.w	$r11,$r0
 38c:	82890c00 	0x82890c00
 390:	01110101 	fscaleb.d	$f1,$f8,$f0
 394:	00001331 	clo.w	$r17,$r25
 398:	01828a0d 	0x01828a0d
 39c:	91180200 	0x91180200
 3a0:	00001842 	cto.w	$r2,$r2
 3a4:	11010b0e 	addu16i.d	$r14,$r24,16450(0x4042)
 3a8:	00061201 	alsl.wu	$r1,$r16,$r4,0x1
 3ac:	82890f00 	0x82890f00
 3b0:	01110001 	fscaleb.d	$f1,$f0,$f0
 3b4:	00001331 	clo.w	$r17,$r25
 3b8:	0b002410 	0x0b002410
 3bc:	030b3e0b 	lu52i.d	$r11,$r16,719(0x2cf)
 3c0:	11000008 	addu16i.d	$r8,$r0,16384(0x4000)
 3c4:	13490101 	addu16i.d	$r1,$r8,-11712(0xd240)
 3c8:	00001301 	clo.w	$r1,$r24
 3cc:	49002112 	bcnez	$fcc0,-3604448(0x490020) # ffc903ec <_stack+0xe3b903f0>
 3d0:	000b2f13 	0x000b2f13
 3d4:	002e1300 	0x002e1300
 3d8:	193c193f 	pcaddi	$r31,-401207(0x9e0c9)
 3dc:	0e030e6e 	0x0e030e6e
 3e0:	0b3b0b3a 	0x0b3b0b3a
 3e4:	00000b39 	0x00000b39
 3e8:	01110100 	fscaleb.d	$f0,$f8,$f0
 3ec:	0b130e25 	0x0b130e25
 3f0:	0e1b0e03 	0x0e1b0e03
 3f4:	01111755 	fscaleb.d	$f21,$f26,$f5
 3f8:	00001710 	clz.w	$r16,$r24
 3fc:	0b000f02 	0x0b000f02
 400:	0300000b 	lu52i.d	$r11,$r0,0
 404:	0b0b0024 	0x0b0b0024
 408:	0e030b3e 	0x0e030b3e
 40c:	16040000 	lu32i.d	$r0,8192(0x2000)
 410:	3a0e0300 	0x3a0e0300
 414:	390b3b0b 	0x390b3b0b
 418:	0013490b 	maskeqz	$r11,$r8,$r18
 41c:	012e0500 	0x012e0500
 420:	0e03193f 	0x0e03193f
 424:	053b0b3a 	0x053b0b3a
 428:	19270b39 	pcaddi	$r25,-444327(0x93859)
 42c:	06120111 	cacop	0x11,$r8,1152(0x480)
 430:	42971840 	beqz	$r2,169752(0x29718) # 29b48 <__stack_size+0x19b48>
 434:	00130119 	maskeqz	$r25,$r8,$r0
 438:	00050600 	alsl.w	$r0,$r16,$r1,0x3
 43c:	0b3a0803 	0x0b3a0803
 440:	0b39053b 	0x0b39053b
 444:	17021349 	lu32i.d	$r9,-520038(0x8109a)
 448:	001742b7 	sll.w	$r23,$r21,$r16
 44c:	011d0700 	0x011d0700
 450:	01521331 	0x01521331
 454:	110b42b8 	addu16i.d	$r24,$r21,17104(0x42d0)
 458:	58061201 	beq	$r16,$r1,1552(0x610) # a68 <__stack_size-0xf598>
 45c:	5705590b 	bl	70190424(0x42f0558) # 42f09b4 <__stack_size+0x42e09b4>
 460:	0800000b 	0x0800000b
 464:	13310005 	addu16i.d	$r5,$r0,-13248(0xcc40)
 468:	42b71702 	beqz	$r24,702228(0xab714) # abb7c <__stack_size+0x9bb7c>
 46c:	09000017 	0x09000017
 470:	13310005 	addu16i.d	$r5,$r0,-13248(0xcc40)
 474:	00000b1c 	0x00000b1c
 478:	11010b0a 	addu16i.d	$r10,$r24,16450(0x4042)
 47c:	00061201 	alsl.wu	$r1,$r16,$r4,0x1
 480:	00340b00 	0x00340b00
 484:	17021331 	lu32i.d	$r17,-520039(0x81099)
 488:	001742b7 	sll.w	$r23,$r21,$r16
 48c:	012e0c00 	0x012e0c00
 490:	0e03193f 	0x0e03193f
 494:	053b0b3a 	0x053b0b3a
 498:	19270b39 	pcaddi	$r25,-444327(0x93859)
 49c:	01111349 	fscaleb.d	$f9,$f26,$f4
 4a0:	18400612 	pcaddi	$r18,131120(0x20030)
 4a4:	01194297 	0x01194297
 4a8:	0d000013 	fsel	$f19,$f0,$f0,$fcc0
 4ac:	08030034 	0x08030034
 4b0:	053b0b3a 	0x053b0b3a
 4b4:	13490b39 	addu16i.d	$r25,$r25,-11710(0xd242)
 4b8:	42b71702 	beqz	$r24,702228(0xab714) # abbcc <__stack_size+0x9bbcc>
 4bc:	0e000017 	0x0e000017
 4c0:	0b0b0024 	0x0b0b0024
 4c4:	08030b3e 	0x08030b3e
 4c8:	0f0f0000 	0x0f0f0000
 4cc:	490b0b00 	0x490b0b00
 4d0:	10000013 	addu16i.d	$r19,$r0,0
 4d4:	00000026 	0x00000026
 4d8:	49002611 	0x49002611
 4dc:	12000013 	addu16i.d	$r19,$r0,-32768(0x8000)
 4e0:	08030005 	0x08030005
 4e4:	053b0b3a 	0x053b0b3a
 4e8:	13490b39 	addu16i.d	$r25,$r25,-11710(0xd242)
 4ec:	00001802 	cto.w	$r2,$r0
 4f0:	3f012e13 	0x3f012e13
 4f4:	3a0e0319 	0x3a0e0319
 4f8:	390b3b0b 	0x390b3b0b
 4fc:	4919270b 	0x4919270b
 500:	010b2013 	fmin.d	$f19,$f0,$f8
 504:	14000013 	lu12i.w	$r19,0
 508:	08030005 	0x08030005
 50c:	0b3b0b3a 	0x0b3b0b3a
 510:	13490b39 	addu16i.d	$r25,$r25,-11710(0xd242)
 514:	34150000 	0x34150000
 518:	3a080300 	0x3a080300
 51c:	390b3b0b 	0x390b3b0b
 520:	0013490b 	maskeqz	$r11,$r8,$r18
 524:	012e1600 	0x012e1600
 528:	0e03193f 	0x0e03193f
 52c:	0b3b0b3a 	0x0b3b0b3a
 530:	19270b39 	pcaddi	$r25,-444327(0x93859)
 534:	01111349 	fscaleb.d	$f9,$f26,$f4
 538:	18400612 	pcaddi	$r18,131120(0x20030)
 53c:	01194297 	0x01194297
 540:	17000013 	lu32i.d	$r19,-524288(0x80000)
 544:	08030005 	0x08030005
 548:	0b3b0b3a 	0x0b3b0b3a
 54c:	13490b39 	addu16i.d	$r25,$r25,-11710(0xd242)
 550:	42b71702 	beqz	$r24,702228(0xab714) # abc64 <__stack_size+0x9bc64>
 554:	18000017 	pcaddi	$r23,0
 558:	08030005 	0x08030005
 55c:	0b3b0b3a 	0x0b3b0b3a
 560:	13490b39 	addu16i.d	$r25,$r25,-11710(0xd242)
 564:	00001802 	cto.w	$r2,$r0
 568:	03003419 	lu52i.d	$r25,$r0,13(0xd)
 56c:	3b0b3a08 	0x3b0b3a08
 570:	490b390b 	bcnez	$fcc0,2951992(0x2d0b38) # 2d10a8 <__stack_size+0x2c10a8>
 574:	b7170213 	0xb7170213
 578:	00001742 	clz.w	$r2,$r26
 57c:	31012e1a 	0x31012e1a
 580:	12011113 	addu16i.d	$r19,$r8,-32700(0x8044)
 584:	97184006 	0x97184006
 588:	00001942 	cto.w	$r2,$r10
 58c:	3100051b 	0x3100051b
 590:	00180213 	sra.w	$r19,$r16,$r0
 594:	11010000 	addu16i.d	$r0,$r0,16448(0x4040)
 598:	130e2501 	addu16i.d	$r1,$r8,-15479(0xc389)
 59c:	1b0e030b 	pcalau12i	$r11,-495592(0x87018)
 5a0:	1201110e 	addu16i.d	$r14,$r8,-32700(0x8044)
 5a4:	00171006 	sll.w	$r6,$r0,$r4
 5a8:	00240200 	crc.w.b.w	$r0,$r16,$r0
 5ac:	0b3e0b0b 	0x0b3e0b0b
 5b0:	00000e03 	0x00000e03
 5b4:	03001603 	lu52i.d	$r3,$r16,5(0x5)
 5b8:	3b0b3a0e 	0x3b0b3a0e
 5bc:	490b390b 	bcnez	$fcc0,2951992(0x2d0b38) # 2d10f4 <__stack_size+0x2c10f4>
 5c0:	04000013 	csrrd	$r19,0x0
 5c4:	0b0b0024 	0x0b0b0024
 5c8:	08030b3e 	0x08030b3e
 5cc:	13050000 	addu16i.d	$r0,$r0,-16064(0xc140)
 5d0:	0b0e0301 	0x0b0e0301
 5d4:	3b0b3a0b 	0x3b0b3a0b
 5d8:	010b390b 	fmin.d	$f11,$f8,$f14
 5dc:	06000013 	cacop	0x13,$r0,0
 5e0:	0e03000d 	0x0e03000d
 5e4:	0b3b0b3a 	0x0b3b0b3a
 5e8:	13490b39 	addu16i.d	$r25,$r25,-11710(0xd242)
 5ec:	00000b38 	0x00000b38
 5f0:	3f012e07 	0x3f012e07
 5f4:	3a0e0319 	0x3a0e0319
 5f8:	390b3b0b 	0x390b3b0b
 5fc:	4919270b 	0x4919270b
 600:	12011113 	addu16i.d	$r19,$r8,-32700(0x8044)
 604:	97184006 	0x97184006
 608:	13011942 	addu16i.d	$r2,$r10,-16314(0xc046)
 60c:	34080000 	0x34080000
 610:	3a080300 	0x3a080300
 614:	390b3b0b 	0x390b3b0b
 618:	0213490b 	slti	$r11,$r8,1234(0x4d2)
 61c:	1742b717 	lu32i.d	$r23,-387656(0xa15b8)
 620:	1d090000 	pcaddu12i	$r0,-505856(0x84800)
 624:	52133101 	b	67506992(0x4061330) # 4061954 <__stack_size+0x4051954>
 628:	0b42b801 	0x0b42b801
 62c:	0b581755 	0x0b581755
 630:	0b570b59 	0x0b570b59
 634:	0b0a0000 	0x0b0a0000
 638:	00175501 	sll.w	$r1,$r8,$r21
 63c:	00340b00 	0x00340b00
 640:	17021331 	lu32i.d	$r17,-520039(0x81099)
 644:	001742b7 	sll.w	$r23,$r21,$r16
 648:	012e0c00 	0x012e0c00
 64c:	0e03193f 	0x0e03193f
 650:	0b3b0b3a 	0x0b3b0b3a
 654:	13490b39 	addu16i.d	$r25,$r25,-11710(0xd242)
 658:	00001301 	clo.w	$r1,$r24
 65c:	0300340d 	lu52i.d	$r13,$r0,13(0xd)
 660:	3b0b3a08 	0x3b0b3a08
 664:	490b390b 	bcnez	$fcc0,2951992(0x2d0b38) # 2d119c <__stack_size+0x2c119c>
 668:	0e000013 	0x0e000013
 66c:	08030005 	0x08030005
 670:	0b3b0b3a 	0x0b3b0b3a
 674:	13490b39 	addu16i.d	$r25,$r25,-11710(0xd242)
 678:	42b71702 	beqz	$r24,702228(0xab714) # abd8c <__stack_size+0x9bd8c>
 67c:	0f000017 	0x0f000017
 680:	08030005 	0x08030005
 684:	0b3b0b3a 	0x0b3b0b3a
 688:	13490b39 	addu16i.d	$r25,$r25,-11710(0xd242)
 68c:	00001802 	cto.w	$r2,$r0
 690:	0b000f10 	0x0b000f10
 694:	0013490b 	maskeqz	$r11,$r8,$r18
 698:	012e1100 	0x012e1100
 69c:	0e03193f 	0x0e03193f
 6a0:	0b3b0b3a 	0x0b3b0b3a
 6a4:	13490b39 	addu16i.d	$r25,$r25,-11710(0xd242)
 6a8:	06120111 	cacop	0x11,$r8,1152(0x480)
 6ac:	42971840 	beqz	$r2,169752(0x29718) # 29dc4 <__stack_size+0x19dc4>
 6b0:	00130119 	maskeqz	$r25,$r8,$r0
 6b4:	012e1200 	0x012e1200
 6b8:	0e03193f 	0x0e03193f
 6bc:	0b3b0b3a 	0x0b3b0b3a
 6c0:	13490b39 	addu16i.d	$r25,$r25,-11710(0xd242)
 6c4:	00000b20 	0x00000b20
 6c8:	03003413 	lu52i.d	$r19,$r0,13(0xd)
 6cc:	3b0b3a0e 	0x3b0b3a0e
 6d0:	490b390b 	bcnez	$fcc0,2951992(0x2d0b38) # 2d1208 <__stack_size+0x2c1208>
 6d4:	00000013 	0x00000013

Disassembly of section .debug_loc:

00000000 <.debug_loc>:
	...
   c:	00000064 	0x00000064
  10:	64540001 	bge	$r0,$r1,21504(0x5400) # 5410 <__stack_size-0xabf0>
  14:	cc000000 	0xcc000000
  18:	01000000 	0x01000000
  1c:	00cc6900 	bstrpick.d	$r0,$r8,0xc,0x1a
  20:	00f80000 	bstrpick.d	$r0,$r0,0x38,0x0
  24:	00040000 	alsl.w	$r0,$r0,$r0,0x1
  28:	9f5401f3 	0x9f5401f3
  2c:	000000f8 	0x000000f8
  30:	0000023c 	0x0000023c
  34:	00690001 	bstrins.w	$r1,$r0,0x9,0x0
  38:	00000000 	0x00000000
  3c:	02000000 	slti	$r0,$r0,0
  40:	00000000 	0x00000000
  44:	00000101 	0x00000101
  48:	00000000 	0x00000000
  4c:	02020000 	slti	$r0,$r0,128(0x80)
  50:	02020000 	slti	$r0,$r0,128(0x80)
  54:	02020000 	slti	$r0,$r0,128(0x80)
  58:	02020000 	slti	$r0,$r0,128(0x80)
  5c:	02020000 	slti	$r0,$r0,128(0x80)
  60:	02020000 	slti	$r0,$r0,128(0x80)
  64:	02020000 	slti	$r0,$r0,128(0x80)
  68:	02020000 	slti	$r0,$r0,128(0x80)
  6c:	01010000 	fadd.d	$f0,$f0,$f0
  70:	00004800 	bitrev.4b	$r0,$r0
  74:	00006400 	rdtimeh.w	$r0,$r0
  78:	30000200 	0x30000200
  7c:	0000649f 	rdtimeh.w	$r31,$r4
  80:	0000cc00 	0x0000cc00
  84:	68000100 	bltu	$r8,$r0,0 # 84 <__stack_size-0xff7c>
  88:	000000f8 	0x000000f8
  8c:	000000f8 	0x000000f8
  90:	f8680001 	0xf8680001
  94:	04000000 	csrrd	$r0,0x0
  98:	03000001 	lu52i.d	$r1,$r0,0
  9c:	9f018800 	0x9f018800
  a0:	00000104 	0x00000104
  a4:	00000120 	0x00000120
  a8:	20680001 	ll.w	$r1,$r0,26624(0x6800)
  ac:	3c000001 	0x3c000001
  b0:	03000001 	lu52i.d	$r1,$r0,0
  b4:	9f7f8800 	0x9f7f8800
  b8:	0000013c 	0x0000013c
  bc:	00000158 	0x00000158
  c0:	58680001 	beq	$r0,$r1,26624(0x6800) # 68c0 <__stack_size-0x9740>
  c4:	5c000001 	bne	$r0,$r1,0 # c4 <__stack_size-0xff3c>
  c8:	03000001 	lu52i.d	$r1,$r0,0
  cc:	9f7f8800 	0x9f7f8800
  d0:	0000015c 	0x0000015c
  d4:	00000168 	0x00000168
  d8:	68680001 	bltu	$r0,$r1,26624(0x6800) # 68d8 <__stack_size-0x9728>
  dc:	70000001 	vseq.b	$vr1,$vr0,$vr0
  e0:	03000001 	lu52i.d	$r1,$r0,0
  e4:	9f7f8800 	0x9f7f8800
  e8:	00000170 	0x00000170
  ec:	00000188 	0x00000188
  f0:	88680001 	0x88680001
  f4:	8c000001 	0x8c000001
  f8:	03000001 	lu52i.d	$r1,$r0,0
  fc:	9f7f8800 	0x9f7f8800
 100:	0000018c 	0x0000018c
 104:	000001a4 	0x000001a4
 108:	a4680001 	0xa4680001
 10c:	a8000001 	0xa8000001
 110:	03000001 	lu52i.d	$r1,$r0,0
 114:	9f7e8800 	0x9f7e8800
 118:	000001a8 	0x000001a8
 11c:	000001c4 	0x000001c4
 120:	c4680001 	0xc4680001
 124:	c8000001 	0xc8000001
 128:	03000001 	lu52i.d	$r1,$r0,0
 12c:	9f7f8800 	0x9f7f8800
 130:	000001c8 	0x000001c8
 134:	000001e4 	0x000001e4
 138:	e4680001 	0xe4680001
 13c:	e8000001 	0xe8000001
 140:	03000001 	lu52i.d	$r1,$r0,0
 144:	9f7f8800 	0x9f7f8800
 148:	000001e8 	0x000001e8
 14c:	000001f8 	0x000001f8
 150:	f8680001 	0xf8680001
 154:	00000001 	0x00000001
 158:	03000002 	lu52i.d	$r2,$r0,0
 15c:	9f7f8800 	0x9f7f8800
 160:	00000200 	0x00000200
 164:	00000218 	0x00000218
 168:	18680001 	pcaddi	$r1,212992(0x34000)
 16c:	1c000002 	pcaddu12i	$r2,0
 170:	03000002 	lu52i.d	$r2,$r0,0
 174:	9f7f8800 	0x9f7f8800
 178:	0000021c 	0x0000021c
 17c:	00000228 	0x00000228
 180:	28680001 	ld.h	$r1,$r0,-1536(0xa00)
 184:	2c000002 	vld	$vr2,$r0,0
 188:	03000002 	lu52i.d	$r2,$r0,0
 18c:	9f7f8800 	0x9f7f8800
 190:	0000022c 	0x0000022c
 194:	0000023c 	0x0000023c
 198:	00680001 	bstrins.w	$r1,$r0,0x8,0x0
	...
 1a4:	00000100 	0x00000100
 1a8:	00006400 	rdtimeh.w	$r0,$r0
 1ac:	00007800 	0x00007800
 1b0:	67000100 	bge	$r8,$r0,-65536(0x30000) # ffff01b0 <_stack+0xe3ef01b4>
 1b4:	0000007c 	0x0000007c
 1b8:	000000cc 	0x000000cc
 1bc:	f8670001 	0xf8670001
 1c0:	3c000000 	0x3c000000
 1c4:	01000002 	0x01000002
 1c8:	00006700 	rdtimeh.w	$r0,$r24
 1cc:	00000000 	0x00000000
 1d0:	00010000 	asrtle.d	$r0,$r0
 1d4:	01000000 	0x01000000
 1d8:	01000001 	0x01000001
 1dc:	01000001 	0x01000001
 1e0:	01000001 	0x01000001
 1e4:	01000001 	0x01000001
 1e8:	01000001 	0x01000001
 1ec:	01000001 	0x01000001
 1f0:	01000001 	0x01000001
 1f4:	00480001 	0x00480001
 1f8:	00cc0000 	bstrpick.d	$r0,$r0,0xc,0x0
 1fc:	00010000 	asrtle.d	$r0,$r0
 200:	0000f86a 	0x0000f86a
 204:	00015400 	asrtle.d	$r0,$r21
 208:	6a000100 	bltu	$r8,$r0,-131072(0x20000) # fffe0208 <_stack+0xe3ee020c>
 20c:	00000154 	0x00000154
 210:	0000015c 	0x0000015c
 214:	7c8a0003 	0x7c8a0003
 218:	00015c9f 	0x00015c9f
 21c:	00016c00 	asrtle.d	$r0,$r27
 220:	6a000100 	bltu	$r8,$r0,-131072(0x20000) # fffe0220 <_stack+0xe3ee0224>
 224:	0000016c 	0x0000016c
 228:	00000170 	0x00000170
 22c:	7c8a0003 	0x7c8a0003
 230:	0001709f 	0x0001709f
 234:	00018400 	asrtgt.d	$r0,$r1
 238:	6a000100 	bltu	$r8,$r0,-131072(0x20000) # fffe0238 <_stack+0xe3ee023c>
 23c:	00000184 	0x00000184
 240:	0000018c 	0x0000018c
 244:	7c8a0003 	0x7c8a0003
 248:	00018c9f 	0x00018c9f
 24c:	0001a000 	asrtgt.d	$r0,$r8
 250:	6a000100 	bltu	$r8,$r0,-131072(0x20000) # fffe0250 <_stack+0xe3ee0254>
 254:	000001a0 	0x000001a0
 258:	000001a8 	0x000001a8
 25c:	7c8a0003 	0x7c8a0003
 260:	0001a89f 	0x0001a89f
 264:	0001c000 	asrtgt.d	$r0,$r16
 268:	6a000100 	bltu	$r8,$r0,-131072(0x20000) # fffe0268 <_stack+0xe3ee026c>
 26c:	000001c0 	0x000001c0
 270:	000001c8 	0x000001c8
 274:	7c8a0003 	0x7c8a0003
 278:	0001c89f 	0x0001c89f
 27c:	0001e000 	asrtgt.d	$r0,$r24
 280:	6a000100 	bltu	$r8,$r0,-131072(0x20000) # fffe0280 <_stack+0xe3ee0284>
 284:	000001e0 	0x000001e0
 288:	000001e8 	0x000001e8
 28c:	7c8a0003 	0x7c8a0003
 290:	0001e89f 	0x0001e89f
 294:	0001fc00 	asrtgt.d	$r0,$r31
 298:	6a000100 	bltu	$r8,$r0,-131072(0x20000) # fffe0298 <_stack+0xe3ee029c>
 29c:	000001fc 	0x000001fc
 2a0:	00000200 	0x00000200
 2a4:	7c8a0003 	0x7c8a0003
 2a8:	0002009f 	0x0002009f
 2ac:	00021400 	0x00021400
 2b0:	6a000100 	bltu	$r8,$r0,-131072(0x20000) # fffe02b0 <_stack+0xe3ee02b4>
 2b4:	00000214 	0x00000214
 2b8:	0000021c 	0x0000021c
 2bc:	7c8a0003 	0x7c8a0003
 2c0:	00021c9f 	0x00021c9f
 2c4:	00023c00 	0x00023c00
 2c8:	6a000100 	bltu	$r8,$r0,-131072(0x20000) # fffe02c8 <_stack+0xe3ee02cc>
	...
 2f0:	000000ac 	0x000000ac
 2f4:	000000cc 	0x000000cc
 2f8:	f8550001 	0xf8550001
 2fc:	04000000 	csrrd	$r0,0x0
 300:	01000001 	0x01000001
 304:	01045500 	0x01045500
 308:	01180000 	0x01180000
 30c:	00020000 	0x00020000
 310:	01189f30 	0x01189f30
 314:	011c0000 	0x011c0000
 318:	00010000 	asrtle.d	$r0,$r0
 31c:	00013c55 	0x00013c55
 320:	00015b00 	asrtle.d	$r24,$r22
 324:	55000100 	bl	67174400(0x4010000) # 4010324 <__stack_size+0x4000324>
 328:	00000160 	0x00000160
 32c:	0000016f 	0x0000016f
 330:	74550001 	xvhaddw.d.w	$xr1,$xr0,$xr0
 334:	8b000001 	0x8b000001
 338:	01000001 	0x01000001
 33c:	01905500 	0x01905500
 340:	01a70000 	0x01a70000
 344:	00010000 	asrtle.d	$r0,$r0
 348:	0001ac55 	0x0001ac55
 34c:	0001c700 	asrtgt.d	$r24,$r17
 350:	55000100 	bl	67174400(0x4010000) # 4010350 <__stack_size+0x4000350>
 354:	000001cc 	0x000001cc
 358:	000001e7 	0x000001e7
 35c:	ec550001 	0xec550001
 360:	ff000001 	0xff000001
 364:	01000001 	0x01000001
 368:	02045500 	slti	$r0,$r8,277(0x115)
 36c:	021b0000 	slti	$r0,$r0,1728(0x6c0)
 370:	00010000 	asrtle.d	$r0,$r0
 374:	00022055 	0x00022055
 378:	00022b00 	0x00022b00
 37c:	55000100 	bl	67174400(0x4010000) # 401037c <__stack_size+0x400037c>
 380:	00000230 	0x00000230
 384:	00000237 	0x00000237
 388:	00550001 	0x00550001
	...
 398:	1c000000 	pcaddu12i	$r0,0
 39c:	01000000 	0x01000000
 3a0:	001c5400 	mul.w	$r0,$r0,$r21
 3a4:	00280000 	0x00280000
 3a8:	00040000 	alsl.w	$r0,$r0,$r0,0x1
 3ac:	9f5401f3 	0x9f5401f3
	...
 3b8:	00000002 	0x00000002
 3bc:	00180000 	sra.w	$r0,$r0,$r0
 3c0:	00010000 	asrtle.d	$r0,$r0
 3c4:	00000054 	0x00000054
	...
 3d0:	00008000 	0x00008000
 3d4:	00008b00 	0x00008b00
 3d8:	54000100 	bl	67108864(0x4000000) # 40003d8 <__stack_size+0x3ff03d8>
 3dc:	0000008b 	0x0000008b
 3e0:	000000ac 	0x000000ac
 3e4:	01f30004 	0x01f30004
 3e8:	00009f54 	0x00009f54
	...
 3f4:	00010100 	asrtle.d	$r8,$r0
 3f8:	00010100 	asrtle.d	$r8,$r0
 3fc:	00000000 	0x00000000
 400:	00000028 	0x00000028
 404:	28540001 	ld.h	$r1,$r0,1280(0x500)
 408:	30000000 	0x30000000
 40c:	03000000 	lu52i.d	$r0,$r0,0
 410:	9f7f8800 	0x9f7f8800
 414:	00000030 	0x00000030
 418:	0000003c 	0x0000003c
 41c:	3c680001 	0x3c680001
 420:	50000000 	b	0 # 420 <__stack_size-0xfbe0>
 424:	03000000 	lu52i.d	$r0,$r0,0
 428:	9f7f8800 	0x9f7f8800
 42c:	00000050 	0x00000050
 430:	00000058 	0x00000058
 434:	00680001 	bstrins.w	$r1,$r0,0x8,0x0
	...
 440:	00001800 	cto.w	$r0,$r0
 444:	00006000 	rdtimel.w	$r0,$r0
 448:	67000100 	bge	$r8,$r0,-65536(0x30000) # ffff0448 <_stack+0xe3ef044c>
	...
 464:	00000024 	0x00000024
 468:	24540001 	ldptr.w	$r1,$r0,21504(0x5400)
 46c:	c0000000 	0xc0000000
 470:	04000000 	csrrd	$r0,0x0
 474:	5401f300 	bl	-67108368(0xc0001f0) # fc000664 <_stack+0xdff00668>
 478:	0000c09f 	0x0000c09f
 47c:	0000c400 	0x0000c400
 480:	54000100 	bl	67108864(0x4000000) # 4000480 <__stack_size+0x3ff0480>
 484:	000000c4 	0x000000c4
 488:	000000d4 	0x000000d4
 48c:	d4670001 	0xd4670001
 490:	e0000000 	0xe0000000
 494:	04000000 	csrrd	$r0,0x0
 498:	1f008700 	pcaddu18i	$r0,-523208(0x80438)
 49c:	0000e09f 	0x0000e09f
 4a0:	0000ec00 	0x0000ec00
 4a4:	54000100 	bl	67108864(0x4000000) # 40004a4 <__stack_size+0x3ff04a4>
	...
 4bc:	00240000 	crc.w.b.w	$r0,$r0,$r0
 4c0:	00010000 	asrtle.d	$r0,$r0
 4c4:	00002455 	clz.d	$r21,$r2
 4c8:	0000c000 	0x0000c000
 4cc:	f3000400 	0xf3000400
 4d0:	c09f5501 	0xc09f5501
 4d4:	cf000000 	0xcf000000
 4d8:	01000000 	0x01000000
 4dc:	00cf5500 	bstrpick.d	$r0,$r8,0xf,0x15
 4e0:	00e00000 	bstrpick.d	$r0,$r0,0x20,0x0
 4e4:	00030000 	0x00030000
 4e8:	e07fa891 	0xe07fa891
 4ec:	ec000000 	0xec000000
 4f0:	01000000 	0x01000000
 4f4:	00005500 	bitrev.d	$r0,$r8
	...
 50c:	00000024 	0x00000024
 510:	24560001 	ldptr.w	$r1,$r0,22016(0x5600)
 514:	c0000000 	0xc0000000
 518:	04000000 	csrrd	$r0,0x0
 51c:	5601f300 	bl	-66977296(0xc0201f0) # fc02070c <_stack+0xdff20710>
 520:	0000c09f 	0x0000c09f
 524:	0000cf00 	0x0000cf00
 528:	56000100 	bl	67239936(0x4020000) # 4020528 <__stack_size+0x4010528>
 52c:	000000cf 	0x000000cf
 530:	000000e0 	0x000000e0
 534:	ac910003 	0xac910003
 538:	0000e07f 	0x0000e07f
 53c:	0000ec00 	0x0000ec00
 540:	56000100 	bl	67239936(0x4020000) # 4020540 <__stack_size+0x4010540>
	...
 558:	00240000 	crc.w.b.w	$r0,$r0,$r0
 55c:	00010000 	asrtle.d	$r0,$r0
 560:	00002457 	clz.d	$r23,$r2
 564:	0000c000 	0x0000c000
 568:	f3000400 	0xf3000400
 56c:	c09f5701 	0xc09f5701
 570:	cf000000 	0xcf000000
 574:	01000000 	0x01000000
 578:	00cf5700 	bstrpick.d	$r0,$r24,0xf,0x15
 57c:	00e00000 	bstrpick.d	$r0,$r0,0x20,0x0
 580:	00040000 	alsl.w	$r0,$r0,$r0,0x1
 584:	9f5701f3 	0x9f5701f3
 588:	000000e0 	0x000000e0
 58c:	000000ec 	0x000000ec
 590:	00570001 	0x00570001
 594:	00000000 	0x00000000
 598:	01000000 	0x01000000
	...
 5a4:	20000100 	ll.w	$r0,$r8,0
 5a8:	34000000 	0x34000000
 5ac:	02000000 	slti	$r0,$r0,0
 5b0:	349f3000 	0x349f3000
 5b4:	38000000 	ldx.b	$r0,$r0,$r0
 5b8:	01000000 	0x01000000
 5bc:	00386800 	0x00386800
 5c0:	00580000 	0x00580000
 5c4:	00080000 	bytepick.w	$r0,$r0,$r0,0x0
 5c8:	0091007c 	bstrins.d	$r28,$r3,0x11,0x0
 5cc:	9f50231c 	0x9f50231c
 5d0:	00000058 	0x00000058
 5d4:	00000064 	0x00000064
 5d8:	b8680001 	0xb8680001
 5dc:	c0000000 	0xc0000000
 5e0:	01000000 	0x01000000
 5e4:	00d46800 	bstrpick.d	$r0,$r0,0x14,0x1a
 5e8:	00ec0000 	bstrpick.d	$r0,$r0,0x2c,0x0
 5ec:	00020000 	0x00020000
 5f0:	00009f30 	0x00009f30
	...
 600:	00020000 	0x00020000
 604:	00000070 	0x00000070
 608:	00000094 	0x00000094
 60c:	94670001 	0x94670001
 610:	98000000 	0x98000000
 614:	03000000 	lu52i.d	$r0,$r0,0
 618:	9f018700 	0x9f018700
 61c:	00000098 	0x00000098
 620:	0000009c 	0x0000009c
 624:	bc670001 	0xbc670001
 628:	c0000000 	0xc0000000
 62c:	01000000 	0x01000000
 630:	00e05500 	bstrpick.d	$r0,$r8,0x20,0x15
 634:	00ec0000 	bstrpick.d	$r0,$r0,0x2c,0x0
 638:	000d0000 	bytepick.d	$r0,$r0,$r0,0x2
 63c:	30120075 	vldrepl.d	$vr21,$r3,1024(0x400)
 640:	282b1416 	ld.b	$r22,$r0,-1339(0xac5)
 644:	13160001 	addu16i.d	$r1,$r0,-14976(0xc580)
 648:	0000009f 	0x0000009f
 64c:	00000000 	0x00000000
 650:	84000000 	0x84000000
 654:	90000000 	0x90000000
 658:	01000000 	0x01000000
 65c:	00005c00 	ext.w.b	$r0,$r0
 660:	00000000 	0x00000000
 664:	00010000 	asrtle.d	$r0,$r0
	...
 674:	00200000 	div.w	$r0,$r0,$r0
 678:	00240000 	crc.w.b.w	$r0,$r0,$r0
 67c:	00010000 	asrtle.d	$r0,$r0
 680:	00002454 	clz.d	$r20,$r2
 684:	00003400 	revb.4h	$r0,$r0
 688:	67000100 	bge	$r8,$r0,-65536(0x30000) # ffff0688 <_stack+0xe3ef068c>
 68c:	00000034 	0x00000034
 690:	00000038 	0x00000038
 694:	385d0001 	0x385d0001
 698:	58000000 	beq	$r0,$r0,0 # 698 <__stack_size-0xf968>
 69c:	01000000 	0x01000000
 6a0:	00586700 	0x00586700
 6a4:	00640000 	bstrins.w	$r0,$r0,0x4,0x0
 6a8:	00010000 	asrtle.d	$r0,$r0
 6ac:	0000b85d 	0x0000b85d
 6b0:	0000c000 	0x0000c000
 6b4:	5d000100 	bne	$r8,$r0,65536(0x10000) # 106b4 <__stack_size+0x6b4>
 6b8:	000000d4 	0x000000d4
 6bc:	000000e0 	0x000000e0
 6c0:	e0670001 	0xe0670001
 6c4:	ec000000 	0xec000000
 6c8:	01000000 	0x01000000
 6cc:	00005400 	bitrev.d	$r0,$r0
	...
 6d8:	9c500000 	0x9c500000
 6dc:	9c581c00 	0x9c581c00
 6e0:	00011c00 	asrtle.d	$r0,$r7
 6e4:	009c5854 	bstrins.d	$r20,$r2,0x1c,0x16
 6e8:	009c681c 	bstrins.d	$r28,$r0,0x1c,0x1a
 6ec:	f300041c 	0xf300041c
 6f0:	009f5401 	bstrins.d	$r1,$r0,0x1f,0x15
	...
 6fc:	50000000 	b	0 # 6fc <__stack_size-0xf904>
 700:	581c009c 	beq	$r4,$r28,7168(0x1c00) # 2300 <__stack_size-0xdd00>
 704:	011c009c 	0x011c009c
 708:	9c585500 	0x9c585500
 70c:	9c681c00 	0x9c681c00
 710:	00041c00 	alsl.w	$r0,$r0,$r7,0x1
 714:	9f5501f3 	0x9f5501f3
	...
 720:	00050502 	alsl.w	$r2,$r8,$r1,0x3
 724:	9c500000 	0x9c500000
 728:	9c501c00 	0x9c501c00
 72c:	00011c00 	asrtle.d	$r0,$r7
 730:	009c5055 	bstrins.d	$r21,$r2,0x1c,0x14
 734:	009c581c 	bstrins.d	$r28,$r0,0x1c,0x16
 738:	7500031c 	0x7500031c
 73c:	9c589f7f 	0x9c589f7f
 740:	9c641c00 	0x9c641c00
 744:	00061c00 	alsl.wu	$r0,$r0,$r7,0x1
 748:	315501f3 	vstelm.h	$vr19,$r15,128(0x80),0x5
 74c:	00009f1c 	0x00009f1c
 750:	00000000 	0x00000000
 754:	00020000 	0x00020000
 758:	9c500000 	0x9c500000
 75c:	9c581c00 	0x9c581c00
 760:	00011c00 	asrtle.d	$r0,$r7
 764:	009c5854 	bstrins.d	$r20,$r2,0x1c,0x16
 768:	009c681c 	bstrins.d	$r28,$r0,0x1c,0x1a
 76c:	f300041c 	0xf300041c
 770:	009f5401 	bstrins.d	$r1,$r0,0x1f,0x15
 774:	00000000 	0x00000000
 778:	04000000 	csrrd	$r0,0x0
 77c:	009c5000 	bstrins.d	$r0,$r0,0x1c,0x14
 780:	009c681c 	bstrins.d	$r28,$r0,0x1c,0x1a
 784:	5400011c 	bl	74448896(0x4700000) # 4700784 <__stack_size+0x46f0784>
	...
 794:	1c009bf0 	pcaddu12i	$r16,1247(0x4df)
 798:	1c009c08 	pcaddu12i	$r8,1248(0x4e0)
 79c:	08540001 	fmsub.s	$f1,$f0,$f0,$f8
 7a0:	481c009c 	bceqz	$fcc4,-1041408(0x701c00) # fff023a0 <_stack+0xe3e023a4>
 7a4:	041c009c 	csrxchg	$r28,$r4,0x700
 7a8:	5401f300 	bl	-67108368(0xc0001f0) # fc000998 <_stack+0xdff0099c>
 7ac:	0000009f 	0x0000009f
	...
 7b8:	009bf000 	bstrins.d	$r0,$r0,0x1b,0x3c
 7bc:	009c081c 	bstrins.d	$r28,$r0,0x1c,0x2
 7c0:	5500011c 	bl	74514432(0x4710000) # 47107c0 <__stack_size+0x47007c0>
 7c4:	1c009c08 	pcaddu12i	$r8,1248(0x4e0)
 7c8:	1c009c48 	pcaddu12i	$r8,1250(0x4e2)
 7cc:	01f30004 	0x01f30004
 7d0:	00009f55 	0x00009f55
 7d4:	00000000 	0x00000000
 7d8:	04000000 	csrrd	$r0,0x0
 7dc:	00000004 	0x00000004
 7e0:	9bf00001 	0x9bf00001
 7e4:	9bf01c00 	0x9bf01c00
 7e8:	00011c00 	asrtle.d	$r0,$r7
 7ec:	009bf056 	bstrins.d	$r22,$r2,0x1b,0x3c
 7f0:	009c001c 	bstrins.d	$r28,$r0,0x1c,0x0
 7f4:	7600031c 	0x7600031c
 7f8:	9c009f7f 	0x9c009f7f
 7fc:	9c141c00 	0x9c141c00
 800:	00061c00 	alsl.wu	$r0,$r0,$r7,0x1
 804:	315601f3 	vstelm.h	$vr19,$r15,-256(0x100),0x5
 808:	9c149f1c 	0x9c149f1c
 80c:	9c201c00 	0x9c201c00
 810:	00061c00 	alsl.wu	$r0,$r0,$r7,0x1
 814:	315601f3 	vstelm.h	$vr19,$r15,-256(0x100),0x5
 818:	00009f1c 	0x00009f1c
 81c:	00000000 	0x00000000
 820:	00020000 	0x00020000
 824:	9bf00000 	0x9bf00000
 828:	9c241c00 	0x9c241c00
 82c:	00011c00 	asrtle.d	$r0,$r7
 830:	009c2854 	bstrins.d	$r20,$r2,0x1c,0xa
 834:	009c3c1c 	bstrins.d	$r28,$r0,0x1c,0xf
 838:	5400011c 	bl	74448896(0x4700000) # 4700838 <__stack_size+0x46f0838>
	...
 844:	9bf00003 	0x9bf00003
 848:	9c481c00 	0x9c481c00
 84c:	00011c00 	asrtle.d	$r0,$r7
 850:	00000055 	0x00000055
	...
 85c:	90000000 	0x90000000
 860:	cc1c009b 	0xcc1c009b
 864:	011c009b 	0x011c009b
 868:	9bcc5500 	0x9bcc5500
 86c:	9be81c00 	0x9be81c00
 870:	00041c00 	alsl.w	$r0,$r0,$r7,0x1
 874:	9f5501f3 	0x9f5501f3
 878:	1c009be8 	pcaddu12i	$r8,1247(0x4df)
 87c:	1c009bec 	pcaddu12i	$r12,1247(0x4df)
 880:	00550001 	0x00550001
	...
 88c:	00000101 	0x00000101
 890:	009b9000 	bstrins.d	$r0,$r0,0x1b,0x24
 894:	009ba01c 	bstrins.d	$r28,$r0,0x1b,0x28
 898:	5600011c 	bl	74579968(0x4720000) # 4720898 <__stack_size+0x4710898>
 89c:	1c009ba0 	pcaddu12i	$r0,1245(0x4dd)
 8a0:	1c009be4 	pcaddu12i	$r4,1247(0x4df)
 8a4:	7f760003 	0x7f760003
 8a8:	009be89f 	bstrins.d	$r31,$r4,0x1b,0x3a
 8ac:	009bec1c 	bstrins.d	$r28,$r0,0x1b,0x3b
 8b0:	7600031c 	0x7600031c
 8b4:	00009f7f 	0x00009f7f
 8b8:	00000000 	0x00000000
 8bc:	01020000 	0x01020000
 8c0:	00000001 	0x00000001
 8c4:	9b900000 	0x9b900000
 8c8:	9b9c1c00 	0x9b9c1c00
 8cc:	00011c00 	asrtle.d	$r0,$r7
 8d0:	009b9c55 	bstrins.d	$r21,$r2,0x1b,0x27
 8d4:	009bbc1c 	bstrins.d	$r28,$r0,0x1b,0x2f
 8d8:	5c00011c 	bne	$r8,$r28,0 # 8d8 <__stack_size-0xf728>
 8dc:	1c009bbc 	pcaddu12i	$r28,1245(0x4dd)
 8e0:	1c009be4 	pcaddu12i	$r4,1247(0x4df)
 8e4:	e8550001 	0xe8550001
 8e8:	ec1c009b 	0xec1c009b
 8ec:	011c009b 	0x011c009b
 8f0:	00005500 	bitrev.d	$r0,$r8
 8f4:	00000000 	0x00000000
 8f8:	00030000 	0x00030000
	...
 904:	1c009b90 	pcaddu12i	$r16,1244(0x4dc)
 908:	1c009ba0 	pcaddu12i	$r0,1245(0x4dd)
 90c:	a0540001 	0xa0540001
 910:	bc1c009b 	0xbc1c009b
 914:	011c009b 	0x011c009b
 918:	9bbc5d00 	0x9bbc5d00
 91c:	9bcc1c00 	0x9bcc1c00
 920:	00011c00 	asrtle.d	$r0,$r7
 924:	009bcc54 	bstrins.d	$r20,$r2,0x1b,0x33
 928:	009be41c 	bstrins.d	$r28,$r0,0x1b,0x39
 92c:	5c00011c 	bne	$r8,$r28,0 # 92c <__stack_size-0xf6d4>
 930:	1c009be8 	pcaddu12i	$r8,1247(0x4df)
 934:	1c009bec 	pcaddu12i	$r12,1247(0x4df)
 938:	00540001 	0x00540001
	...
 944:	60000000 	blt	$r0,$r0,0 # 944 <__stack_size-0xf6bc>
 948:	6c1c009b 	bgeu	$r4,$r27,7168(0x1c00) # 2548 <__stack_size-0xdab8>
 94c:	011c009b 	0x011c009b
 950:	9b6c5500 	0x9b6c5500
 954:	9b881c00 	0x9b881c00
 958:	00041c00 	alsl.w	$r0,$r0,$r7,0x1
 95c:	9f5501f3 	0x9f5501f3
	...
 968:	00040400 	alsl.w	$r0,$r0,$r1,0x1
 96c:	9b600000 	0x9b600000
 970:	9b601c00 	0x9b601c00
 974:	00011c00 	asrtle.d	$r0,$r7
 978:	009b6056 	bstrins.d	$r22,$r2,0x1b,0x18
 97c:	009b681c 	bstrins.d	$r28,$r0,0x1b,0x1a
 980:	7600031c 	0x7600031c
 984:	9b689f7f 	0x9b689f7f
 988:	9b841c00 	0x9b841c00
 98c:	00061c00 	alsl.wu	$r0,$r0,$r7,0x1
 990:	315601f3 	vstelm.h	$vr19,$r15,-256(0x100),0x5
 994:	00009f1c 	0x00009f1c
 998:	00000000 	0x00000000
 99c:	00020000 	0x00020000
 9a0:	1c009b60 	pcaddu12i	$r0,1243(0x4db)
 9a4:	1c009b88 	pcaddu12i	$r8,1244(0x4dc)
 9a8:	00550001 	0x00550001
 9ac:	00000000 	0x00000000
 9b0:	03000000 	lu52i.d	$r0,$r0,0
 9b4:	60000000 	blt	$r0,$r0,0 # 9b4 <__stack_size-0xf64c>
 9b8:	6c1c009b 	bgeu	$r4,$r27,7168(0x1c00) # 25b8 <__stack_size-0xda48>
 9bc:	011c009b 	0x011c009b
 9c0:	9b6c5400 	0x9b6c5400
 9c4:	9b841c00 	0x9b841c00
 9c8:	00011c00 	asrtle.d	$r0,$r7
 9cc:	0000005c 	0x0000005c
	...
 9d8:	009b1000 	bstrins.d	$r0,$r0,0x1b,0x4
 9dc:	009b281c 	bstrins.d	$r28,$r0,0x1b,0xa
 9e0:	5400011c 	bl	74448896(0x4700000) # 47009e0 <__stack_size+0x46f09e0>
 9e4:	1c009b28 	pcaddu12i	$r8,1241(0x4d9)
 9e8:	1c009b38 	pcaddu12i	$r24,1241(0x4d9)
 9ec:	00540001 	0x00540001
	...
 9fc:	009ad000 	bstrins.d	$r0,$r0,0x1a,0x34
 a00:	009ae41c 	bstrins.d	$r28,$r0,0x1a,0x39
 a04:	5400011c 	bl	74448896(0x4700000) # 4700a04 <__stack_size+0x46f0a04>
 a08:	1c009ae4 	pcaddu12i	$r4,1239(0x4d7)
 a0c:	1c009b08 	pcaddu12i	$r8,1240(0x4d8)
 a10:	085c0001 	fmsub.s	$f1,$f0,$f0,$f24
 a14:	0c1c009b 	0x0c1c009b
 a18:	011c009b 	0x011c009b
 a1c:	00005400 	bitrev.d	$r0,$r0
	...
 a2c:	1c009a60 	pcaddu12i	$r0,1235(0x4d3)
 a30:	1c009a9c 	pcaddu12i	$r28,1236(0x4d4)
 a34:	9c540001 	0x9c540001
 a38:	a41c009a 	0xa41c009a
 a3c:	011c009a 	0x011c009a
 a40:	9aa85400 	0x9aa85400
 a44:	9ac01c00 	0x9ac01c00
 a48:	00011c00 	asrtle.d	$r0,$r7
 a4c:	00000054 	0x00000054
	...
 a5c:	60000000 	blt	$r0,$r0,0 # a5c <__stack_size-0xf5a4>
 a60:	7c1c009a 	0x7c1c009a
 a64:	011c009a 	0x011c009a
 a68:	9a7c5500 	0x9a7c5500
 a6c:	9a941c00 	0x9a941c00
 a70:	00011c00 	asrtle.d	$r0,$r7
 a74:	009a945c 	bstrins.d	$r28,$r2,0x1a,0x25
 a78:	009a9c1c 	bstrins.d	$r28,$r0,0x1a,0x27
 a7c:	5500011c 	bl	74514432(0x4710000) # 4710a7c <__stack_size+0x4700a7c>
 a80:	1c009a9c 	pcaddu12i	$r28,1236(0x4d4)
 a84:	1c009aa0 	pcaddu12i	$r0,1237(0x4d5)
 a88:	a85c0001 	0xa85c0001
 a8c:	ac1c009a 	0xac1c009a
 a90:	011c009a 	0x011c009a
 a94:	00005c00 	ext.w.b	$r0,$r0
	...
 aa4:	00010100 	asrtle.d	$r8,$r0
 aa8:	9a600000 	0x9a600000
 aac:	9a781c00 	0x9a781c00
 ab0:	00011c00 	asrtle.d	$r0,$r7
 ab4:	009a7856 	bstrins.d	$r22,$r2,0x1a,0x1e
 ab8:	009a7c1c 	bstrins.d	$r28,$r0,0x1a,0x1f
 abc:	f300041c 	0xf300041c
 ac0:	7c9f5601 	0x7c9f5601
 ac4:	941c009a 	0x941c009a
 ac8:	061c009a 	cacop	0x1a,$r4,1792(0x700)
 acc:	5601f300 	bl	-66977296(0xc0201f0) # fc020cbc <_stack+0xdff20cc0>
 ad0:	949f1c31 	0x949f1c31
 ad4:	941c009a 	0x941c009a
 ad8:	041c009a 	csrxchg	$r26,$r4,0x700
 adc:	5601f300 	bl	-66977296(0xc0201f0) # fc020ccc <_stack+0xdff20cd0>
 ae0:	009a949f 	bstrins.d	$r31,$r4,0x1a,0x25
 ae4:	009aa01c 	bstrins.d	$r28,$r0,0x1a,0x28
 ae8:	f300061c 	0xf300061c
 aec:	1c315601 	pcaddu12i	$r1,101040(0x18ab0)
 af0:	009aa89f 	bstrins.d	$r31,$r4,0x1a,0x2a
 af4:	009aac1c 	bstrins.d	$r28,$r0,0x1a,0x2b
 af8:	f300061c 	0xf300061c
 afc:	1c315601 	pcaddu12i	$r1,101040(0x18ab0)
 b00:	0000009f 	0x0000009f
	...
 b0c:	009a3000 	bstrins.d	$r0,$r0,0x1a,0xc
 b10:	009a541c 	bstrins.d	$r28,$r0,0x1a,0x15
 b14:	5500011c 	bl	74514432(0x4710000) # 4710b14 <__stack_size+0x4700b14>
 b18:	1c009a54 	pcaddu12i	$r20,1234(0x4d2)
 b1c:	1c009a5c 	pcaddu12i	$r28,1234(0x4d2)
 b20:	00550001 	0x00550001
	...
 b30:	01010000 	fadd.d	$f0,$f0,$f0
 b34:	009a3000 	bstrins.d	$r0,$r0,0x1a,0xc
 b38:	009a381c 	bstrins.d	$r28,$r0,0x1a,0xe
 b3c:	5600011c 	bl	74579968(0x4720000) # 4720b3c <__stack_size+0x4710b3c>
 b40:	1c009a38 	pcaddu12i	$r24,1233(0x4d1)
 b44:	1c009a3c 	pcaddu12i	$r28,1233(0x4d1)
 b48:	01f30004 	0x01f30004
 b4c:	9a3c9f56 	0x9a3c9f56
 b50:	9a481c00 	0x9a481c00
 b54:	000a1c00 	0x000a1c00
 b58:	007d0074 	bstrins.w	$r20,$r3,0x1d,0x0
 b5c:	5601f31c 	bl	-59637264(0xc7201f0) # fc720d4c <_stack+0xe0620d50>
 b60:	9a489f22 	0x9a489f22
 b64:	9a541c00 	0x9a541c00
 b68:	000c1c00 	bytepick.d	$r0,$r0,$r7,0x0
 b6c:	007d0074 	bstrins.w	$r20,$r3,0x1d,0x0
 b70:	5601f31c 	bl	-59637264(0xc7201f0) # fc720d60 <_stack+0xe0620d64>
 b74:	9f012322 	0x9f012322
 b78:	1c009a54 	pcaddu12i	$r20,1234(0x4d2)
 b7c:	1c009a58 	pcaddu12i	$r24,1234(0x4d2)
 b80:	0074000a 	bstrins.w	$r10,$r0,0x14,0x0
 b84:	f31c007d 	0xf31c007d
 b88:	9f225601 	0x9f225601
	...
 b94:	00000002 	0x00000002
 b98:	00010100 	asrtle.d	$r8,$r0
 b9c:	1c009a30 	pcaddu12i	$r16,1233(0x4d1)
 ba0:	1c009a3c 	pcaddu12i	$r28,1233(0x4d1)
 ba4:	3c540001 	0x3c540001
 ba8:	481c009a 	bceqz	$fcc4,-1565696(0x681c00) # ffe827a8 <_stack+0xe3d827ac>
 bac:	011c009a 	0x011c009a
 bb0:	9a485d00 	0x9a485d00
 bb4:	9a541c00 	0x9a541c00
 bb8:	00031c00 	0x00031c00
 bbc:	549f7f7d 	bl	-34300036(0xdf49f7c) # fdf4ab38 <_stack+0xe1e4ab3c>
 bc0:	581c009a 	beq	$r4,$r26,7168(0x1c00) # 27c0 <__stack_size-0xd840>
 bc4:	011c009a 	0x011c009a
 bc8:	00005d00 	ext.w.b	$r0,$r8
	...
 bd4:	9a100000 	0x9a100000
 bd8:	9a181c00 	0x9a181c00
 bdc:	00011c00 	asrtle.d	$r0,$r7
 be0:	009a1855 	bstrins.d	$r21,$r2,0x1a,0x6
 be4:	009a2c1c 	bstrins.d	$r28,$r0,0x1a,0xb
 be8:	5500011c 	bl	74514432(0x4710000) # 4710be8 <__stack_size+0x4700be8>
	...
 bf4:	00000002 	0x00000002
 bf8:	1c009a10 	pcaddu12i	$r16,1232(0x4d0)
 bfc:	1c009a14 	pcaddu12i	$r20,1232(0x4d0)
 c00:	14540001 	lu12i.w	$r1,172032(0x2a000)
 c04:	2c1c009a 	vld	$vr26,$r4,1792(0x700)
 c08:	011c009a 	0x011c009a
 c0c:	00005c00 	ext.w.b	$r0,$r0
	...
 c1c:	1c0099d0 	pcaddu12i	$r16,1230(0x4ce)
 c20:	1c0099d8 	pcaddu12i	$r24,1230(0x4ce)
 c24:	d8540001 	0xd8540001
 c28:	e81c0099 	0xe81c0099
 c2c:	031c0099 	lu52i.d	$r25,$r4,1792(0x700)
 c30:	9f017400 	0x9f017400
 c34:	1c0099e8 	pcaddu12i	$r8,1231(0x4cf)
 c38:	1c0099fc 	pcaddu12i	$r28,1231(0x4cf)
 c3c:	00740008 	bstrins.w	$r8,$r0,0x14,0x0
 c40:	2322007c 	sc.d	$r28,$r3,8704(0x2200)
 c44:	00009f01 	0x00009f01
 c48:	00000000 	0x00000000
 c4c:	00020000 	0x00020000
 c50:	99d00000 	0x99d00000
 c54:	99e81c00 	0x99e81c00
 c58:	00021c00 	0x00021c00
 c5c:	99e89f30 	0x99e89f30
 c60:	99fc1c00 	0x99fc1c00
 c64:	00011c00 	asrtle.d	$r0,$r7
 c68:	0000005c 	0x0000005c
 c6c:	00000000 	0x00000000
 c70:	03030000 	lu52i.d	$r0,$r0,192(0xc0)
	...
 c7c:	00999000 	bstrins.d	$r0,$r0,0x19,0x24
 c80:	0099901c 	bstrins.d	$r28,$r0,0x19,0x24
 c84:	5400011c 	bl	74448896(0x4700000) # 4700c84 <__stack_size+0x46f0c84>
 c88:	1c009990 	pcaddu12i	$r16,1228(0x4cc)
 c8c:	1c00999c 	pcaddu12i	$r28,1228(0x4cc)
 c90:	01740003 	0x01740003
 c94:	00999c9f 	bstrins.d	$r31,$r4,0x19,0x27
 c98:	0099b41c 	bstrins.d	$r28,$r0,0x19,0x2d
 c9c:	7400081c 	xvseq.b	$xr28,$xr0,$xr2
 ca0:	22007c00 	ll.d	$r0,$r0,124(0x7c)
 ca4:	b49f0123 	0xb49f0123
 ca8:	b81c0099 	0xb81c0099
 cac:	091c0099 	vfmadd.s	$vr25,$vr4,$vr0,$vr24
 cb0:	5401f300 	bl	-67108368(0xc0001f0) # fc000ea0 <_stack+0xdff00ea4>
 cb4:	2322007c 	sc.d	$r28,$r3,8704(0x2200)
 cb8:	99b89f01 	0x99b89f01
 cbc:	99c01c00 	0x99c01c00
 cc0:	00031c00 	0x00031c00
 cc4:	c09f0174 	0xc09f0174
 cc8:	c41c0099 	0xc41c0099
 ccc:	061c0099 	cacop	0x19,$r4,1792(0x700)
 cd0:	5401f300 	bl	-67108368(0xc0001f0) # fc000ec0 <_stack+0xdff00ec4>
 cd4:	009f0123 	bstrins.d	$r3,$r9,0x1f,0x0
 cd8:	00000000 	0x00000000
 cdc:	02000000 	slti	$r0,$r0,0
 ce0:	00000000 	0x00000000
 ce4:	00999000 	bstrins.d	$r0,$r0,0x19,0x24
 ce8:	00999c1c 	bstrins.d	$r28,$r0,0x19,0x27
 cec:	3000021c 	0x3000021c
 cf0:	00999c9f 	bstrins.d	$r31,$r4,0x19,0x27
 cf4:	0099b81c 	bstrins.d	$r28,$r0,0x19,0x2e
 cf8:	5c00011c 	bne	$r8,$r28,0 # cf8 <__stack_size-0xf308>
 cfc:	1c0099b8 	pcaddu12i	$r24,1229(0x4cd)
 d00:	1c0099c4 	pcaddu12i	$r4,1230(0x4ce)
 d04:	9f300002 	0x9f300002
	...
 d10:	00030300 	0x00030300
	...
 d1c:	1c009b40 	pcaddu12i	$r0,1242(0x4da)
 d20:	1c009b40 	pcaddu12i	$r0,1242(0x4da)
 d24:	40560001 	beqz	$r0,284160(0x45600) # 46324 <__stack_size+0x36324>
 d28:	481c009b 	bceqz	$fcc4,-1303552(0x6c1c00) # ffec2928 <_stack+0xe3dc292c>
 d2c:	031c009b 	lu52i.d	$r27,$r4,1792(0x700)
 d30:	9f7f7600 	0x9f7f7600
 d34:	1c009b48 	pcaddu12i	$r8,1242(0x4da)
 d38:	1c009b4c 	pcaddu12i	$r12,1242(0x4da)
 d3c:	01f30006 	0x01f30006
 d40:	9f1c3156 	0x9f1c3156
 d44:	1c009b4c 	pcaddu12i	$r12,1242(0x4da)
 d48:	1c009b54 	pcaddu12i	$r20,1242(0x4da)
 d4c:	007c000b 	bstrins.w	$r11,$r0,0x1c,0x0
 d50:	5601f320 	bl	-58588688(0xc8201f0) # fc820f40 <_stack+0xe0720f44>
 d54:	22007422 	ll.d	$r2,$r1,116(0x74)
 d58:	009b549f 	bstrins.d	$r31,$r4,0x1b,0x15
 d5c:	009b581c 	bstrins.d	$r28,$r0,0x1b,0x16
 d60:	74000a1c 	xvseq.b	$xr28,$xr16,$xr2
 d64:	1c007c00 	pcaddu12i	$r0,992(0x3e0)
 d68:	225601f3 	ll.d	$r19,$r15,22016(0x5600)
 d6c:	009b589f 	bstrins.d	$r31,$r4,0x1b,0x16
 d70:	009b5c1c 	bstrins.d	$r28,$r0,0x1b,0x17
 d74:	7c000b1c 	0x7c000b1c
 d78:	01f32000 	0x01f32000
 d7c:	00742256 	bstrins.w	$r22,$r18,0x14,0x8
 d80:	00009f22 	0x00009f22
 d84:	00000000 	0x00000000
 d88:	00020000 	0x00020000
 d8c:	9b400000 	0x9b400000
 d90:	9b4c1c00 	0x9b4c1c00
 d94:	00011c00 	asrtle.d	$r0,$r7
 d98:	009b4c54 	bstrins.d	$r20,$r2,0x1b,0x13
 d9c:	009b5c1c 	bstrins.d	$r28,$r0,0x1b,0x17
 da0:	5c00011c 	bne	$r8,$r28,0 # da0 <__stack_size-0xf260>
	...
 dac:	03010102 	lu52i.d	$r2,$r8,64(0x40)
 db0:	00000003 	0x00000003
 db4:	00000110 	0x00000110
 db8:	00000120 	0x00000120
 dbc:	9f300002 	0x9f300002
 dc0:	00000120 	0x00000120
 dc4:	00000120 	0x00000120
 dc8:	20540001 	ll.w	$r1,$r0,21504(0x5400)
 dcc:	34000001 	0x34000001
 dd0:	0c000001 	0x0c000001
 dd4:	f7007400 	0xf7007400
 dd8:	f7640825 	0xf7640825
 ddc:	00f71b25 	bstrpick.d	$r5,$r25,0x37,0x6
 de0:	0001349f 	0x0001349f
 de4:	00014000 	asrtle.d	$r0,$r16
 de8:	5d000100 	bne	$r8,$r0,65536(0x10000) # 10de8 <__stack_size+0xde8>
	...
 df4:	01200100 	0x01200100
 df8:	01200000 	0x01200000
 dfc:	00010000 	asrtle.d	$r0,$r0
 e00:	00000054 	0x00000054
 e04:	00000000 	0x00000000
 e08:	01010200 	fadd.d	$f0,$f16,$f0
 e0c:	00000303 	0x00000303
 e10:	0000e000 	0x0000e000
 e14:	0000f000 	0x0000f000
 e18:	30000200 	0x30000200
 e1c:	0000f09f 	0x0000f09f
 e20:	0000f000 	0x0000f000
 e24:	54000100 	bl	67108864(0x4000000) # 4000e24 <__stack_size+0x3ff0e24>
 e28:	000000f0 	0x000000f0
 e2c:	000000fc 	0x000000fc
 e30:	00740005 	bstrins.w	$r5,$r0,0x14,0x0
 e34:	fc9f1e3a 	0xfc9f1e3a
 e38:	04000000 	csrrd	$r0,0x0
 e3c:	01000001 	0x01000001
 e40:	00005400 	bitrev.d	$r0,$r0
 e44:	00000000 	0x00000000
 e48:	01000000 	0x01000000
 e4c:	000000f0 	0x000000f0
 e50:	000000f0 	0x000000f0
 e54:	00540001 	0x00540001
	...
 e60:	40000000 	beqz	$r0,0 # e60 <__stack_size-0xf1a0>
 e64:	ac000000 	0xac000000
 e68:	01000000 	0x01000000
 e6c:	00ac5400 	bstrins.d	$r0,$r0,0x2c,0x15
 e70:	00c40000 	bstrpick.d	$r0,$r0,0x4,0x0
 e74:	00040000 	alsl.w	$r0,$r0,$r0,0x1
 e78:	9f5401f3 	0x9f5401f3
	...
 e84:	00010102 	0x00010102
 e88:	00000040 	0x00000040
 e8c:	00000050 	0x00000050
 e90:	9f300002 	0x9f300002
 e94:	00000050 	0x00000050
 e98:	000000c4 	0x000000c4
 e9c:	005f0001 	0x005f0001
	...
 ea8:	00005001 	bitrev.w	$r1,$r0
 eac:	00005000 	bitrev.w	$r0,$r0
 eb0:	5f000100 	bne	$r8,$r0,-65536(0x30000) # ffff0eb0 <_stack+0xe3ef0eb4>
	...
 ebc:	00340000 	0x00340000
 ec0:	00380000 	0x00380000
 ec4:	00010000 	asrtle.d	$r0,$r0
 ec8:	00000054 	0x00000054
 ecc:	00000000 	0x00000000
 ed0:	10010000 	addu16i.d	$r0,$r0,64(0x40)
 ed4:	10000000 	addu16i.d	$r0,$r0,0
 ed8:	01000000 	0x01000000
 edc:	00005400 	bitrev.d	$r0,$r0
 ee0:	00000000 	0x00000000
	...

Disassembly of section .debug_aranges:

00000000 <.debug_aranges>:
   0:	0000001c 	0x0000001c
   4:	00000002 	0x00000002
   8:	00040000 	alsl.w	$r0,$r0,$r0,0x1
   c:	00000000 	0x00000000
  10:	1c009550 	pcaddu12i	$r16,1194(0x4aa)
  14:	0000023c 	0x0000023c
	...
  20:	0000001c 	0x0000001c
  24:	026c0002 	sltui	$r2,$r0,-1280(0xb00)
  28:	00040000 	alsl.w	$r0,$r0,$r0,0x1
  2c:	00000000 	0x00000000
  30:	1c009790 	pcaddu12i	$r16,1212(0x4bc)
  34:	00000054 	0x00000054
	...
  40:	0000001c 	0x0000001c
  44:	03340002 	lu52i.d	$r2,$r0,-768(0xd00)
  48:	00040000 	alsl.w	$r0,$r0,$r0,0x1
  4c:	00000000 	0x00000000
  50:	1c0097f0 	pcaddu12i	$r16,1215(0x4bf)
  54:	000000ac 	0x000000ac
	...
  60:	0000001c 	0x0000001c
  64:	04a80002 	csrrd	$r2,0x2a00
  68:	00040000 	alsl.w	$r0,$r0,$r0,0x1
  6c:	00000000 	0x00000000
  70:	1c0098a0 	pcaddu12i	$r0,1221(0x4c5)
  74:	000000ec 	0x000000ec
	...
  80:	0000001c 	0x0000001c
  84:	06230002 	cacop	0x2,$r0,-1856(0x8c0)
  88:	00040000 	alsl.w	$r0,$r0,$r0,0x1
  8c:	00000000 	0x00000000
  90:	1c009990 	pcaddu12i	$r16,1228(0x4cc)
  94:	000002d8 	0x000002d8
	...
  a0:	0000001c 	0x0000001c
  a4:	0b010002 	0x0b010002
  a8:	00040000 	alsl.w	$r0,$r0,$r0,0x1
  ac:	00000000 	0x00000000
  b0:	1c009c70 	pcaddu12i	$r16,1251(0x4e3)
  b4:	00000140 	0x00000140
	...

Disassembly of section .debug_ranges:

00000000 <.debug_ranges>:
   0:	00000064 	0x00000064
   4:	0000006c 	0x0000006c
   8:	00000084 	0x00000084
   c:	000000a0 	0x000000a0
	...
  18:	000000a8 	0x000000a8
  1c:	000000ac 	0x000000ac
  20:	000000f8 	0x000000f8
  24:	0000023c 	0x0000023c
	...
  38:	00000008 	0x00000008
  3c:	00000018 	0x00000018
	...
  48:	00000020 	0x00000020
  4c:	00000030 	0x00000030
  50:	00000038 	0x00000038
  54:	00000050 	0x00000050
	...
  60:	1c009990 	pcaddu12i	$r16,1228(0x4cc)
  64:	1c009c68 	pcaddu12i	$r8,1251(0x4e3)
	...
  78:	00000008 	0x00000008
  7c:	00000010 	0x00000010
	...
  88:	00000040 	0x00000040
  8c:	00000040 	0x00000040
  90:	00000048 	0x00000048
  94:	00000050 	0x00000050
	...
  a0:	000000e0 	0x000000e0
  a4:	000000e0 	0x000000e0
  a8:	000000e8 	0x000000e8
  ac:	000000f0 	0x000000f0
	...
  b8:	00000110 	0x00000110
  bc:	00000110 	0x00000110
  c0:	00000118 	0x00000118
  c4:	00000120 	0x00000120
	...

Disassembly of section .debug_line:

00000000 <.debug_line>:
   0:	000001a4 	0x000001a4
   4:	001f0002 	mulw.d.w	$r2,$r0,$r0
   8:	01010000 	fadd.d	$f0,$f0,$f0
   c:	000d0efb 	bytepick.d	$r27,$r23,$r3,0x2
  10:	01010101 	fadd.d	$f1,$f8,$f0
  14:	01000000 	0x01000000
  18:	00010000 	asrtle.d	$r0,$r0
  1c:	6e697270 	bgeu	$r19,$r16,-104080(0x26970) # fffe698c <_stack+0xe3ee6990>
  20:	632e6674 	blt	$r19,$r20,-53660(0x32e64) # ffff2e84 <_stack+0xe3ef2e88>
  24:	00000000 	0x00000000
  28:	00010500 	asrtle.d	$r8,$r1
  2c:	95500205 	0x95500205
  30:	13131c00 	addu16i.d	$r0,$r0,-15161(0xc4c7)
  34:	13131313 	addu16i.d	$r19,$r24,-15164(0xc4c4)
  38:	7a030613 	0x7a030613
  3c:	05e40801 	0x05e40801
  40:	01058a0c 	0x01058a0c
  44:	4a7a0348 	0x4a7a0348
  48:	4b064208 	0x4b064208
  4c:	05010613 	0x05010613
  50:	c6030603 	0xc6030603
  54:	06ac0800 	0x06ac0800
  58:	00110582 	sub.w	$r2,$r12,$r1
  5c:	03020402 	lu52i.d	$r2,$r0,129(0x81)
  60:	05017fba 	0x05017fba
  64:	0402000c 	csrrd	$r12,0x80
  68:	01054a02 	fmul.d	$f2,$f16,$f18
  6c:	02040200 	slti	$r0,$r16,256(0x100)
  70:	06020582 	cacop	0x2,$r12,129(0x81)
  74:	0405134c 	csrxchg	$r12,$r26,0x144
  78:	03050106 	lu52i.d	$r6,$r8,320(0x140)
  7c:	00c20306 	bstrpick.d	$r6,$r24,0x2,0x0
  80:	06050582 	cacop	0x2,$r12,321(0x141)
  84:	000f0501 	bytepick.d	$r1,$r8,$r1,0x6
  88:	06010402 	cacop	0x2,$r0,65(0x41)
  8c:	06040582 	cacop	0x2,$r12,257(0x101)
  90:	3c084003 	0x3c084003
  94:	054c0305 	0x054c0305
  98:	4a330309 	0x4a330309
  9c:	0603054a 	cacop	0xa,$r10,193(0xc1)
  a0:	06014d03 	cacop	0x3,$r8,83(0x53)
  a4:	030105f2 	lu52i.d	$r18,$r15,65(0x41)
  a8:	3c0800c3 	0x3c0800c3
  ac:	03060505 	lu52i.d	$r5,$r8,385(0x181)
  b0:	0128026d 	0x0128026d
  b4:	1a050106 	pcalau12i	$r6,10248(0x2808)
  b8:	01040200 	0x01040200
  bc:	000505bc 	alsl.w	$r28,$r13,$r1,0x3
  c0:	4a010402 	bceqz	$fcc0,655620(0xa0104) # a01c4 <__stack_size+0x901c4>
  c4:	02000605 	slti	$r5,$r16,1(0x1)
  c8:	f3060304 	0xf3060304
  cc:	02000905 	slti	$r5,$r8,2(0x2)
  d0:	01060304 	0x01060304
  d4:	02002c05 	slti	$r5,$r0,11(0xb)
  d8:	05490304 	0x05490304
  dc:	04020010 	csrrd	$r16,0x80
  e0:	16054a03 	lu32i.d	$r3,10832(0x2a50)
  e4:	03040200 	lu52i.d	$r0,$r16,256(0x100)
  e8:	0010054b 	add.w	$r11,$r10,$r1
  ec:	49030402 	bceqz	$fcc0,590596(0x90304) # 903f0 <__stack_size+0x803f0>
  f0:	02001a05 	slti	$r5,$r16,6(0x6)
  f4:	054a0304 	0x054a0304
  f8:	04020005 	csrrd	$r5,0x80
  fc:	07054a03 	0x07054a03
 100:	03040200 	lu52i.d	$r0,$r16,256(0x100)
 104:	00050583 	alsl.w	$r3,$r12,$r1,0x3
 108:	49030402 	bceqz	$fcc0,590596(0x90304) # 9040c <__stack_size+0x8040c>
 10c:	826f0306 	0x826f0306
 110:	bb060805 	0xbb060805
 114:	054b0605 	0x054b0605
 118:	4b064805 	bceqz	$fcc0,1508936(0x170648) # 170760 <__stack_size+0x160760>
 11c:	64031313 	bge	$r24,$r19,784(0x310) # 42c <__stack_size-0xfbd4>
 120:	0606054a 	cacop	0xa,$r10,385(0x181)
 124:	4908054c 	bcnez	$fcc2,3213316(0x310804) # 310928 <__stack_size+0x300928>
 128:	06490505 	0x06490505
 12c:	5113134b 	b	-47377648(0xd2d1310) # fd2d143c <_stack+0xe11d1440>
 130:	bb060805 	0xbb060805
 134:	054b0605 	0x054b0605
 138:	4b064805 	bceqz	$fcc0,1508936(0x170648) # 170780 <__stack_size+0x160780>
 13c:	11051313 	addu16i.d	$r19,$r24,16708(0x4144)
 140:	0614054c 	cacop	0xc,$r10,1281(0x501)
 144:	4b1205bb 	bcnez	$fcc5,-1109500(0x6f1204) # ffef1348 <_stack+0xe3df134c>
 148:	06481105 	iocsrwr.b	$r5,$r8
 14c:	0513134b 	0x0513134b
 150:	08058405 	0x08058405
 154:	0605bb06 	cacop	0x6,$r24,366(0x16e)
 158:	4805054b 	bcnez	$fcc2,2884868(0x2c0504) # 2c065c <__stack_size+0x2b065c>
 15c:	13134b06 	addu16i.d	$r6,$r24,-15150(0xc4d2)
 160:	0608058a 	cacop	0xa,$r12,513(0x201)
 164:	4b0605bb 	bcnez	$fcc5,-1112572(0x6f0604) # ffef0768 <_stack+0xe3df076c>
 168:	06480505 	iocsrrd.h	$r5,$r8
 16c:	0313134b 	lu52i.d	$r11,$r26,1220(0x4c4)
 170:	06058259 	cacop	0x19,$r18,352(0x160)
 174:	08054c06 	0x08054c06
 178:	49050549 	bcnez	$fcc2,2426116(0x250504) # 25067c <__stack_size+0x24067c>
 17c:	13134b06 	addu16i.d	$r6,$r24,-15150(0xc4d2)
 180:	06080551 	cacop	0x11,$r10,513(0x201)
 184:	4b0605bb 	bcnez	$fcc5,-1112572(0x6f0604) # ffef0788 <_stack+0xe3df078c>
 188:	06480505 	iocsrrd.h	$r5,$r8
 18c:	0313134b 	lu52i.d	$r11,$r26,1220(0x4c4)
 190:	06054a1c 	cacop	0x1c,$r16,338(0x152)
 194:	05054b06 	0x05054b06
 198:	134b0649 	addu16i.d	$r9,$r18,-11583(0xd2c1)
 19c:	05510605 	0x05510605
 1a0:	02831505 	addi.w	$r5,$r8,197(0xc5)
 1a4:	01010004 	fadd.d	$f4,$f0,$f0
 1a8:	0000005d 	0x0000005d
 1ac:	00200002 	div.w	$r2,$r0,$r0
 1b0:	01010000 	fadd.d	$f0,$f0,$f0
 1b4:	000d0efb 	bytepick.d	$r27,$r23,$r3,0x2
 1b8:	01010101 	fadd.d	$f1,$f8,$f0
 1bc:	01000000 	0x01000000
 1c0:	00010000 	asrtle.d	$r0,$r0
 1c4:	63747570 	blt	$r11,$r16,-35724(0x37474) # ffff7638 <_stack+0xe3ef763c>
 1c8:	2e726168 	0x2e726168
 1cc:	00000063 	0x00000063
 1d0:	01050000 	fmul.d	$f0,$f0,$f0
 1d4:	90020500 	0x90020500
 1d8:	131c0097 	addu16i.d	$r23,$r4,-14592(0xc700)
 1dc:	16060513 	lu32i.d	$r19,12328(0x3028)
 1e0:	05140505 	0x05140505
 1e4:	79030601 	0x79030601
 1e8:	89050501 	0x89050501
 1ec:	060105f2 	cacop	0x12,$r15,65(0x41)
 1f0:	4a13060d 	0x4a13060d
 1f4:	053f0806 	0x053f0806
 1f8:	01051305 	fmul.d	$f5,$f24,$f4
 1fc:	05051106 	0x05051106
 200:	f9010583 	0xf9010583
 204:	01000c02 	0x01000c02
 208:	00009401 	0x00009401
 20c:	1d000200 	pcaddu12i	$r0,-524272(0x80010)
 210:	01000000 	0x01000000
 214:	0d0efb01 	0x0d0efb01
 218:	01010100 	fadd.d	$f0,$f8,$f0
 21c:	00000001 	0x00000001
 220:	01000001 	0x01000001
 224:	74757000 	xvmax.wu	$xr0,$xr0,$xr28
 228:	00632e73 	bstrins.w	$r19,$r19,0x3,0xb
 22c:	00000000 	0x00000000
 230:	05000105 	0x05000105
 234:	0097f002 	bstrins.d	$r2,$r0,0x17,0x3c
 238:	1313131c 	addu16i.d	$r28,$r24,-15164(0xc4c4)
 23c:	09051006 	0x09051006
 240:	06053e08 	cacop	0x8,$r16,335(0x14f)
 244:	8404054a 	0x8404054a
 248:	83060205 	0x83060205
 24c:	05010683 	0x05010683
 250:	06050e09 	cacop	0x9,$r16,323(0x143)
 254:	0602054a 	cacop	0xa,$r10,129(0x81)
 258:	0603054c 	cacop	0xc,$r10,193(0xc1)
 25c:	48040514 	bcnez	$fcc0,-3144700(0x500404) # ffd00660 <_stack+0xe3c00664>
 260:	02001005 	slti	$r5,$r0,4(0x4)
 264:	4a060104 	bcnez	$fcc0,1181184(0x120600) # 120864 <__stack_size+0x110864>
 268:	02000205 	slti	$r5,$r16,0
 26c:	00830104 	bstrins.d	$r4,$r8,0x3,0x0
 270:	83010402 	0x83010402
 274:	01040200 	0x01040200
 278:	09050106 	0x09050106
 27c:	01040200 	0x01040200
 280:	0006050e 	alsl.wu	$r14,$r8,$r1,0x1
 284:	4a010402 	bceqz	$fcc0,655620(0xa0104) # a0388 <__stack_size+0x90388>
 288:	50060105 	b	68421120(0x4140600) # 4140888 <__stack_size+0x4130888>
 28c:	06821306 	0x06821306
 290:	0613e808 	cacop	0x8,$r0,1274(0x4fa)
 294:	4b068311 	0x4b068311
 298:	13068383 	addu16i.d	$r3,$r28,-15968(0xc1a0)
 29c:	01001002 	0x01001002
 2a0:	0000e801 	0x0000e801
 2a4:	22000200 	ll.d	$r0,$r16,0
 2a8:	01000000 	0x01000000
 2ac:	0d0efb01 	0x0d0efb01
 2b0:	01010100 	fadd.d	$f0,$f8,$f0
 2b4:	00000001 	0x00000001
 2b8:	01000001 	0x01000001
 2bc:	69727000 	bltu	$r0,$r0,94832(0x17270) # 1752c <__stack_size+0x752c>
 2c0:	6162746e 	blt	$r3,$r14,90740(0x16274) # 16534 <__stack_size+0x6534>
 2c4:	632e6573 	blt	$r11,$r19,-53660(0x32e64) # ffff3128 <_stack+0xe3ef312c>
 2c8:	00000000 	0x00000000
 2cc:	00010500 	asrtle.d	$r8,$r1
 2d0:	98a00205 	0x98a00205
 2d4:	05131c00 	0x05131c00
 2d8:	13131302 	addu16i.d	$r2,$r24,-15164(0xc4c4)
 2dc:	01051313 	fmul.d	$f19,$f24,$f4
 2e0:	3c080d06 	0x3c080d06
 2e4:	054f0405 	0x054f0405
 2e8:	0402000a 	csrrd	$r10,0x80
 2ec:	07054a01 	0x07054a01
 2f0:	02054f06 	slti	$r6,$r24,339(0x153)
 2f4:	054a1406 	0x054a1406
 2f8:	0205f507 	slti	$r7,$r8,381(0x17d)
 2fc:	03040200 	lu52i.d	$r0,$r16,256(0x100)
 300:	0e054906 	0x0e054906
 304:	03040200 	lu52i.d	$r0,$r16,256(0x100)
 308:	08050106 	0x08050106
 30c:	03040200 	lu52i.d	$r0,$r16,256(0x100)
 310:	000205ba 	0x000205ba
 314:	06030402 	cacop	0x2,$r0,193(0xc1)
 318:	0007054b 	alsl.wu	$r11,$r10,$r1,0x3
 31c:	06030402 	cacop	0x2,$r0,193(0xc1)
 320:	0402004a 	csrxchg	$r10,$r2,0x80
 324:	0205ba03 	slti	$r3,$r16,366(0x16e)
 328:	03040200 	lu52i.d	$r0,$r16,256(0x100)
 32c:	05520647 	0x05520647
 330:	4a010607 	0x4a010607
 334:	064d0305 	0x064d0305
 338:	060e0581 	cacop	0x1,$r12,897(0x381)
 33c:	ba0a0501 	0xba0a0501
 340:	01040200 	0x01040200
 344:	0003054a 	0x0003054a
 348:	06010402 	cacop	0x2,$r0,65(0x41)
 34c:	0402004b 	csrxchg	$r11,$r2,0x80
 350:	00ba0601 	bstrins.d	$r1,$r16,0x3a,0x1
 354:	4a040402 	bceqz	$fcc0,656388(0xa0404) # a0758 <__stack_size+0x90758>
 358:	04040200 	csrxchg	$r0,$r16,0x100
 35c:	0002054a 	0x0002054a
 360:	0f040402 	0x0f040402
 364:	05500105 	0x05500105
 368:	087a0307 	0x087a0307
 36c:	02054aac 	slti	$r12,$r21,338(0x152)
 370:	4a4a7403 	bceqz	$fcc0,936564(0xe4a74) # e4de4 <__stack_size+0xd4de4>
 374:	13068106 	addu16i.d	$r6,$r8,-15968(0xc1a0)
 378:	05490a05 	0x05490a05
 37c:	064b0602 	0x064b0602
 380:	0306ba01 	lu52i.d	$r1,$r16,430(0x1ae)
 384:	0106010c 	0x0106010c
 388:	01000c02 	0x01000c02
 38c:	00030001 	0x00030001
 390:	38000200 	ldx.b	$r0,$r16,$r0
 394:	01000000 	0x01000000
 398:	0d0efb01 	0x0d0efb01
 39c:	01010100 	fadd.d	$f0,$f8,$f0
 3a0:	00000001 	0x00000001
 3a4:	01000001 	0x01000001
 3a8:	2e2e2f2e 	0x2e2e2f2e
 3ac:	636e692f 	blt	$r9,$r15,-37272(0x36e68) # ffff7214 <_stack+0xe3ef7218>
 3b0:	6564756c 	bge	$r11,$r12,91252(0x16474) # 16824 <__stack_size+0x6824>
 3b4:	74730000 	xvmin.w	$xr0,$xr0,$xr0
 3b8:	676e6972 	bge	$r11,$r18,-37272(0x36e68) # ffff7220 <_stack+0xe3ef7224>
 3bc:	0000632e 	rdtimel.w	$r14,$r25
 3c0:	6f630000 	bgeu	$r0,$r0,-40192(0x36300) # ffff66c0 <_stack+0xe3ef66c4>
 3c4:	6e6f6d6d 	bgeu	$r11,$r13,-102548(0x26f6c) # fffe7330 <_stack+0xe3ee7334>
 3c8:	0100682e 	0x0100682e
 3cc:	05000000 	0x05000000
 3d0:	02050017 	slti	$r23,$r0,320(0x140)
 3d4:	1c009990 	pcaddu12i	$r16,1228(0x4cc)
 3d8:	05010b03 	0x05010b03
 3dc:	05131305 	0x05131305
 3e0:	0501060b 	0x0501060b
 3e4:	0905810c 	0x0905810c
 3e8:	0d058406 	0x0d058406
 3ec:	0c050106 	0x0c050106
 3f0:	4a0b0549 	bcnez	$fcc2,2493188(0x260b04) # 260ef4 <__stack_size+0x250ef4>
 3f4:	4a860105 	bcnez	$fcc0,1476096(0x168600) # 1689f4 <__stack_size+0x1589f4>
 3f8:	05450c05 	0x05450c05
 3fc:	054e0605 	0x054e0605
 400:	4a130601 	0x4a130601
 404:	03062405 	lu52i.d	$r5,$r0,393(0x189)
 408:	0505f210 	0x0505f210
 40c:	0c051313 	0x0c051313
 410:	0b051106 	0x0b051106
 414:	4a16054b 	bcnez	$fcc2,3020292(0x2e1604) # 2e1a18 <__stack_size+0x2d1a18>
 418:	05490c05 	0x05490c05
 41c:	02004b16 	slti	$r22,$r24,18(0x12)
 420:	05820104 	0x05820104
 424:	05830609 	0x05830609
 428:	0501060d 	0x0501060d
 42c:	0b054919 	0x0b054919
 430:	4e01054a 	jirl	$r10,$r10,-130812(0x20104)
 434:	03062405 	lu52i.d	$r5,$r0,393(0x189)
 438:	053c080f 	0x053c080f
 43c:	05131605 	0x05131605
 440:	0511060b 	0x0511060b
 444:	04020016 	csrrd	$r22,0x80
 448:	054c0601 	0x054c0601
 44c:	0402001a 	csrrd	$r26,0x80
 450:	05110601 	0x05110601
 454:	04020015 	csrrd	$r21,0x80
 458:	10054a01 	addu16i.d	$r1,$r16,338(0x152)
 45c:	01040200 	0x01040200
 460:	0013054a 	maskeqz	$r10,$r10,$r1
 464:	4a010402 	bceqz	$fcc0,655620(0xa0104) # a0568 <__stack_size+0x90568>
 468:	02000b05 	slti	$r5,$r24,2(0x2)
 46c:	054a0104 	0x054a0104
 470:	31054e01 	0x31054e01
 474:	820d0306 	0x820d0306
 478:	13130505 	addu16i.d	$r5,$r8,-15167(0xc4c1)
 47c:	01060b05 	0x01060b05
 480:	06090581 	cacop	0x1,$r12,577(0x241)
 484:	06130584 	cacop	0x4,$r12,1217(0x4c1)
 488:	4d0b0501 	jirl	$r1,$r8,68356(0x10b04)
 48c:	4b471105 	bcnez	$fcc0,1525520(0x174710) # 174b9c <__stack_size+0x164b9c>
 490:	84060905 	0x84060905
 494:	0e060b05 	0x0e060b05
 498:	50060505 	b	68421124(0x4140604) # 4140a9c <__stack_size+0x4130a9c>
 49c:	13060105 	addu16i.d	$r5,$r8,-16000(0xc180)
 4a0:	03063305 	lu52i.d	$r5,$r24,396(0x18c)
 4a4:	0505820e 	0x0505820e
 4a8:	060b0513 	cacop	0x13,$r8,705(0x2c1)
 4ac:	4a150501 	bcnez	$fcc0,398596(0x61504) # 619b0 <__stack_size+0x519b0>
 4b0:	05821205 	0x05821205
 4b4:	05824a21 	0x05824a21
 4b8:	04020015 	csrrd	$r21,0x80
 4bc:	12058201 	addu16i.d	$r1,$r16,-32416(0x8160)
 4c0:	01040200 	0x01040200
 4c4:	002b054a 	syscall	0x54a
 4c8:	4a020402 	bceqz	$fcc0,655876(0xa0204) # a06cc <__stack_size+0x906cc>
 4cc:	02002105 	slti	$r5,$r8,8(0x8)
 4d0:	05820204 	0x05820204
 4d4:	054b0609 	0x054b0609
 4d8:	05010619 	0x05010619
 4dc:	0b054a12 	0x0b054a12
 4e0:	4d190549 	jirl	$r9,$r10,71940(0x11904)
 4e4:	4a4b0105 	bcnez	$fcc0,1460992(0x164b00) # 164fe4 <__stack_size+0x154fe4>
 4e8:	49060505 	bcnez	$fcc0,1377796(0x150604) # 150aec <__stack_size+0x140aec>
 4ec:	0e063305 	0x0e063305
 4f0:	054e2105 	0x054e2105
 4f4:	01058236 	0x01058236
 4f8:	49190583 	bcnez	$fcc4,858372(0xd1904) # d1dfc <__stack_size+0xc1dfc>
 4fc:	054b0105 	0x054b0105
 500:	0b03061f 	0x0b03061f
 504:	13050582 	addu16i.d	$r2,$r12,-16063(0xc141)
 508:	01060c05 	0x01060c05
 50c:	05491f05 	0x05491f05
 510:	09054b0b 	0x09054b0b
 514:	0c054b06 	0x0c054b06
 518:	05820106 	0x05820106
 51c:	154a0609 	lu12i.w	$r9,-372688(0xa5030)
 520:	01060b05 	0x01060b05
 524:	05460c05 	0x05460c05
 528:	0c054a0b 	0x0c054a0b
 52c:	b80b0550 	0xb80b0550
 530:	4a4d0105 	bcnez	$fcc0,1461504(0x164d00) # 165230 <__stack_size+0x155230>
 534:	03062005 	lu52i.d	$r5,$r0,392(0x188)
 538:	0505820c 	0x0505820c
 53c:	060c0513 	cacop	0x13,$r8,769(0x301)
 540:	4a0b0501 	bcnez	$fcc0,396036(0x60b04) # 61044 <__stack_size+0x51044>
 544:	4b060905 	bcnez	$fcc0,1508872(0x170608) # 170b4c <__stack_size+0x160b4c>
 548:	01060c05 	0x01060c05
 54c:	06090582 	cacop	0x2,$r12,577(0x241)
 550:	0b05154a 	0x0b05154a
 554:	0c050106 	0x0c050106
 558:	4a0b0546 	bcnez	$fcc2,1706756(0x1a0b04) # 1a105c <__stack_size+0x19105c>
 55c:	50060505 	b	68421124(0x4140604) # 4140b60 <__stack_size+0x4130b60>
 560:	13060105 	addu16i.d	$r5,$r8,-16000(0xc180)
 564:	0623054a 	cacop	0xa,$r10,-1855(0x8c1)
 568:	ba00e603 	0xba00e603
 56c:	13160505 	addu16i.d	$r5,$r8,-14975(0xc581)
 570:	01060b05 	0x01060b05
 574:	06090581 	cacop	0x1,$r12,577(0x241)
 578:	060c0584 	cacop	0x4,$r12,769(0x301)
 57c:	4a0f0501 	bcnez	$fcc0,397060(0x60f04) # 61480 <__stack_size+0x51480>
 580:	05490b05 	0x05490b05
 584:	054d0605 	0x054d0605
 588:	05140601 	0x05140601
 58c:	1103062e 	addu16i.d	$r14,$r17,16577(0x40c1)
 590:	1605054a 	lu32i.d	$r10,10282(0x282a)
 594:	0b051313 	0x0b051313
 598:	05810106 	0x05810106
 59c:	05840609 	0x05840609
 5a0:	05010614 	0x05010614
 5a4:	0c054a11 	0x0c054a11
 5a8:	4a0f054a 	bcnez	$fcc2,2756356(0x2a0f04) # 2a14ac <__stack_size+0x2914ac>
 5ac:	05490b05 	0x05490b05
 5b0:	054d0605 	0x054d0605
 5b4:	05140601 	0x05140601
 5b8:	0c03062f 	0x0c03062f
 5bc:	160505ba 	lu32i.d	$r26,10285(0x282d)
 5c0:	08051313 	0x08051313
 5c4:	14050106 	lu12i.w	$r6,10248(0x2808)
 5c8:	01040200 	0x01040200
 5cc:	000f054a 	bytepick.d	$r10,$r10,$r1,0x6
 5d0:	4a010402 	bceqz	$fcc0,655620(0xa0104) # a06d4 <__stack_size+0x906d4>
 5d4:	4b060905 	bcnez	$fcc0,1508872(0x170608) # 170bdc <__stack_size+0x160bdc>
 5d8:	01061305 	0x01061305
 5dc:	4b060905 	bcnez	$fcc0,1508872(0x170608) # 170be4 <__stack_size+0x160be4>
 5e0:	01060f05 	0x01060f05
 5e4:	4b060d05 	bcnez	$fcc0,1508876(0x17060c) # 170bf0 <__stack_size+0x160bf0>
 5e8:	01061305 	0x01061305
 5ec:	054a1505 	0x054a1505
 5f0:	054a4a13 	0x054a4a13
 5f4:	4eba490f 	jirl	$r15,$r8,-83384(0x2ba48)
 5f8:	bb060d05 	0xbb060d05
 5fc:	01061805 	0x01061805
 600:	054a1505 	0x054a1505
 604:	13054a10 	addu16i.d	$r16,$r16,-16046(0xc152)
 608:	490f054a 	bcnez	$fcc2,2690820(0x290f04) # 29150c <__stack_size+0x28150c>
 60c:	4a500105 	bcnez	$fcc0,1462272(0x165000) # 16560c <__stack_size+0x15560c>
 610:	03063205 	lu52i.d	$r5,$r16,396(0x18c)
 614:	05058211 	0x05058211
 618:	05131313 	0x05131313
 61c:	0501060b 	0x0501060b
 620:	054b0609 	0x054b0609
 624:	0501060d 	0x0501060d
 628:	0c054a14 	0x0c054a14
 62c:	820d0582 	0x820d0582
 630:	054a1405 	0x054a1405
 634:	09054a0c 	0x09054a0c
 638:	05154a06 	0x05154a06
 63c:	0501060c 	0x0501060c
 640:	0b054a13 	0x0b054a13
 644:	500c0546 	b	85462020(0x5180c04) # 5181248 <__stack_size+0x5171248>
 648:	054b0105 	0x054b0105
 64c:	0545060d 	0x0545060d
 650:	050d0632 	0x050d0632
 654:	2f054f1a 	0x2f054f1a
 658:	87010582 	0x87010582
 65c:	05451405 	0x05451405
 660:	1e054f01 	pcaddu18i	$r1,10872(0x2a78)
 664:	0205bc06 	slti	$r6,$r0,367(0x16f)
 668:	03010513 	lu52i.d	$r19,$r8,65(0x41)
 66c:	05017f9e 	0x05017f9e
 670:	05131605 	0x05131605
 674:	0501060b 	0x0501060b
 678:	05830609 	0x05830609
 67c:	0501060c 	0x0501060c
 680:	0b054a0f 	0x0b054a0f
 684:	01054a49 	fmul.d	$f9,$f18,$f18
 688:	0100de03 	fadd.s	$f3,$f16,$f23
 68c:	01000402 	0x01000402
 690:	00012701 	0x00012701
 694:	32000200 	0x32000200
 698:	01000000 	0x01000000
 69c:	0d0efb01 	0x0d0efb01
 6a0:	01010100 	fadd.d	$f0,$f8,$f0
 6a4:	00000001 	0x00000001
 6a8:	01000001 	0x01000001
 6ac:	692f2e2e 	bltu	$r17,$r14,77612(0x12f2c) # 135d8 <__stack_size+0x35d8>
 6b0:	756c636e 	0x756c636e
 6b4:	00006564 	rdtimeh.w	$r4,$r11
 6b8:	656d6974 	bge	$r11,$r20,93544(0x16d68) # 17420 <__stack_size+0x7420>
 6bc:	0000632e 	rdtimel.w	$r14,$r25
 6c0:	69740000 	bltu	$r0,$r0,95232(0x17400) # 17ac0 <__stack_size+0x7ac0>
 6c4:	682e656d 	bltu	$r11,$r13,11876(0x2e64) # 3528 <__stack_size-0xcad8>
 6c8:	00000100 	0x00000100
 6cc:	00010500 	asrtle.d	$r8,$r1
 6d0:	9c700205 	0x9c700205
 6d4:	11031c00 	addu16i.d	$r0,$r0,16583(0x40c7)
 6d8:	13050501 	addu16i.d	$r1,$r8,-16063(0xc141)
 6dc:	71030f05 	vssrarn.h.w	$vr5,$vr24,$vr3
 6e0:	14050501 	lu12i.w	$r1,10280(0x2828)
 6e4:	06010513 	cacop	0x13,$r8,65(0x41)
 6e8:	05010b03 	0x05010b03
 6ec:	82750305 	0x82750305
 6f0:	01068906 	fdiv.s	$f6,$f8,$f2
 6f4:	06180105 	cacop	0x5,$r8,1536(0x600)
 6f8:	0505e708 	0x0505e708
 6fc:	054e1313 	0x054e1313
 700:	06130601 	cacop	0x1,$r16,1217(0x4c1)
 704:	130505bd 	addu16i.d	$r29,$r13,-16063(0xc141)
 708:	030f0513 	lu52i.d	$r19,$r8,961(0x3c1)
 70c:	05050161 	0x05050161
 710:	01051314 	fmul.d	$f20,$f24,$f4
 714:	011a0306 	0x011a0306
 718:	66030505 	bge	$r8,$r5,-130300(0x20304) # fffe0a1c <_stack+0xe3ee0a20>
 71c:	06890682 	0x06890682
 720:	16030601 	lu32i.d	$r1,6192(0x1830)
 724:	06150501 	cacop	0x1,$r8,1345(0x541)
 728:	83160501 	0x83160501
 72c:	054b2705 	0x054b2705
 730:	36054916 	0x36054916
 734:	4c2705b9 	jirl	$r25,$r13,9988(0x2704)
 738:	05492805 	0x05492805
 73c:	3605bb27 	0x3605bb27
 740:	bb1205ba 	0xbb1205ba
 744:	01054949 	fmul.d	$f9,$f10,$f18
 748:	0336054f 	lu52i.d	$r15,$r10,-639(0xd81)
 74c:	1205827a 	addu16i.d	$r26,$r19,-32416(0x8160)
 750:	060505ba 	cacop	0x1a,$r13,321(0x141)
 754:	1413134b 	lu12i.w	$r11,39066(0x989a)
 758:	13060105 	addu16i.d	$r5,$r8,-16000(0xc180)
 75c:	020a0306 	slti	$r6,$r24,640(0x280)
 760:	05050124 	0x05050124
 764:	0f051313 	0x0f051313
 768:	05014e03 	0x05014e03
 76c:	05131405 	0x05131405
 770:	2d030601 	0x2d030601
 774:	03050501 	lu52i.d	$r1,$r8,321(0x141)
 778:	89068253 	0x89068253
 77c:	03060106 	lu52i.d	$r6,$r8,384(0x180)
 780:	05130129 	0x05130129
 784:	05110606 	0x05110606
 788:	06824c01 	0x06824c01
 78c:	05054008 	0x05054008
 790:	0f051313 	0x0f051313
 794:	05014503 	0x05014503
 798:	05131405 	0x05131405
 79c:	36030601 	0x36030601
 7a0:	03050501 	lu52i.d	$r1,$r8,321(0x141)
 7a4:	8906824a 	0x8906824a
 7a8:	03060106 	lu52i.d	$r6,$r8,384(0x180)
 7ac:	05130132 	0x05130132
 7b0:	05110606 	0x05110606
 7b4:	02f24c01 	addi.d	$r1,$r0,-877(0xc93)
 7b8:	0101000c 	fadd.d	$f12,$f0,$f0

Disassembly of section .debug_str:

00000000 <.debug_str>:
   0:	69616761 	bltu	$r27,$r1,90468(0x16164) # 16164 <__stack_size+0x6164>
   4:	6f6c006e 	bgeu	$r3,$r14,-37888(0x36c00) # ffff6c04 <_stack+0xe3ef6c08>
   8:	7520676e 	xvpickod.b	$xr14,$xr27,$xr25
   c:	6769736e 	bge	$r27,$r14,-38544(0x36970) # ffff697c <_stack+0xe3ef6980>
  10:	2064656e 	ll.w	$r14,$r11,25700(0x6464)
  14:	00746e69 	bstrins.w	$r9,$r19,0x14,0x1b
  18:	20554e47 	ll.w	$r7,$r18,21836(0x554c)
  1c:	20373143 	ll.w	$r3,$r10,14128(0x3730)
  20:	2e332e38 	0x2e332e38
  24:	6d2d2030 	bgeu	$r1,$r16,77088(0x12d20) # 12d44 <__stack_size+0x2d44>
  28:	3d696261 	0x3d696261
  2c:	33706c69 	xvstelm.h	$xr9,$r3,54(0x36),0xc
  30:	2d207332 	0x2d207332
  34:	6372616d 	blt	$r11,$r13,-36256(0x37260) # ffff7294 <_stack+0xe3ef7298>
  38:	6f6c3d68 	bgeu	$r11,$r8,-37828(0x36c3c) # ffff6c74 <_stack+0xe3ef6c78>
  3c:	61676e6f 	blt	$r19,$r15,92012(0x1676c) # 167a8 <__stack_size+0x67a8>
  40:	33686372 	xvstelm.h	$xr18,$r27,48(0x30),0xa
  44:	2d207232 	0x2d207232
  48:	7570666d 	0x7570666d
  4c:	6e6f6e3d 	bgeu	$r17,$r29,-102548(0x26f6c) # fffe6fb8 <_stack+0xe3ee6fbc>
  50:	6d2d2065 	bgeu	$r3,$r5,77088(0x12d20) # 12d70 <__stack_size+0x2d70>
  54:	646d6973 	bge	$r11,$r19,28008(0x6d68) # 6dbc <__stack_size-0x9244>
  58:	6e6f6e3d 	bgeu	$r17,$r29,-102548(0x26f6c) # fffe6fc4 <_stack+0xe3ee6fc8>
  5c:	6d2d2065 	bgeu	$r3,$r5,77088(0x12d20) # 12d7c <__stack_size+0x2d7c>
  60:	646f6d63 	bge	$r11,$r3,28524(0x6f6c) # 6fcc <__stack_size-0x9034>
  64:	6e3d6c65 	bgeu	$r3,$r5,-115348(0x23d6c) # fffe3dd0 <_stack+0xe3ee3dd4>
  68:	616d726f 	blt	$r19,$r15,93552(0x16d70) # 16dd8 <__stack_size+0x6dd8>
  6c:	6d2d206c 	bgeu	$r3,$r12,77088(0x12d20) # 12d8c <__stack_size+0x2d8c>
  70:	656e7574 	bge	$r11,$r20,93812(0x16e74) # 16ee4 <__stack_size+0x6ee4>
  74:	6f6f6c3d 	bgeu	$r1,$r29,-37012(0x36f6c) # ffff6fe0 <_stack+0xe3ef6fe4>
  78:	7261676e 	0x7261676e
  7c:	32336863 	0x32336863
  80:	672d2072 	bge	$r3,$r18,-53984(0x32d20) # ffff2da0 <_stack+0xe3ef2da4>
  84:	324f2d20 	xvldrepl.h	$xr0,$r9,1942(0x796)
  88:	6e662d20 	bgeu	$r9,$r0,-104916(0x2662c) # fffe66b4 <_stack+0xe3ee66b8>
  8c:	75622d6f 	0x75622d6f
  90:	69746c69 	bltu	$r3,$r9,95340(0x1746c) # 174fc <__stack_size+0x74fc>
  94:	662d206e 	bge	$r3,$r14,-119520(0x22d20) # fffe2db4 <_stack+0xe3ee2db8>
  98:	702d6f6e 	0x702d6f6e
  9c:	70006369 	vseq.b	$vr9,$vr27,$vr24
  a0:	746e6972 	0x746e6972
  a4:	65736162 	bge	$r11,$r2,95072(0x17360) # 17404 <__stack_size+0x7404>
  a8:	74757000 	xvmax.wu	$xr0,$xr0,$xr28
  ac:	69727473 	bltu	$r3,$r19,94836(0x17274) # 17320 <__stack_size+0x7320>
  b0:	7000676e 	vseq.b	$vr14,$vr27,$vr25
  b4:	746e6972 	0x746e6972
  b8:	00632e66 	bstrins.w	$r6,$r19,0x3,0xb
  bc:	6d6f682f 	bgeu	$r1,$r15,94056(0x16f68) # 17024 <__stack_size+0x7024>
  c0:	33312f65 	xvstelm.w	$xr5,$r27,300(0x12c),0x4
  c4:	69672f32 	bltu	$r25,$r18,91948(0x1672c) # 167f0 <__stack_size+0x67f0>
  c8:	65725f74 	bge	$r27,$r20,94812(0x1725c) # 17324 <__stack_size+0x7324>
  cc:	65702f70 	bge	$r27,$r16,94252(0x1702c) # 170f8 <__stack_size+0x70f8>
  d0:	732f6672 	0x732f6672
  d4:	2f74666f 	0x2f74666f
  d8:	66726570 	bge	$r11,$r16,-101788(0x27264) # fffe733c <_stack+0xe3ee7340>
  dc:	6e75665f 	bgeu	$r18,$r31,-101020(0x27564) # fffe7640 <_stack+0xe3ee7644>
  e0:	696c2f63 	bltu	$r27,$r3,93228(0x16c2c) # 16d0c <__stack_size+0x6d0c>
  e4:	72700062 	0x72700062
  e8:	66746e69 	bge	$r19,$r9,-101268(0x2746c) # fffe7554 <_stack+0xe3ee7558>
  ec:	74677400 	xvavg.wu	$xr0,$xr0,$xr29
  f0:	7475705f 	xvmax.wu	$xr31,$xr2,$xr28
  f4:	72616863 	0x72616863
  f8:	74757000 	xvmax.wu	$xr0,$xr0,$xr28
  fc:	72616863 	0x72616863
 100:	7000632e 	vseq.b	$vr14,$vr25,$vr24
 104:	2e737475 	0x2e737475
 108:	75700063 	0x75700063
 10c:	70007374 	vseq.b	$vr20,$vr27,$vr28
 110:	746e6972 	0x746e6972
 114:	65736162 	bge	$r11,$r2,95072(0x17360) # 17474 <__stack_size+0x7474>
 118:	7600632e 	0x7600632e
 11c:	65756c61 	bge	$r3,$r1,95596(0x1756c) # 17688 <__stack_size+0x7688>
 120:	67697300 	bge	$r24,$r0,-38544(0x36970) # ffff6a90 <_stack+0xe3ef6a94>
 124:	6f6c006e 	bgeu	$r3,$r14,-37888(0x36c00) # ffff6d24 <_stack+0xe3ef6d28>
 128:	6920676e 	bltu	$r27,$r14,73828(0x12064) # 1218c <__stack_size+0x218c>
 12c:	7300746e 	0x7300746e
 130:	70637274 	vabsd.wu	$vr20,$vr19,$vr28
 134:	7a620079 	0x7a620079
 138:	006f7265 	bstrins.w	$r5,$r19,0xf,0x1c
 13c:	69727473 	bltu	$r3,$r19,94836(0x17274) # 173b0 <__stack_size+0x73b0>
 140:	632e676e 	blt	$r27,$r14,-53660(0x32e64) # ffff2fa4 <_stack+0xe3ef2fa8>
 144:	7a697300 	0x7a697300
 148:	00745f65 	bstrins.w	$r5,$r27,0x14,0x17
 14c:	636d656d 	blt	$r11,$r13,-37532(0x36d64) # ffff6eb0 <_stack+0xe3ef6eb4>
 150:	7300706d 	0x7300706d
 154:	636e7274 	blt	$r19,$r20,-37264(0x36e70) # ffff6fc4 <_stack+0xe3ef6fc8>
 158:	73007970 	0x73007970
 15c:	6c6e7274 	bgeu	$r19,$r20,28272(0x6e70) # 6fcc <__stack_size-0x9034>
 160:	73006e65 	0x73006e65
 164:	68637274 	bltu	$r19,$r20,25456(0x6370) # 64d4 <__stack_size-0x9b2c>
 168:	656d0072 	bge	$r3,$r18,93440(0x16d00) # 16e68 <__stack_size+0x6e68>
 16c:	7970636d 	0x7970636d
 170:	72747300 	0x72747300
 174:	006e656c 	bstrins.w	$r12,$r11,0xe,0x19
 178:	6d6d656d 	bgeu	$r11,$r13,93540(0x16d64) # 16edc <__stack_size+0x6edc>
 17c:	0065766f 	bstrins.w	$r15,$r19,0x5,0x1d
 180:	6e727473 	bgeu	$r3,$r19,-101772(0x27274) # fffe73f4 <_stack+0xe3ee73f8>
 184:	00706d63 	bstrins.w	$r3,$r11,0x10,0x1b
 188:	66727473 	bge	$r3,$r19,-101772(0x27274) # fffe73fc <_stack+0xe3ee7400>
 18c:	00646e69 	bstrins.w	$r9,$r19,0x4,0x1b
 190:	736d656d 	vssrarni.wu.d	$vr13,$vr11,0x19
 194:	67007465 	bge	$r3,$r5,-65420(0x30074) # ffff0208 <_stack+0xe3ef020c>
 198:	635f7465 	blt	$r3,$r5,-41100(0x35f74) # ffff610c <_stack+0xe3ef6110>
 19c:	746e756f 	0x746e756f
 1a0:	00796d5f 	bstrins.w	$r31,$r10,0x19,0x1b
 1a4:	7465675f 	xvavg.w	$xr31,$xr26,$xr25
 1a8:	756f635f 	0x756f635f
 1ac:	7400746e 	xvseq.b	$xr14,$xr3,$xr29
 1b0:	73656d69 	vssrani.wu.d	$vr9,$vr11,0x1b
 1b4:	00636570 	bstrins.w	$r16,$r11,0x3,0x19
 1b8:	6f6c635f 	bgeu	$r26,$r31,-37792(0x36c60) # ffff6e18 <_stack+0xe3ef6e1c>
 1bc:	745f6b63 	0x745f6b63
 1c0:	5f767400 	bne	$r0,$r0,-35212(0x37674) # ffff7834 <_stack+0xe3ef7838>
 1c4:	6365736d 	blt	$r27,$r13,-39568(0x36570) # ffff6734 <_stack+0xe3ef6738>
 1c8:	6d697400 	bgeu	$r0,$r0,92532(0x16974) # 16b3c <__stack_size+0x6b3c>
 1cc:	00632e65 	bstrins.w	$r5,$r19,0x3,0xb
 1d0:	5f746567 	bne	$r11,$r7,-35740(0x37464) # ffff7634 <_stack+0xe3ef7638>
 1d4:	67007375 	bge	$r27,$r21,-65424(0x30070) # ffff0244 <_stack+0xe3ef0248>
 1d8:	635f7465 	blt	$r3,$r5,-41100(0x35f74) # ffff614c <_stack+0xe3ef6150>
 1dc:	6b636f6c 	bltu	$r27,$r12,-40084(0x3636c) # ffff6548 <_stack+0xe3ef654c>
 1e0:	5f767400 	bne	$r0,$r0,-35212(0x37674) # ffff7854 <_stack+0xe3ef7858>
 1e4:	63657375 	blt	$r27,$r21,-39568(0x36570) # ffff6754 <_stack+0xe3ef6758>
 1e8:	6f635f00 	bgeu	$r24,$r0,-40100(0x3635c) # ffff6544 <_stack+0xe3ef6548>
 1ec:	6176746e 	blt	$r3,$r14,95860(0x17674) # 17860 <__stack_size+0x7860>
 1f0:	7674006c 	0x7674006c
 1f4:	6365735f 	blt	$r26,$r31,-39568(0x36570) # ffff6764 <_stack+0xe3ef6768>
 1f8:	74656700 	xvavg.w	$xr0,$xr24,$xr25
 1fc:	00736e5f 	bstrins.w	$r31,$r18,0x13,0x1b
 200:	6e5f7674 	bgeu	$r19,$r20,-106636(0x25f74) # fffe6174 <_stack+0xe3ee6178>
 204:	00636573 	bstrins.w	$r19,$r11,0x3,0x19
 208:	636f6c63 	blt	$r3,$r3,-37012(0x36f6c) # ffff7174 <_stack+0xe3ef7178>
 20c:	65675f6b 	bge	$r27,$r11,91996(0x1675c) # 16968 <__stack_size+0x6968>
 210:	6d697474 	bgeu	$r3,$r20,92532(0x16974) # 16b84 <__stack_size+0x6b84>
 214:	Address 0x0000000000000214 is out of bounds.


Disassembly of section .debug_frame:

00000000 <.debug_frame>:
   0:	0000000c 	0x0000000c
   4:	ffffffff 	0xffffffff
   8:	7c010001 	0x7c010001
   c:	00030d01 	0x00030d01
  10:	00000034 	0x00000034
  14:	00000000 	0x00000000
  18:	1c009550 	pcaddu12i	$r16,1194(0x4aa)
  1c:	0000023c 	0x0000023c
  20:	5c600e44 	bne	$r18,$r4,24588(0x600c) # 602c <__stack_size-0x9fd4>
  24:	09810d9a 	0x09810d9a
  28:	0b980a97 	0x0b980a97
  2c:	0e9b0c99 	0x0e9b0c99
  30:	b4020f9c 	0xb4020f9c
  34:	d744c10a 	0xd744c10a
  38:	d944d844 	0xd944d844
  3c:	db44da44 	0xdb44da44
  40:	0e48dc44 	0x0e48dc44
  44:	000b4400 	0x000b4400
  48:	0000000c 	0x0000000c
  4c:	ffffffff 	0xffffffff
  50:	7c010001 	0x7c010001
  54:	00030d01 	0x00030d01
  58:	00000018 	0x00000018
  5c:	00000048 	0x00000048
  60:	1c009790 	pcaddu12i	$r16,1212(0x4bc)
  64:	00000028 	0x00000028
  68:	44100e44 	bnez	$r18,1052684(0x10100c) # 101074 <__stack_size+0xf1074>
  6c:	d9580199 	0xd9580199
  70:	00000e44 	0x00000e44
  74:	00000018 	0x00000018
  78:	00000048 	0x00000048
  7c:	1c0097c0 	pcaddu12i	$r0,1214(0x4be)
  80:	00000024 	0x00000024
  84:	44100e44 	bnez	$r18,1052684(0x10100c) # 101090 <__stack_size+0xf1090>
  88:	d9540199 	0xd9540199
  8c:	00000e44 	0x00000e44
  90:	0000000c 	0x0000000c
  94:	ffffffff 	0xffffffff
  98:	7c010001 	0x7c010001
  9c:	00030d01 	0x00030d01
  a0:	00000024 	0x00000024
  a4:	00000090 	0x00000090
  a8:	1c0097f0 	pcaddu12i	$r16,1215(0x4bf)
  ac:	00000074 	0x00000074
  b0:	50100e44 	b	-116387828(0x910100c) # f91010bc <_stack+0xdd0010c0>
  b4:	02970181 	addi.w	$r1,$r12,1472(0x5c0)
  b8:	04990398 	csrxchg	$r24,$r28,0x2640
  bc:	44c14802 	bnez	$r0,573768(0x8c148) # 8c204 <__stack_size+0x7c204>
  c0:	44d844d7 	bnez	$r6,-2303932(0x5cd844) # ffdcd904 <_stack+0xe3ccd908>
  c4:	000e48d9 	bytepick.d	$r25,$r6,$r18,0x4
  c8:	00000018 	0x00000018
  cc:	00000090 	0x00000090
  d0:	1c009870 	pcaddu12i	$r16,1219(0x4c3)
  d4:	0000002c 	0x0000002c
  d8:	44100e44 	bnez	$r18,1052684(0x10100c) # 1010e4 <__stack_size+0xf10e4>
  dc:	c1580181 	0xc1580181
  e0:	00000e48 	0x00000e48
  e4:	0000000c 	0x0000000c
  e8:	ffffffff 	0xffffffff
  ec:	7c010001 	0x7c010001
  f0:	00030d01 	0x00030d01
  f4:	00000028 	0x00000028
  f8:	000000e4 	0x000000e4
  fc:	1c0098a0 	pcaddu12i	$r0,1221(0x4c5)
 100:	000000ec 	0x000000ec
 104:	50600e44 	b	-116367348(0x910600c) # f9106110 <_stack+0xdd006114>
 108:	01810297 	0x01810297
 10c:	04990398 	csrxchg	$r24,$r28,0x2640
 110:	c10a8c02 	0xc10a8c02
 114:	d844d744 	0xd844d744
 118:	0e48d944 	0x0e48d944
 11c:	000b4400 	0x000b4400
 120:	0000000c 	0x0000000c
 124:	ffffffff 	0xffffffff
 128:	7c010001 	0x7c010001
 12c:	00030d01 	0x00030d01
 130:	0000000c 	0x0000000c
 134:	00000120 	0x00000120
 138:	1c009990 	pcaddu12i	$r16,1228(0x4cc)
 13c:	00000034 	0x00000034
 140:	0000000c 	0x0000000c
 144:	00000120 	0x00000120
 148:	1c0099d0 	pcaddu12i	$r16,1230(0x4ce)
 14c:	00000034 	0x00000034
 150:	0000000c 	0x0000000c
 154:	00000120 	0x00000120
 158:	1c009a10 	pcaddu12i	$r16,1232(0x4d0)
 15c:	0000001c 	0x0000001c
 160:	0000000c 	0x0000000c
 164:	00000120 	0x00000120
 168:	1c009a30 	pcaddu12i	$r16,1233(0x4d1)
 16c:	0000002c 	0x0000002c
 170:	00000014 	0x00000014
 174:	00000120 	0x00000120
 178:	1c009a60 	pcaddu12i	$r0,1235(0x4d3)
 17c:	0000006c 	0x0000006c
 180:	100e5002 	addu16i.d	$r2,$r0,916(0x394)
 184:	00000e54 	0x00000e54
 188:	0000000c 	0x0000000c
 18c:	00000120 	0x00000120
 190:	1c009ad0 	pcaddu12i	$r16,1238(0x4d6)
 194:	0000003c 	0x0000003c
 198:	0000000c 	0x0000000c
 19c:	00000120 	0x00000120
 1a0:	1c009b10 	pcaddu12i	$r16,1240(0x4d8)
 1a4:	00000028 	0x00000028
 1a8:	0000000c 	0x0000000c
 1ac:	00000120 	0x00000120
 1b0:	1c009b40 	pcaddu12i	$r0,1242(0x4da)
 1b4:	00000020 	0x00000020
 1b8:	0000000c 	0x0000000c
 1bc:	00000120 	0x00000120
 1c0:	1c009b60 	pcaddu12i	$r0,1243(0x4db)
 1c4:	00000028 	0x00000028
 1c8:	0000000c 	0x0000000c
 1cc:	00000120 	0x00000120
 1d0:	1c009b90 	pcaddu12i	$r16,1244(0x4dc)
 1d4:	0000005c 	0x0000005c
 1d8:	00000014 	0x00000014
 1dc:	00000120 	0x00000120
 1e0:	1c009bf0 	pcaddu12i	$r16,1247(0x4df)
 1e4:	00000058 	0x00000058
 1e8:	54100e7c 	bl	-101707764(0x9f0100c) # f9f011f4 <_stack+0xdde011f8>
 1ec:	0000000e 	0x0000000e
 1f0:	0000000c 	0x0000000c
 1f4:	00000120 	0x00000120
 1f8:	1c009c50 	pcaddu12i	$r16,1250(0x4e2)
 1fc:	00000018 	0x00000018
 200:	0000000c 	0x0000000c
 204:	ffffffff 	0xffffffff
 208:	7c010001 	0x7c010001
 20c:	00030d01 	0x00030d01
 210:	00000018 	0x00000018
 214:	00000200 	0x00000200
 218:	1c009c70 	pcaddu12i	$r16,1251(0x4e3)
 21c:	0000001c 	0x0000001c
 220:	44100e44 	bnez	$r18,1052684(0x10100c) # 10122c <__stack_size+0xf122c>
 224:	d94c0199 	0xd94c0199
 228:	00000e44 	0x00000e44
 22c:	0000000c 	0x0000000c
 230:	00000200 	0x00000200
 234:	1c009c90 	pcaddu12i	$r16,1252(0x4e4)
 238:	00000004 	0x00000004
 23c:	0000000c 	0x0000000c
 240:	00000200 	0x00000200
 244:	1c009ca0 	pcaddu12i	$r0,1253(0x4e5)
 248:	00000008 	0x00000008
 24c:	00000018 	0x00000018
 250:	00000200 	0x00000200
 254:	1c009cb0 	pcaddu12i	$r16,1253(0x4e5)
 258:	00000084 	0x00000084
 25c:	44100e44 	bnez	$r18,1052684(0x10100c) # 101268 <__stack_size+0xf1268>
 260:	60020199 	blt	$r12,$r25,512(0x200) # 460 <__stack_size-0xfba0>
 264:	000e58d9 	bytepick.d	$r25,$r6,$r22,0x4
 268:	0000000c 	0x0000000c
 26c:	00000200 	0x00000200
 270:	1c009d40 	pcaddu12i	$r0,1258(0x4ea)
 274:	00000004 	0x00000004
 278:	00000018 	0x00000018
 27c:	00000200 	0x00000200
 280:	1c009d50 	pcaddu12i	$r16,1258(0x4ea)
 284:	00000024 	0x00000024
 288:	44100e44 	bnez	$r18,1052684(0x10100c) # 101294 <__stack_size+0xf1294>
 28c:	d9500199 	0xd9500199
 290:	00000e48 	0x00000e48
 294:	00000018 	0x00000018
 298:	00000200 	0x00000200
 29c:	1c009d80 	pcaddu12i	$r0,1260(0x4ec)
 2a0:	00000030 	0x00000030
 2a4:	44100e44 	bnez	$r18,1052684(0x10100c) # 1012b0 <__stack_size+0xf12b0>
 2a8:	d9500199 	0xd9500199
 2ac:	00000e54 	0x00000e54
